 GameServer

 Timestamp is 56fa8c23 (Tue Mar 29 11:07:31 2016)

 Preferred load address is 00400000

 Start         Length     Name                   Class
 0001:00000000 00284cf4H .text                   CODE
 0001:00284d00 0000dd6dH .text$x                 CODE
 0001:00292a70 00002c66H .text$yc                CODE
 0001:002956e0 000014b2H .text$yd                CODE
 0002:00000000 000009c4H .idata$5                DATA
 0002:000009c4 00000004H .CRT$XCA                DATA
 0002:000009c8 00000004H .CRT$XCB                DATA
 0002:000009cc 00000014H .CRT$XCC                DATA
 0002:000009e0 00000020H .CRT$XCL                DATA
 0002:00000a00 00000660H .CRT$XCU                DATA
 0002:00001060 00000004H .CRT$XCZ                DATA
 0002:00001064 00000004H .CRT$XIA                DATA
 0002:00001068 00000018H .CRT$XIC                DATA
 0002:00001080 00000004H .CRT$XIY                DATA
 0002:00001084 00000004H .CRT$XIZ                DATA
 0002:00001088 00000004H .CRT$XPA                DATA
 0002:0000108c 00000008H .CRT$XPX                DATA
 0002:00001094 00000004H .CRT$XPXA               DATA
 0002:00001098 00000004H .CRT$XPZ                DATA
 0002:0000109c 00000004H .CRT$XTA                DATA
 0002:000010a0 00000004H .CRT$XTZ                DATA
 0002:000010b0 0005f008H .rdata                  DATA
 0002:000600b8 0000b58cH .rdata$r                DATA
 0002:0006b650 00000f50H .rdata$sxdata           DATA
 0002:0006c5a0 00000004H .rtc$IAA                DATA
 0002:0006c5a4 00000004H .rtc$IZZ                DATA
 0002:0006c5a8 00000004H .rtc$TAA                DATA
 0002:0006c5ac 00000004H .rtc$TZZ                DATA
 0002:0006c5b0 000101c4H .xdata$x                DATA
 0002:0007c774 00000000H ATL$__a                 DATA
 0002:0007c774 00000000H ATL$__z                 DATA
 0002:0007c774 00000168H .idata$2                DATA
 0002:0007c8dc 00000014H .idata$3                DATA
 0002:0007c8f0 000009c4H .idata$4                DATA
 0002:0007d2b4 0000285eH .idata$6                DATA
 0002:0007fb12 00000000H .edata                  DATA
 0003:00000000 00017543H .data                   DATA
 0003:00017560 0c135fc4H .bss                    DATA
 0004:00000000 000002c8H .rsrc$01                DATA
 0004:000002d0 00001508H .rsrc$02                DATA

  Address         Publics by Value              Rva+Base       Lib:Object

 0000:00000000       __except_list              00000000     <absolute>
 0000:000003d4       ___safe_se_handler_count   000003d4     <absolute>
 0000:00000000       ___ImageBase               00400000     <linker-defined>
 0001:00000000       ??_H@YGXPAXIHP6EPAX0@Z@Z   00401000 f i zzzitem.obj
 0001:00000030       ?Clear@CItem@@QAEXXZ       00401030 f   zzzitem.obj
 0001:000000f0       ?IsItem@CItem@@QAEHXZ      004010f0 f   zzzitem.obj
 0001:00000100       ?IsSetItem@CItem@@QAEHXZ   00401100 f   zzzitem.obj
 0001:00000120       ?OldValue@CItem@@QAEXXZ    00401120 f   zzzitem.obj
 0001:000001d0       ??0CPetItemExp@@QAE@XZ     004011d0 f   zzzitem.obj
 0001:00000230       ?GetSize@CItem@@QAEHAAH0@Z 00401230 f   zzzitem.obj
 0001:00000270       ?BookSpellDmg@CItem@@QAEHXZ 00401270 f   zzzitem.obj
 0001:00000290       ?IsClass@CItem@@QAEHDHH@Z  00401290 f   zzzitem.obj
 0001:000002f0       ?GetName@CItem@@QAEPADXZ   004012f0 f   zzzitem.obj
 0001:00000300       ?PlusSpecialSetRing@CItem@@QAEXPAE@Z 00401300 f   zzzitem.obj
 0001:00000380       ?PlusSpecial@CItem@@QAEXPAHH@Z 00401380 f   zzzitem.obj
 0001:000004b0       ?PlusSpecialPercentEx@CItem@@QAEXPAHHH@Z 004014b0 f   zzzitem.obj
 0001:00000550       ?SetItemPlusSpecialStat@CItem@@QAEXPAGH@Z 00401550 f   zzzitem.obj
 0001:00000600       ?GetAddStatType@CItem@@QAEHXZ 00401600 f   zzzitem.obj
 0001:00000610       ?GetWeaponType@CItem@@QAEHXZ 00401610 f   zzzitem.obj
 0001:00000640       ?GetDetailItemType@CItem@@QAEHXZ 00401640 f   zzzitem.obj
 0001:000007c0       ?PetValue@CItem@@QAEXXZ    004017c0 f   zzzitem.obj
 0001:00000880       ?IsExtItem@CItem@@QAEHXZ   00401880 f   zzzitem.obj
 0001:000008a0       ?IsExtLifeAdd@CItem@@QAEHXZ 004018a0 f   zzzitem.obj
 0001:000008c0       ?IsExtManaAdd@CItem@@QAEHXZ 004018c0 f   zzzitem.obj
 0001:000008e0       ?IsExtDamageMinus@CItem@@QAEHXZ 004018e0 f   zzzitem.obj
 0001:00000900       ?IsExtDamageReflect@CItem@@QAEHXZ 00401900 f   zzzitem.obj
 0001:00000920       ?IsExtDefenseSuccessfull@CItem@@QAEHXZ 00401920 f   zzzitem.obj
 0001:00000940       ?IsExtMonsterMoney@CItem@@QAEHXZ 00401940 f   zzzitem.obj
 0001:00000960       ?IsExtExcellentDamage@CItem@@QAEHXZ 00401960 f   zzzitem.obj
 0001:000009a0       ?IsExtAttackRate@CItem@@QAEHXZ 004019a0 f   zzzitem.obj
 0001:000009c0       ?IsExtAttackRate2@CItem@@QAEHXZ 004019c0 f   zzzitem.obj
 0001:000009e0       ?IsExtAttackSpeed@CItem@@QAEHXZ 004019e0 f   zzzitem.obj
 0001:00000a00       ?IsExtMonsterDieLife@CItem@@QAEHXZ 00401a00 f   zzzitem.obj
 0001:00000a20       ?IsExtMonsterDieMana@CItem@@QAEHXZ 00401a20 f   zzzitem.obj
 0001:00000a50       ?IsWingOpGetOnePercentDamage@CItem@@QAEHXZ 00401a50 f   zzzitem.obj
 0001:00000ab0       ?IsDinorantReduceAttackDamaege@CItem@@QAEHXZ 00401ab0 f   zzzitem.obj
 0001:00000ae0       ?IsFenrirIncLastAttackDamage@CItem@@QAEHXZ 00401ae0 f   zzzitem.obj
 0001:00000b10       ?IsFenrirDecLastAttackDamage@CItem@@QAEHXZ 00401b10 f   zzzitem.obj
 0001:00000b40       ?IsFenrirSpecial@CItem@@QAEHXZ 00401b40 f   zzzitem.obj
 0001:00000b70       ?IsThirdWingOpGetOnePercentDamage@CItem@@QAEHXZ 00401b70 f   zzzitem.obj
 0001:00000bc0       ?MakeSocketSlot@CItem@@QAEXE@Z 00401bc0 f   zzzitem.obj
 0001:00000c00       ?IsPeriodItem@CItem@@QAE_NXZ 00401c00 f   zzzitem.obj
 0001:00000c10       ?IsPeriodItemExpire@CItem@@QAE_NXZ 00401c10 f   zzzitem.obj
 0001:00000c20       ?SetPeriodItem@CItem@@QAEXXZ 00401c20 f   zzzitem.obj
 0001:00000c30       ?SetPeriodItemExpire@CItem@@QAEXXZ 00401c30 f   zzzitem.obj
 0001:00000c40       ?IsNewWingOpGetOnePercentDamage@CItem@@QAEHXZ 00401c40 f   zzzitem.obj
 0001:00000c90       ?BufferItemtoConvert3@@YAXPAEAAHAAE2222@Z 00401c90 f   zzzitem.obj
 0001:00000d10       ?ItemByteConvert@@YAXPAEVCItem@@@Z 00401d10 f   zzzitem.obj
 0001:00000e20       ?ItemByteConvert@@YAXPAEHEEEEEEEEEQAEEE@Z 00401e20 f   zzzitem.obj
 0001:00000ef0       ?ItemByteConvert16@@YAXPAEQAVCItem@@H@Z 00401ef0 f   zzzitem.obj
 0001:00001100       ?ItemGetNumberMake@@YAHHH@Z 00402100 f   zzzitem.obj
 0001:00001130       ?ItemGetSize@@YAXHAAH0@Z   00402130 f   zzzitem.obj
 0001:00001160       ?HasItemDurability@@YAHH@Z 00402160 f   zzzitem.obj
 0001:00001190       ?ItemGetDurability@@YAHHHHH@Z 00402190 f   zzzitem.obj
 0001:00001340       ?GetAllRepairItemRate@@YAMH@Z 00402340 f   zzzitem.obj
 0001:00001360       ?CalRepairRate@@YAXHHPAUITEM_ATTRIBUTE@@@Z 00402360 f   zzzitem.obj
 0001:00001380       ?OpenItemScript@@YAHPADH@Z 00402380 f   zzzitem.obj
 0001:00001ce0       ?OpenItemNameScript@@YAHPADH@Z 00402ce0 f   zzzitem.obj
 0001:00001e40       ?zzzItemLevel@@YAHHHH@Z    00402e40 f   zzzitem.obj
 0001:00001e80       ?GetLevelItem@@YAHHHH@Z    00402e80 f   zzzitem.obj
 0001:00002010       ?IsItem@@YAHH@Z            00403010 f   zzzitem.obj
 0001:00002030       ?GetItemAttr@@YAPAUITEM_ATTRIBUTE@@H@Z 00403030 f   zzzitem.obj
 0001:00002050       ??$_Pow_int@M@@YAMMH@Z     00403050 f i zzzitem.obj
 0001:000020a0       ??0CItem@@QAE@XZ           004030a0 f   zzzitem.obj
 0001:000020b0       ?ItemDefense@CItem@@QAEHXZ 004030b0 f   zzzitem.obj
 0001:000020f0       ?Value@CItem@@QAEXXZ       004030f0 f   zzzitem.obj
 0001:000037e0       ?Convert@CItem@@QAEXHEEEEEEPAEEEE@Z 004047e0 f   zzzitem.obj
 0001:00005580       ?SetPetItemInfo@CItem@@QAEXHH@Z 00406580 f   zzzitem.obj
 0001:000056a0       ?AddPetItemExp@CItem@@QAEHH@Z 004066a0 f   zzzitem.obj
 0001:00005860       ?DecPetItemExp@CItem@@QAEHH@Z 00406860 f   zzzitem.obj
 0001:00005ae0       ?PetItemLevelDown@CItem@@QAEHH@Z 00406ae0 f   zzzitem.obj
 0001:00005be0       ?CheckDurabilityState@CItem@@QAEHXZ 00406be0 f   zzzitem.obj
 0001:00005da0       ?SimpleDurabilityDown@CItem@@QAEHH@Z 00406da0 f   zzzitem.obj
 0001:00005e10       ?DurabilityDown@CItem@@QAEHHH@Z 00406e10 f   zzzitem.obj
 0001:00005ef0       ?NormalWeaponDurabilityDown@CItem@@QAEHHH@Z 00406ef0 f   zzzitem.obj
 0001:00006050       ?BowWeaponDurabilityDown@CItem@@QAEHHH@Z 00407050 f   zzzitem.obj
 0001:00006190       ?StaffWeaponDurabilityDown@CItem@@QAEHHH@Z 00407190 f   zzzitem.obj
 0001:000062e0       ?LuckyItemArmorDurabilityDown@CItem@@QAEHHH@Z 004072e0 f   zzzitem.obj
 0001:000063e0       ?ArmorDurabilityDown@CItem@@QAEHHH@Z 004073e0 f   zzzitem.obj
 0001:00006900       ??1CAcceptIp@@UAE@XZ       00407900 f   AcceptIp.obj
 0001:00006910       ?Init@CAcceptIp@@QAEXXZ    00407910 f   AcceptIp.obj
 0001:00006940       ?IsIp@CAcceptIp@@QAEHPAD@Z 00407940 f   AcceptIp.obj
 0001:000069b0       ?Load@CAcceptIp@@QAEXPAD@Z 004079b0 f   AcceptIp.obj
 0001:00006a60       ??0CAcceptIp@@QAE@XZ       00407a60 f   AcceptIp.obj
 0001:00006a70       ??_ECAcceptIp@@UAEPAXI@Z   00407a70 f i AcceptIp.obj
 0001:00006a70       ??_GCAcceptIp@@UAEPAXI@Z   00407a70 f i AcceptIp.obj
 0001:00006aa0       ??1cBalanceSystem@@UAE@XZ  00407aa0 f   BalanceSystem.obj
 0001:00006ab0       ?Init@cBalanceSystem@@QAEXXZ 00407ab0 f   BalanceSystem.obj
 0001:00006b90       ?ReadConfigs@cBalanceSystem@@QAEXPAD@Z 00407b90 f   BalanceSystem.obj
 0001:00006f70       ?Load@cBalanceSystem@@QAEXXZ 00407f70 f   BalanceSystem.obj
 0001:00006fa0       ?Main@cBalanceSystem@@QAEXPAUOBJECTSTRUCT@@0AAH@Z 00407fa0 f   BalanceSystem.obj
 0001:00007330       ??0cBalanceSystem@@QAE@XZ  00408330 f   BalanceSystem.obj
 0001:00007340       ??_GcBalanceSystem@@UAEPAXI@Z 00408340 f i BalanceSystem.obj
 0001:00007340       ??_EcBalanceSystem@@UAEPAXI@Z 00408340 f i BalanceSystem.obj
 0001:00007660       ?Init@ChatFilter@@QAEXXZ   00408660 f   ChatFilter.obj
 0001:00007670       ?ReadMain@ChatFilter@@QAEXPAD@Z 00408670 f   ChatFilter.obj
 0001:000076c0       ?AtlThrowImpl@ATL@@YGXJ@Z  004086c0 f i ChatFilter.obj
 0001:000076e0       ?_AtlGetStringResourceImage@ATL@@YAPBUATLSTRINGRESOURCEIMAGE@1@PAUHINSTANCE__@@PAUHRSRC__@@I@Z 004086e0 f i ChatFilter.obj
 0001:00007750       ?AtlGetStringResourceImage@ATL@@YAPBUATLSTRINGRESOURCEIMAGE@1@PAUHINSTANCE__@@I@Z 00408750 f i ChatFilter.obj
 0001:00007790       ?Release@CStringData@ATL@@QAEXXZ 00408790 f i ChatFilter.obj
 0001:000077b0       ?SetLength@?$CSimpleStringT@D$0A@@ATL@@AAEXH@Z 004087b0 f i ChatFilter.obj
 0001:000077e0       ?GetBaseTypeLength@?$ChTraitsCRT@D@ATL@@SAHPB_WH@Z 004087e0 f i ChatFilter.obj
 0001:00007800       ?ConvertToBaseType@?$ChTraitsCRT@D@ATL@@SAXPADHPB_WH@Z 00408800 f i ChatFilter.obj
 0001:00007830       ?Empty@?$CSimpleStringT@D$0A@@ATL@@QAEXXZ 00408830 f i ChatFilter.obj
 0001:00007890       ?ThrowMemoryException@?$CSimpleStringT@D$0A@@ATL@@KAXXZ 00408890 f i ChatFilter.obj
 0001:000078a0       ?Fork@?$CSimpleStringT@D$0A@@ATL@@AAEXH@Z 004088a0 f i ChatFilter.obj
 0001:00007920       ?Reallocate@?$CSimpleStringT@D$0A@@ATL@@AAEXH@Z 00408920 f i ChatFilter.obj
 0001:00007960       ??0?$CSimpleStringT@D$0A@@ATL@@QAE@PAUIAtlStringMgr@1@@Z 00408960 f i ChatFilter.obj
 0001:00007990       ?PrepareWrite2@?$CSimpleStringT@D$0A@@ATL@@AAEXH@Z 00408990 f i ChatFilter.obj
 0001:000079f0       ?CloneData@?$CSimpleStringT@D$0A@@ATL@@CAPAUCStringData@2@PAU32@@Z 004089f0 f i ChatFilter.obj
 0001:00007a60       ??1?$CStringT@DV?$StrTraitMFC@DV?$ChTraitsCRT@D@ATL@@@@@ATL@@QAE@XZ 00408a60 f i ChatFilter.obj
 0001:00007a60       ??1?$CSimpleStringT@D$0A@@ATL@@QAE@XZ 00408a60 f i ChatFilter.obj
 0001:00007a80       ?PrepareWrite@?$CSimpleStringT@D$0A@@ATL@@AAEPADH@Z 00408a80 f i ChatFilter.obj
 0001:00007ac0       ?LoadStringA@?$CStringT@DV?$StrTraitMFC@DV?$ChTraitsCRT@D@ATL@@@@@ATL@@QAEHPAUHINSTANCE__@@I@Z 00408ac0 f i ChatFilter.obj
 0001:00007b80       ?SetString@?$CSimpleStringT@D$0A@@ATL@@QAEXPBDH@Z 00408b80 f i ChatFilter.obj
 0001:00007c20       ??4?$CStringT@DV?$StrTraitMFC@DV?$ChTraitsCRT@D@ATL@@@@@ATL@@QAEAAV01@PB_W@Z 00408c20 f i ChatFilter.obj
 0001:00007cb0       ?LoadStringA@?$CStringT@DV?$StrTraitMFC@DV?$ChTraitsCRT@D@ATL@@@@@ATL@@QAEHI@Z 00408cb0 f i ChatFilter.obj
 0001:00007ce0       ??4?$CSimpleStringT@D$0A@@ATL@@QAEAAV01@ABV01@@Z 00408ce0 f i ChatFilter.obj
 0001:00007d50       ?SetString@?$CSimpleStringT@D$0A@@ATL@@QAEXPBD@Z 00408d50 f i ChatFilter.obj
 0001:00007d90       ??0?$CStringT@DV?$StrTraitMFC@DV?$ChTraitsCRT@D@ATL@@@@@ATL@@QAE@PB_W@Z 00408d90 f i ChatFilter.obj
 0001:00007e30       ?StringToUTF8@ChatFilter@@QAEHAAV?$CStringT@DV?$StrTraitMFC@DV?$ChTraitsCRT@D@ATL@@@@@ATL@@@Z 00408e30 f   ChatFilter.obj
 0001:00007f10       ??0?$CStringT@DV?$StrTraitMFC@DV?$ChTraitsCRT@D@ATL@@@@@ATL@@QAE@PBD@Z 00408f10 f i ChatFilter.obj
 0001:00007fd0       ?ReadList@ChatFilter@@QAEXPAD@Z 00408fd0 f   ChatFilter.obj
 0001:000080f0       ?CheckText@ChatFilter@@QAEHPAD@Z 004090f0 f   ChatFilter.obj
 0001:00008120       ?Load@ChatFilter@@QAEXXZ   00409120 f   ChatFilter.obj
 0001:00008160       ?ReadData@ClassCalc@@QAEXPAD@Z 00409160 f   ClassCalc.obj
 0001:00008730       ?Load@ClassCalc@@QAEXXZ    00409730 f   ClassCalc.obj
 0001:00008750       ?SendLogin@ConnectEx@@QAEXHPAUCONNECTEX_LOGIN@@@Z 00409750 f   ConnectEx.obj
 0001:00008a40       ?SendGame@ConnectEx@@QAEXH@Z 00409a40 f   ConnectEx.obj
 0001:00008b60       ?SendClose@ConnectEx@@QAEXH@Z 00409b60 f   ConnectEx.obj
 0001:00008b90       ?EnableAutoReconect@ConnectEx@@QAEXXZ 00409b90 f   ConnectEx.obj
 0001:00008be0       ?LoadConfigs@cDropEvent@@QAEXXZ 00409be0 f   DropEvent.obj
 0001:00008c70       ?StartEvent@cDropEvent@@QAEXXZ 00409c70 f   DropEvent.obj
 0001:00008d40       ?TickTime@cDropEvent@@QAEXXZ 00409d40 f   DropEvent.obj
 0001:000090b0       ??1bad_alloc@std@@UAE@XZ   0040a0b0 f i DropEx.obj
 0001:000090c0       ??_Ebad_alloc@std@@UAEPAXI@Z 0040a0c0 f i DropEx.obj
 0001:000090c0       ??_Gbad_alloc@std@@UAEPAXI@Z 0040a0c0 f i DropEx.obj
 0001:000090f0       ?DropItem@DropEx@@QAE_NPAUOBJECTSTRUCT@@0@Z 0040a0f0 f   DropEx.obj
 0001:000092d0       ??0bad_alloc@std@@QAE@ABV01@@Z 0040a2d0 f i DropEx.obj
 0001:000092f0       ?allocate@?$allocator@UDROPEX_DATA@@@std@@QAEPAUDROPEX_DATA@@I@Z 0040a2f0 f i DropEx.obj
 0001:00009360       ??$_Cons_val@V?$allocator@UDROPEX_DATA@@@std@@UDROPEX_DATA@@ABU3@@std@@YAXAAV?$allocator@UDROPEX_DATA@@@0@PAUDROPEX_DATA@@ABU2@@Z 0040a360 f i DropEx.obj
 0001:00009360       ??$_Cons_val@V?$allocator@UDROPEX_DATA@@@std@@UDROPEX_DATA@@AAU3@@std@@YAXAAV?$allocator@UDROPEX_DATA@@@0@PAUDROPEX_DATA@@AAU2@@Z 0040a360 f i DropEx.obj
 0001:00009360       ??$_Cons_val@V?$allocator@UDROPEX_DATA@@@std@@UDROPEX_DATA@@U3@@std@@YAXAAV?$allocator@UDROPEX_DATA@@@0@PAUDROPEX_DATA@@$$QAU2@@Z 0040a360 f i DropEx.obj
 0001:00009380       ??$_Uninit_move@PAUDROPEX_DATA@@PAU1@V?$allocator@UDROPEX_DATA@@@std@@U1@@std@@YAPAUDROPEX_DATA@@PAU1@00AAV?$allocator@UDROPEX_DATA@@@0@0U_Nonscalar_ptr_iterator_tag@0@@Z 0040a380 f i DropEx.obj
 0001:000093c0       ?reserve@?$vector@UDROPEX_DATA@@V?$allocator@UDROPEX_DATA@@@std@@@std@@QAEXI@Z 0040a3c0 f i DropEx.obj
 0001:000094d0       ?_Reserve@?$vector@UDROPEX_DATA@@V?$allocator@UDROPEX_DATA@@@std@@@std@@IAEXI@Z 0040a4d0 f i DropEx.obj
 0001:00009550       ?Init@DropEx@@QAEXXZ       0040a550 f   DropEx.obj
 0001:000095a0       ?push_back@?$vector@UDROPEX_DATA@@V?$allocator@UDROPEX_DATA@@@std@@@std@@QAEXABUDROPEX_DATA@@@Z 0040a5a0 f i DropEx.obj
 0001:00009630       ??0DropEx@@QAE@XZ          0040a630 f   DropEx.obj
 0001:00009650       ?ReadData@DropEx@@QAEXPAD@Z 0040a650 f   DropEx.obj
 0001:00009820       ?Load@DropEx@@QAEXXZ       0040a820 f   DropEx.obj
 0001:00009850       ?ExcOpt@@YAHH@Z            0040a850 f   ExUtilits.obj
 0001:00009960       ?Init@cItemOption@@QAEXXZ  0040a960 f   ItemOption.obj
 0001:000099c0       ?AttackDamage@cItemOption@@QAEXPAUOBJECTSTRUCT@@0AAH@Z 0040a9c0 f   ItemOption.obj
 0001:00009af0       ??$_Copy_impl@PAUItemRank_List@@PAU1@@std@@YAPAUItemRank_List@@PAU1@00@Z 0040aaf0 f i ItemRank.obj
 0001:00009b20       ?_Buy@?$vector@UItemRank_List@@V?$allocator@UItemRank_List@@@std@@@std@@IAE_NI@Z 0040ab20 f i ItemRank.obj
 0001:00009b70       ??$_Uninit_copy@PAUItemRank_List@@PAU1@V?$allocator@UItemRank_List@@@std@@@std@@YAPAUItemRank_List@@PAU1@00AAV?$allocator@UItemRank_List@@@0@U_Nonscalar_ptr_iterator_tag@0@@Z 0040ab70 f i ItemRank.obj
 0001:00009bb0       ??$_Ucopy@PAUItemRank_List@@@?$vector@UItemRank_List@@V?$allocator@UItemRank_List@@@std@@@std@@IAEPAUItemRank_List@@PAU2@00@Z 0040abb0 f i ItemRank.obj
 0001:00009be0       ??4?$vector@UItemRank_List@@V?$allocator@UItemRank_List@@@std@@@std@@QAEAAV01@ABV01@@Z 0040abe0 f i ItemRank.obj
 0001:00009cf0       ??$_Move@PAUItemRank_Data@@PAU1@@std@@YAPAUItemRank_Data@@PAU1@00U_Nonscalar_ptr_iterator_tag@0@@Z 0040acf0 f i ItemRank.obj
 0001:00009d60       ??$_Dest_val@V?$allocator@UItemRank_Data@@@std@@UItemRank_Data@@@std@@YAXAAV?$allocator@UItemRank_Data@@@0@PAUItemRank_Data@@@Z 0040ad60 f i ItemRank.obj
 0001:00009d90       ?erase@?$vector@UItemRank_Data@@V?$allocator@UItemRank_Data@@@std@@@std@@QAE?AV?$_Vector_iterator@V?$_Vector_val@UItemRank_Data@@V?$allocator@UItemRank_Data@@@std@@@std@@@2@V?$_Vector_const_iterator@V?$_Vector_val@UItemRank_Data@@V?$allocator@UItemRank_Data@@@std@@@std@@@2@0@Z 0040ad90 f i ItemRank.obj
 0001:00009e00       ??1?$vector@UItemRank_Data@@V?$allocator@UItemRank_Data@@@std@@@std@@QAE@XZ 0040ae00 f i ItemRank.obj
 0001:00009e00       ??1ItemRank@@QAE@XZ        0040ae00 f i ItemRank.obj
 0001:00009e40       ?Init@ItemRank@@QAEXXZ     0040ae40 f   ItemRank.obj
 0001:00009e60       ??0ItemRank@@QAE@XZ        0040ae60 f   ItemRank.obj
 0001:0000a1a0       ?Init@JewelsEx@@QAEXXZ     0040b1a0 f   JewelsEx.obj
 0001:0000a1d0       ?GetJewelID@JewelsEx@@QAEHH@Z 0040b1d0 f   JewelsEx.obj
 0001:0000a200       ?IsJewelEx@JewelsEx@@QAE_NH@Z 0040b200 f   JewelsEx.obj
 0001:0000a220       ?GetExcOptionCount@JewelsEx@@QAEEE@Z 0040b220 f   JewelsEx.obj
 0001:0000a250       ?GetExcUnusedOption@JewelsEx@@QAEEE@Z 0040b250 f   JewelsEx.obj
 0001:0000a330       ?IsWings@JewelsEx@@QAE_NH@Z 0040b330 f   JewelsEx.obj
 0001:0000a390       ?IsAccessory@JewelsEx@@QAE_NH@Z 0040b390 f   JewelsEx.obj
 0001:0000a3d0       ?CheckItem@JewelsEx@@QAE_NPAUOBJECTSTRUCT@@EE@Z 0040b3d0 f   JewelsEx.obj
 0001:0000a670       ??0JewelsEx@@QAE@XZ        0040b670 f   JewelsEx.obj
 0001:0000a680       ?ReadData@JewelsEx@@QAEXPAD@Z 0040b680 f   JewelsEx.obj
 0001:0000a9b0       ?Load@JewelsEx@@QAEXXZ     0040b9b0 f   JewelsEx.obj
 0001:0000a9e0       ??$_Random_shuffle@PAHH@std@@YAXPAH00@Z 0040b9e0 f i JewelsEx.obj
 0001:0000aa60       ?GetExcNewOption@JewelsEx@@QAEEE@Z 0040ba60 f   JewelsEx.obj
 0001:0000ab00       ?Upgrade@JewelsEx@@QAEXPAUOBJECTSTRUCT@@EE@Z 0040bb00 f   JewelsEx.obj
 0001:0000b140       ?Init@OfflineTrade@@QAEXXZ 0040c140 f   OfflineTrade.obj
 0001:0000b180       ?ReadData@OfflineTrade@@QAEXPAD@Z 0040c180 f   OfflineTrade.obj
 0001:0000b5c0       ?CheckReq@OfflineTrade@@QAE_NH@Z 0040c5c0 f   OfflineTrade.obj
 0001:0000b870       ?Start@OfflineTrade@@QAEXHH@Z 0040c870 f   OfflineTrade.obj
 0001:0000bb50       ?Update@OfflineTrade@@QAE_NHE@Z 0040cb50 f   OfflineTrade.obj
 0001:0000bbb0       ?Close@OfflineTrade@@QAEXPAD@Z 0040cbb0 f   OfflineTrade.obj
 0001:0000bc70       ?GetSoulCount@OfflineTrade@@QAEHH@Z 0040cc70 f   OfflineTrade.obj
 0001:0000bd10       ?GetBlessCount@OfflineTrade@@QAEHH@Z 0040cd10 f   OfflineTrade.obj
 0001:0000bdb0       ?GetChaosCount@OfflineTrade@@QAEHH@Z 0040cdb0 f   OfflineTrade.obj
 0001:0000be50       ?GetLifeCount@OfflineTrade@@QAEHH@Z 0040ce50 f   OfflineTrade.obj
 0001:0000bef0       ?GetCreationCount@OfflineTrade@@QAEHH@Z 0040cef0 f   OfflineTrade.obj
 0001:0000bf90       ?CheckItem@OfflineTrade@@QAEHHHE@Z 0040cf90 f   OfflineTrade.obj
 0001:0000c020       ?DeleteSoulCount@OfflineTrade@@QAE_NHH@Z 0040d020 f   OfflineTrade.obj
 0001:0000c2e0       ?DeleteBlessCount@OfflineTrade@@QAE_NHH@Z 0040d2e0 f   OfflineTrade.obj
 0001:0000c5a0       ?DeleteChaosCount@OfflineTrade@@QAE_NHH@Z 0040d5a0 f   OfflineTrade.obj
 0001:0000c860       ?DeleteLifeCount@OfflineTrade@@QAE_NHH@Z 0040d860 f   OfflineTrade.obj
 0001:0000cb20       ?DeleteCreationCount@OfflineTrade@@QAE_NHH@Z 0040db20 f   OfflineTrade.obj
 0001:0000cde0       ?EmptyPointInventory@OfflineTrade@@QAE_NPAUOBJECTSTRUCT@@H@Z 0040dde0 f   OfflineTrade.obj
 0001:0000ceb0       ?AddedSoul@OfflineTrade@@QAEXPAUOBJECTSTRUCT@@H@Z 0040deb0 f   OfflineTrade.obj
 0001:0000d000       ?AddedBless@OfflineTrade@@QAEXPAUOBJECTSTRUCT@@H@Z 0040e000 f   OfflineTrade.obj
 0001:0000d150       ?AddedChaos@OfflineTrade@@QAEXPAUOBJECTSTRUCT@@H@Z 0040e150 f   OfflineTrade.obj
 0001:0000d2a0       ?AddedLife@OfflineTrade@@QAEXPAUOBJECTSTRUCT@@H@Z 0040e2a0 f   OfflineTrade.obj
 0001:0000d3f0       ?AddedCreation@OfflineTrade@@QAEXPAUOBJECTSTRUCT@@H@Z 0040e3f0 f   OfflineTrade.obj
 0001:0000d540       ??0OfflineTrade@@QAE@XZ    0040e540 f   OfflineTrade.obj
 0001:0000d550       ?Load@OfflineTrade@@QAEXXZ 0040e550 f   OfflineTrade.obj
 0001:0000d580       ?CheckExchange@OfflineTrade@@QAE_NPAUOBJECTSTRUCT@@0H@Z 0040e580 f   OfflineTrade.obj
 0001:0000daa0       ?UpdateExchange@OfflineTrade@@QAEHPAUOBJECTSTRUCT@@0H@Z 0040eaa0 f   OfflineTrade.obj
 0001:0000e070       ?Init@PKClear@@QAEXXZ      0040f070 f   PKClear.obj
 0001:0000e0b0       ?ReadData@PKClear@@QAEXPAD@Z 0040f0b0 f   PKClear.obj
 0001:0000e560       ?SearchItem@PKClear@@QAE_NPAUOBJECTSTRUCT@@E@Z 0040f560 f   PKClear.obj
 0001:0000e630       ?DeleteItem@PKClear@@QAE_NPAUOBJECTSTRUCT@@E@Z 0040f630 f   PKClear.obj
 0001:0000e720       ?CheckReq@PKClear@@QAE_NPAUOBJECTSTRUCT@@@Z 0040f720 f   PKClear.obj
 0001:0000e8b0       ?Dialog@PKClear@@QAE_NPAUOBJECTSTRUCT@@0@Z 0040f8b0 f   PKClear.obj
 0001:0000ea20       ??0PKClear@@QAE@XZ         0040fa20 f   PKClear.obj
 0001:0000ea30       ?Load@PKClear@@QAEXXZ      0040fa30 f   PKClear.obj
 0001:0000ed50       ?Init@PVPZone@@QAEXXZ      0040fd50 f   PVPZone.obj
 0001:0000ed70       ?ReadData@PVPZone@@QAEXPAD@Z 0040fd70 f   PVPZone.obj
 0001:0000ef00       ?IsPVPZone@PVPZone@@QAE_NPAUOBJECTSTRUCT@@@Z 0040ff00 f   PVPZone.obj
 0001:0000ef80       ??0PVPZone@@QAE@XZ         0040ff80 f   PVPZone.obj
 0001:0000ef90       ?Load@PVPZone@@QAEXXZ      0040ff90 f   PVPZone.obj
 0001:0000efc0       ??1CAttackEvent@@UAE@XZ    0040ffc0 f   AttackEvent.obj
 0001:0000efd0       ?Init@CAttackEvent@@QAEXXZ 0040ffd0 f   AttackEvent.obj
 0001:0000eff0       ?Start@CAttackEvent@@QAEXXZ 0040fff0 f   AttackEvent.obj
 0001:0000f010       ?Active@CAttackEvent@@QAEXXZ 00410010 f   AttackEvent.obj
 0001:0000f310       ?Start_Menual@CAttackEvent@@QAEXXZ 00410310 f   AttackEvent.obj
 0001:0000f340       ??0CAttackEvent@@QAE@XZ    00410340 f   AttackEvent.obj
 0001:0000f360       ??_ECAttackEvent@@UAEPAXI@Z 00410360 f i AttackEvent.obj
 0001:0000f360       ??_GCAttackEvent@@UAEPAXI@Z 00410360 f i AttackEvent.obj
 0001:0000f390       ??0CBattleGround@@QAE@XZ   00410390 f   BattleGround.obj
 0001:0000f3b0       ??1CBattleGround@@UAE@XZ   004103b0 f   BattleGround.obj
 0001:0000f3c0       ?SetGroundRect@CBattleGround@@QAEXHHHHH@Z 004103c0 f   BattleGround.obj
 0001:0000f3f0       ?SetBattleType@CBattleGround@@QAEXH@Z 004103f0 f   BattleGround.obj
 0001:0000f3f0       ?SetPosIndex@CDoppelgangerMonsterHerd@@QAEXH@Z 004103f0 f   Doppelganger.obj
 0001:0000f400       ?Enable@CBattleGround@@QAEXH@Z 00410400 f   BattleGround.obj
 0001:0000f420       ?SetTeamMaster@CBattleGround@@QAEXHPAD@Z 00410420 f   BattleGround.obj
 0001:0000f460       ?SetTeamName@CBattleGround@@QAEXHPAD@Z 00410460 f   BattleGround.obj
 0001:0000f4a0       ?GetTeamName@CBattleGround@@QAEPADH@Z 004104a0 f   BattleGround.obj
 0001:0000f4c0       ?GetScore@CBattleGround@@QAEHH@Z 004104c0 f   BattleGround.obj
 0001:0000f4e0       ?SetScore@CBattleGround@@QAEXHH@Z 004104e0 f   BattleGround.obj
 0001:0000f500       ?SetTimer@CBattleGround@@QAEXH@Z 00410500 f   BattleGround.obj
 0001:0000f520       ??_ECBattleGround@@UAEPAXI@Z 00410520 f i BattleGround.obj
 0001:0000f520       ??_GCBattleGround@@UAEPAXI@Z 00410520 f i BattleGround.obj
 0001:0000f550       ??0CBattleSoccer@@QAE@XZ   00410550 f   BattleSoccer.obj
 0001:0000f570       ??1CBattleSoccer@@UAE@XZ   00410570 f   BattleSoccer.obj
 0001:0000f580       ?GetGoalMove@CBattleSoccer@@QAEHXZ 00410580 f   BattleSoccer.obj
 0001:0000f580       ?GetStartDate@UserQuestInfo@@QAEHXZ 00410580 f   QuestExpUserInfo.obj
 0001:0000f590       ?SetGoalLeftRect@CBattleSoccer@@QAEXHHHH@Z 00410590 f   BattleSoccer.obj
 0001:0000f5b0       ?SetGoalRightRect@CBattleSoccer@@QAEXHHHH@Z 004105b0 f   BattleSoccer.obj
 0001:0000f5e0       ??_GCBattleSoccer@@UAEPAXI@Z 004105e0 f i BattleSoccer.obj
 0001:0000f5e0       ??_ECBattleSoccer@@UAEPAXI@Z 004105e0 f i BattleSoccer.obj
 0001:0000f610       ?InitBattleSoccer@@YAXXZ   00410610 f   BattleSoccerManager.obj
 0001:0000f6f0       ?ClearBattleSoccer@@YAXXZ  004106f0 f   BattleSoccerManager.obj
 0001:0000f710       ?gCheckBlankBattleGround@@YAHXZ 00410710 f   BattleSoccerManager.obj
 0001:0000f740       ?gBattleGroundEnable@@YAXHH@Z 00410740 f   BattleSoccerManager.obj
 0001:0000f7e0       ?gSetBattleTeamMaster@@YAXHHPADPAU_GUILD_INFO_STRUCT@@@Z 004107e0 f   BattleSoccerManager.obj
 0001:0000f850       ?gBattleGetTeamPosition@@YAXHHAAF0@Z 00410850 f   BattleSoccerManager.obj
 0001:0000f8d0       ?GetBattleTeamName@@YAPADHH@Z 004108d0 f   BattleSoccerManager.obj
 0001:0000f900       ?SetBattleTeamScore@@YAXHHH@Z 00410900 f   BattleSoccerManager.obj
 0001:0000f930       ?GetBattleTeamScore@@YAHHH@Z 00410930 f   BattleSoccerManager.obj
 0001:0000f960       ?BattleSoccerGoalStart@@YAXH@Z 00410960 f   BattleSoccerManager.obj
 0001:0000f990       ?BattleSoccerGoalEnd@@YAXH@Z 00410990 f   BattleSoccerManager.obj
 0001:0000f9c0       ?GetBattleSoccerGoalMove@@YAHH@Z 004109c0 f   BattleSoccerManager.obj
 0001:0000f9f0       ?gBattleSoccerScoreUpdate@@YAHHH@Z 004109f0 f   BattleSoccerManager.obj
 0001:0000fab0       ?gCheckGoal@@YAHHHAAH@Z    00410ab0 f   BattleSoccerManager.obj
 0001:0000fb20       ?gCheckBattleGround@@YAHPAUOBJECTSTRUCT@@@Z 00410b20 f   BattleSoccerManager.obj
 0001:0000fea0       ?LoadItemDropRate@CBloodCastle@@QAEXXZ 00410ea0 f   BloodCastle.obj
 0001:0000ff80       ?ClearBridgeData@CBloodCastle@@IAEXH@Z 00410f80 f   BloodCastle.obj
 0001:000103e0       ?GetCurrentState@CBloodCastle@@QAEHH@Z 004113e0 f   BloodCastle.obj
 0001:00010410       ?CheckEnterLevel@CBloodCastle@@QAEHHH@Z 00411410 f   BloodCastle.obj
 0001:000104f0       ?CheckEnterFreeTicket@CBloodCastle@@QAE_NH@Z 004114f0 f   BloodCastle.obj
 0001:00010580       ?CheckChoasMixItem@CBloodCastle@@QAEHH@Z 00411580 f   BloodCastle.obj
 0001:000107b0       ?CheckEnterItem@CBloodCastle@@QAEHH@Z 004117b0 f   BloodCastle.obj
 0001:00010880       ?CheckCanEnter@CBloodCastle@@QAE_NH@Z 00411880 f   BloodCastle.obj
 0001:000108b0       ?CheckQuestItemSerial@CBloodCastle@@QAE_NHPAVCMapItem@@@Z 004118b0 f   BloodCastle.obj
 0001:00010940       ?CheckPlayStart@CBloodCastle@@QAE_NH@Z 00411940 f   BloodCastle.obj
 0001:00010970       ?EnterUserBridge@CBloodCastle@@QAEHHH@Z 00411970 f   BloodCastle.obj
 0001:00010a30       ?LevelUp@CBloodCastle@@QAEHHHH@Z 00411a30 f   BloodCastle.obj
 0001:00010e60       ?SendNoticeMessage@CBloodCastle@@QAEXHPAD@Z 00411e60 f   BloodCastle.obj
 0001:00010f10       ?SendNoticeState@CBloodCastle@@QAEXHH@Z 00411f10 f   BloodCastle.obj
 0001:00011020       ?CheckUserBridgeMember@CBloodCastle@@QAE_NHH@Z 00412020 f   BloodCastle.obj
 0001:00011080       ?GetAliveUserTotalEXP@CBloodCastle@@IAEHH@Z 00412080 f   BloodCastle.obj
 0001:000111d0       ?SearchUserDeleteQuestItem@CBloodCastle@@QAEXH@Z 004121d0 f   BloodCastle.obj
 0001:000112c0       ?SetUserState@CBloodCastle@@QAEXHH@Z 004122c0 f   BloodCastle.obj
 0001:00011670       ?CalcSendRewardEXP@CBloodCastle@@QAEHHH@Z 00412670 f   BloodCastle.obj
 0001:000117e0       ?CalcSendRewardZEN@CBloodCastle@@QAEHHH@Z 004127e0 f   BloodCastle.obj
 0001:00011890       ?DropChaosGem@CBloodCastle@@QAEXH@Z 00412890 f   BloodCastle.obj
 0001:00011a10       ?SendRewardScore@CBloodCastle@@QAEXHHHH@Z 00412a10 f   BloodCastle.obj
 0001:00011b50       ?SendBridgeAnyMsg@CBloodCastle@@QAEXPAEHH@Z 00412b50 f   BloodCastle.obj
 0001:00011bd0       ?SetMonsterKillCount@CBloodCastle@@QAEXH@Z 00412bd0 f   BloodCastle.obj
 0001:00011d90       ?CheckMonsterKillCount@CBloodCastle@@QAE_NH@Z 00412d90 f   BloodCastle.obj
 0001:00011de0       ?CheckMonsterKillSuccess@CBloodCastle@@QAE_NH@Z 00412de0 f   BloodCastle.obj
 0001:00011e10       ?CheckBossKillCount@CBloodCastle@@QAE_NH@Z 00412e10 f   BloodCastle.obj
 0001:00011e60       ?CheckBossKillSuccess@CBloodCastle@@QAE_NH@Z 00412e60 f   BloodCastle.obj
 0001:00011e90       ?GetWhoGotUltimateWeapon@CBloodCastle@@QAEHH@Z 00412e90 f   BloodCastle.obj
 0001:00011fd0       ?GetCurrentLiveUserCount@CBloodCastle@@QAEHH@Z 00412fd0 f   BloodCastle.obj
 0001:00012190       ?CheckWinnerExist@CBloodCastle@@QAE_NH@Z 00413190 f   BloodCastle.obj
 0001:000121d0       ?CheckWinnerValid@CBloodCastle@@QAE_NH@Z 004131d0 f   BloodCastle.obj
 0001:000122d0       ?CheckUserWinnerParty@CBloodCastle@@QAE_NHH@Z 004132d0 f   BloodCastle.obj
 0001:00012370       ?CheckPartyExist@CBloodCastle@@QAE_NH@Z 00413370 f   BloodCastle.obj
 0001:00012440       ?CheckWinnerPartyComplete@CBloodCastle@@QAE_NH@Z 00413440 f   BloodCastle.obj
 0001:00012540       ?SetBridgeWinner@CBloodCastle@@QAE_NHH@Z 00413540 f   BloodCastle.obj
 0001:000125d0       ?GetWinnerPartyCompleteCount@CBloodCastle@@QAEHH@Z 004135d0 f   BloodCastle.obj
 0001:000126d0       ?GetWinnerPartyCompletePoint@CBloodCastle@@QAEHH@Z 004136d0 f   BloodCastle.obj
 0001:00012700       ?ChangeMonsterState@CBloodCastle@@QAEXHH@Z 00413700 f   BloodCastle.obj
 0001:000127d0       ?FixUsersPlayStateWin@CBloodCastle@@QAEXH@Z 004137d0 f   BloodCastle.obj
 0001:00012ac0       ?FixUsersPlayStateFail@CBloodCastle@@QAEXH@Z 00413ac0 f   BloodCastle.obj
 0001:00012bb0       ?GetMapNumByBCBridge@CBloodCastle@@QAEHH@Z 00413bb0 f   BloodCastle.obj
 0001:00012c30       ?GetBridgeIndexByMapNum@CBloodCastle@@QAEHH@Z 00413c30 f   BloodCastle.obj
 0001:00012cf0       ?GetMapNumByBC_CHAOSGEM@CBloodCastle@@QAEHH@Z 00413cf0 f   BloodCastle.obj
 0001:00012d70       ?GetMapNumByBC_ULTIMATEWEAPON@CBloodCastle@@QAEHH@Z 00413d70 f   BloodCastle.obj
 0001:00012df0       ?ChangeUserIndex@CBloodCastle@@QAEHHHH@Z 00413df0 f   BloodCastle.obj
 0001:00012e70       ?SendNoticeMessageToSpecificUser@CBloodCastle@@QAEXHHH@Z 00413e70 f   BloodCastle.obj
 0001:00012f70       ?SetCastleBlockInfo@CBloodCastle@@QAEHHH@Z 00413f70 f   BloodCastle.obj
 0001:00012fc0       ?GetCastleBlockInfo@CBloodCastle@@QAEHH@Z 00413fc0 f   BloodCastle.obj
 0001:00012ff0       ?GetPlayUserCountRightNow@CBloodCastle@@QAEHH@Z 00413ff0 f   BloodCastle.obj
 0001:000131c0       ?BloodCastleChaosMix@CBloodCastle@@QAE_NHH@Z 004141c0 f   BloodCastle.obj
 0001:00013500       ?CheckQuestItem@CBloodCastle@@QAEHH@Z 00414500 f   BloodCastle.obj
 0001:00013630       ?ClearMonster@CBloodCastle@@QAEXH_N@Z 00414630 f   BloodCastle.obj
 0001:000136c0       ?SetMonster@CBloodCastle@@QAEXH@Z 004146c0 f   BloodCastle.obj
 0001:00013a90       ?SetBossMonster@CBloodCastle@@QAEXH@Z 00414a90 f   BloodCastle.obj
 0001:00013be0       ?SetSaintStatue@CBloodCastle@@QAEXH@Z 00414be0 f   BloodCastle.obj
 0001:00013da0       ?CheckUsersOnConnect@CBloodCastle@@QAEXH@Z 00414da0 f   BloodCastle.obj
 0001:00013e40       ?BlockCastleEntrance@CBloodCastle@@QAEXH@Z 00414e40 f   BloodCastle.obj
 0001:00013ee0       ?ReleaseCastleEntrance@CBloodCastle@@QAEXH@Z 00414ee0 f   BloodCastle.obj
 0001:00013f80       ?BlockCastleBridge@CBloodCastle@@QAEXH@Z 00414f80 f   BloodCastle.obj
 0001:00014020       ?ReleaseCastleBridge@CBloodCastle@@QAEXH@Z 00415020 f   BloodCastle.obj
 0001:00014110       ?BlockCastleDoor@CBloodCastle@@QAEXH@Z 00415110 f   BloodCastle.obj
 0001:000141b0       ?ReleaseCastleDoor@CBloodCastle@@QAEXH@Z 004151b0 f   BloodCastle.obj
 0001:00014250       ?SendCastleEntranceBlockInfo@CBloodCastle@@QAEXH_N@Z 00415250 f   BloodCastle.obj
 0001:00014360       ?SendCastleBridgeBlockInfo@CBloodCastle@@QAEXH_N@Z 00415360 f   BloodCastle.obj
 0001:000144b0       ?SendCastleDoorBlockInfo@CBloodCastle@@QAEXH_N@Z 004154b0 f   BloodCastle.obj
 0001:00014630       ?GiveReward_Win@CBloodCastle@@QAEXHH@Z 00415630 f   BloodCastle.obj
 0001:00014e30       ?GiveReward_Fail@CBloodCastle@@QAEXH@Z 00415e30 f   BloodCastle.obj
 0001:000150f0       ?CheckEveryUserDie@CBloodCastle@@QAE_NH@Z 004160f0 f   BloodCastle.obj
 0001:00015230       ?CheckAngelKingExist@CBloodCastle@@QAE_NH@Z 00416230 f   BloodCastle.obj
 0001:00015350       ?DropItemDirectly@CBloodCastle@@QAEHHHHH@Z 00416350 f   BloodCastle.obj
 0001:000157b0       ?SetState_None@CBloodCastle@@IAEXH@Z 004167b0 f   BloodCastle.obj
 0001:00015880       ?SetState_Playing@CBloodCastle@@IAEXH@Z 00416880 f   BloodCastle.obj
 0001:000159e0       ?SetState_PlayEnd@CBloodCastle@@IAEXH@Z 004169e0 f   BloodCastle.obj
 0001:00015a80       ?SearchUserDropQuestItem@CBloodCastle@@QAEXH@Z 00416a80 f   BloodCastle.obj
 0001:00015c50       ??$_Cons_val@V?$allocator@VCItemBagAttrEx@@@std@@VCItemBagAttrEx@@AAV3@@std@@YAXAAV?$allocator@VCItemBagAttrEx@@@0@PAVCItemBagAttrEx@@AAV2@@Z 00416c50 f i DoppelgangerItemBag.obj
 0001:00015c50       ??$_Cons_val@V?$allocator@UXMASMONSTER_EVENT_TIME@@@std@@UXMASMONSTER_EVENT_TIME@@U3@@std@@YAXAAV?$allocator@UXMASMONSTER_EVENT_TIME@@@0@PAUXMASMONSTER_EVENT_TIME@@$$QAU2@@Z 00416c50 f i XMasAttackEvent.obj
 0001:00015c50       ??$_Cons_val@V?$allocator@U?$pair@$$CBHH@std@@@std@@U?$pair@$$CBHH@2@U?$pair@HH@2@@std@@YAXAAV?$allocator@U?$pair@$$CBHH@std@@@0@PAU?$pair@$$CBHH@0@$$QAU?$pair@HH@0@@Z 00416c50 f i CastleDeepEvent.obj
 0001:00015c50       ??$_Cons_val@V?$allocator@UCHAOSCASTLE_START_TIME@@@std@@UCHAOSCASTLE_START_TIME@@U3@@std@@YAXAAV?$allocator@UCHAOSCASTLE_START_TIME@@@0@PAUCHAOSCASTLE_START_TIME@@$$QAU2@@Z 00416c50 f i ChaosCastle.obj
 0001:00015c50       ??$_Cons_val@V?$allocator@U?$pair@$$CBHPAVTUnionInfo@@@std@@@std@@U?$pair@$$CBHPAVTUnionInfo@@@2@U32@@std@@YAXAAV?$allocator@U?$pair@$$CBHPAVTUnionInfo@@@std@@@0@PAU?$pair@$$CBHPAVTUnionInfo@@@0@$$QAU20@@Z 00416c50 f i TUnion.obj
 0001:00015c50       ??$_Cons_val@V?$allocator@U?$pair@$$CBHPAX@std@@@std@@U?$pair@$$CBHPAX@2@U?$pair@HPAX@2@@std@@YAXAAV?$allocator@U?$pair@$$CBHPAX@std@@@0@PAU?$pair@$$CBHPAX@0@$$QAU?$pair@HPAX@0@@Z 00416c50 f i EventManagement.obj
 0001:00015c50       ??$_Cons_val@V?$allocator@URINGMONSTER_EVENT_TIME@@@std@@URINGMONSTER_EVENT_TIME@@AAU3@@std@@YAXAAV?$allocator@URINGMONSTER_EVENT_TIME@@@0@PAURINGMONSTER_EVENT_TIME@@AAU2@@Z 00416c50 f i RingAttackEvent.obj
 0001:00015c50       ??$_Cons_val@V?$allocator@UCHAOSCASTLE_START_TIME@@@std@@UCHAOSCASTLE_START_TIME@@ABU3@@std@@YAXAAV?$allocator@UCHAOSCASTLE_START_TIME@@@0@PAUCHAOSCASTLE_START_TIME@@ABU2@@Z 00416c50 f i ChaosCastle.obj
 0001:00015c50       ??$_Cons_val@V?$allocator@VCItemBagAttrEx@@@std@@VCItemBagAttrEx@@ABV3@@std@@YAXAAV?$allocator@VCItemBagAttrEx@@@0@PAVCItemBagAttrEx@@ABV2@@Z 00416c50 f i DoppelgangerItemBag.obj
 0001:00015c50       ??$_Cons_val@V?$allocator@UXMASMONSTER_EVENT_TIME@@@std@@UXMASMONSTER_EVENT_TIME@@AAU3@@std@@YAXAAV?$allocator@UXMASMONSTER_EVENT_TIME@@@0@PAUXMASMONSTER_EVENT_TIME@@AAU2@@Z 00416c50 f i XMasAttackEvent.obj
 0001:00015c50       ??$_Cons_val@V?$allocator@U?$pair@$$CBIH@std@@@std@@U?$pair@$$CBIH@2@U?$pair@IH@2@@std@@YAXAAV?$allocator@U?$pair@$$CBIH@std@@@0@PAU?$pair@$$CBIH@0@$$QAU?$pair@IH@0@@Z 00416c50 f i CastleSiege.obj
 0001:00015c50       ??$_Cons_val@V?$allocator@U_stMonsterIndexInfo@@@std@@U_stMonsterIndexInfo@@ABU3@@std@@YAXAAV?$allocator@U_stMonsterIndexInfo@@@0@PAU_stMonsterIndexInfo@@ABU2@@Z 00416c50 f i ImperialGuardian.obj
 0001:00015c50       ??$_Cons_val@V?$allocator@UCASTLEDEEP_SPAWNTIME@@@std@@UCASTLEDEEP_SPAWNTIME@@U3@@std@@YAXAAV?$allocator@UCASTLEDEEP_SPAWNTIME@@@0@PAUCASTLEDEEP_SPAWNTIME@@$$QAU2@@Z 00416c50 f i CastleDeepEvent.obj
 0001:00015c50       ??$_Cons_val@V?$allocator@U?$pair@$$CBHH@std@@@std@@U?$pair@$$CBHH@2@U32@@std@@YAXAAV?$allocator@U?$pair@$$CBHH@std@@@0@PAU?$pair@$$CBHH@0@$$QAU20@@Z 00416c50 f i JewelOfHarmonySystem.obj
 0001:00015c50       ??$_Cons_val@V?$allocator@UtagPOINT@@@std@@UtagPOINT@@ABU3@@std@@YAXAAV?$allocator@UtagPOINT@@@0@PAUtagPOINT@@ABU2@@Z 00416c50 f i ChaosCastle.obj
 0001:00015c50       ??$_Cons_val@V?$allocator@UDEVILSQUARE_START_TIME@@@std@@UDEVILSQUARE_START_TIME@@ABU3@@std@@YAXAAV?$allocator@UDEVILSQUARE_START_TIME@@@0@PAUDEVILSQUARE_START_TIME@@ABU2@@Z 00416c50 f i DevilSquare.obj
 0001:00015c50       ??$_Cons_val@V?$allocator@U?$pair@$$CBHPAUGAMESHOP_ITEM_DATA@@@std@@@std@@U?$pair@$$CBHPAUGAMESHOP_ITEM_DATA@@@2@U?$pair@HPAUGAMESHOP_ITEM_DATA@@@2@@std@@YAXAAV?$allocator@U?$pair@$$CBHPAUGAMESHOP_ITEM_DATA@@@std@@@0@PAU?$pair@$$CBHPAUGAMESHOP_ITEM_DATA@@@0@$$QAU?$pair@HPAUGAMESHOP_ITEM_DATA@@@0@@Z 00416c50 f i GameShop.obj
 0001:00015c50       ??$_Cons_val@V?$allocator@UCASTLEDEEP_EVENTTIME@@@std@@UCASTLEDEEP_EVENTTIME@@AAU3@@std@@YAXAAV?$allocator@UCASTLEDEEP_EVENTTIME@@@0@PAUCASTLEDEEP_EVENTTIME@@AAU2@@Z 00416c50 f i CastleDeepEvent.obj
 0001:00015c50       ??$_Cons_val@V?$allocator@U?$pair@$$CBHPAVQuestExpAsk@@@std@@@std@@U?$pair@$$CBHPAVQuestExpAsk@@@2@AAU32@@std@@YAXAAV?$allocator@U?$pair@$$CBHPAVQuestExpAsk@@@std@@@0@PAU?$pair@$$CBHPAVQuestExpAsk@@@0@AAU20@@Z 00416c50 f i QuestExpInfo.obj
 0001:00015c50       ??$_Cons_val@V?$allocator@UCASTLEDEEP_EVENTTIME@@@std@@UCASTLEDEEP_EVENTTIME@@ABU3@@std@@YAXAAV?$allocator@UCASTLEDEEP_EVENTTIME@@@0@PAUCASTLEDEEP_EVENTTIME@@ABU2@@Z 00416c50 f i CastleDeepEvent.obj
 0001:00015c50       ??$_Cons_val@V?$allocator@UCASTLEDEEP_EVENTTIME@@@std@@UCASTLEDEEP_EVENTTIME@@U3@@std@@YAXAAV?$allocator@UCASTLEDEEP_EVENTTIME@@@0@PAUCASTLEDEEP_EVENTTIME@@$$QAU2@@Z 00416c50 f i CastleDeepEvent.obj
 0001:00015c50       ??$_Cons_val@V?$allocator@VCItemBagAttrEx@@@std@@VCItemBagAttrEx@@V3@@std@@YAXAAV?$allocator@VCItemBagAttrEx@@@0@PAVCItemBagAttrEx@@$$QAV2@@Z 00416c50 f i DoppelgangerItemBag.obj
 0001:00015c50       ??$_Cons_val@V?$allocator@UtagPOINT@@@std@@UtagPOINT@@U3@@std@@YAXAAV?$allocator@UtagPOINT@@@0@PAUtagPOINT@@$$QAU2@@Z 00416c50 f i ChaosCastle.obj
 0001:00015c50       ??$_Cons_val@V?$allocator@U__ILLUSION_TEMPLE_STARTTIME@@@std@@U__ILLUSION_TEMPLE_STARTTIME@@ABU3@@std@@YAXAAV?$allocator@U__ILLUSION_TEMPLE_STARTTIME@@@0@PAU__ILLUSION_TEMPLE_STARTTIME@@ABU2@@Z 00416c50 f i IllusionTempleEvent.obj
 0001:00015c50       ??$_Cons_val@V?$allocator@U?$pair@$$CBHPAU_GUILD_INFO_STRUCT@@@std@@@std@@U?$pair@$$CBHPAU_GUILD_INFO_STRUCT@@@2@U32@@std@@YAXAAV?$allocator@U?$pair@$$CBHPAU_GUILD_INFO_STRUCT@@@std@@@0@PAU?$pair@$$CBHPAU_GUILD_INFO_STRUCT@@@0@$$QAU20@@Z 00416c50 f i GuildClass.obj
 0001:00015c50       ??$_Cons_val@V?$allocator@URINGMONSTER_EVENT_TIME@@@std@@URINGMONSTER_EVENT_TIME@@ABU3@@std@@YAXAAV?$allocator@URINGMONSTER_EVENT_TIME@@@0@PAURINGMONSTER_EVENT_TIME@@ABU2@@Z 00416c50 f i RingAttackEvent.obj
 0001:00015c50       ??$_Cons_val@V?$allocator@UBLOODCASTLE_START_TIME@@@std@@UBLOODCASTLE_START_TIME@@ABU3@@std@@YAXAAV?$allocator@UBLOODCASTLE_START_TIME@@@0@PAUBLOODCASTLE_START_TIME@@ABU2@@Z 00416c50 f i BloodCastle.obj
 0001:00015c50       ??$_Cons_val@V?$allocator@U?$pair@$$CBHPAVQuestExpAsk@@@std@@@std@@U?$pair@$$CBHPAVQuestExpAsk@@@2@U32@@std@@YAXAAV?$allocator@U?$pair@$$CBHPAVQuestExpAsk@@@std@@@0@PAU?$pair@$$CBHPAVQuestExpAsk@@@0@$$QAU20@@Z 00416c50 f i QuestExpInfo.obj
 0001:00015c50       ??$_Cons_val@V?$allocator@U_stMonsterIndexInfo@@@std@@U_stMonsterIndexInfo@@U3@@std@@YAXAAV?$allocator@U_stMonsterIndexInfo@@@0@PAU_stMonsterIndexInfo@@$$QAU2@@Z 00416c50 f i ImperialGuardian.obj
 0001:00015c50       ??$_Cons_val@V?$allocator@URINGMONSTER_EVENT_TIME@@@std@@URINGMONSTER_EVENT_TIME@@U3@@std@@YAXAAV?$allocator@URINGMONSTER_EVENT_TIME@@@0@PAURINGMONSTER_EVENT_TIME@@$$QAU2@@Z 00416c50 f i RingAttackEvent.obj
 0001:00015c50       ??$_Cons_val@V?$allocator@UtagPOINT@@@std@@UtagPOINT@@AAU3@@std@@YAXAAV?$allocator@UtagPOINT@@@0@PAUtagPOINT@@AAU2@@Z 00416c50 f i ChaosCastle.obj
 0001:00015c50       ??$_Cons_val@V?$allocator@UCASTLEDEEP_SPAWNTIME@@@std@@UCASTLEDEEP_SPAWNTIME@@AAU3@@std@@YAXAAV?$allocator@UCASTLEDEEP_SPAWNTIME@@@0@PAUCASTLEDEEP_SPAWNTIME@@AAU2@@Z 00416c50 f i CastleDeepEvent.obj
 0001:00015c50       ??$_Cons_val@V?$allocator@U?$pair@$$CBHPAU_MAPSVR_DATA@@@std@@@std@@U?$pair@$$CBHPAU_MAPSVR_DATA@@@2@U?$pair@HPAU_MAPSVR_DATA@@@2@@std@@YAXAAV?$allocator@U?$pair@$$CBHPAU_MAPSVR_DATA@@@std@@@0@PAU?$pair@$$CBHPAU_MAPSVR_DATA@@@0@$$QAU?$pair@HPAU_MAPSVR_DATA@@@0@@Z 00416c50 f i MapServerManager.obj
 0001:00015c50       ??$_Cons_val@V?$allocator@UCHAOSCASTLE_START_TIME@@@std@@UCHAOSCASTLE_START_TIME@@AAU3@@std@@YAXAAV?$allocator@UCHAOSCASTLE_START_TIME@@@0@PAUCHAOSCASTLE_START_TIME@@AAU2@@Z 00416c50 f i ChaosCastle.obj
 0001:00015c50       ??$_Cons_val@V?$allocator@UXMASMONSTER_EVENT_TIME@@@std@@UXMASMONSTER_EVENT_TIME@@ABU3@@std@@YAXAAV?$allocator@UXMASMONSTER_EVENT_TIME@@@0@PAUXMASMONSTER_EVENT_TIME@@ABU2@@Z 00416c50 f i XMasAttackEvent.obj
 0001:00015c50       ??$_Cons_val@V?$allocator@U?$pair@$$CBHPAVQuestExpReward@@@std@@@std@@U?$pair@$$CBHPAVQuestExpReward@@@2@AAU32@@std@@YAXAAV?$allocator@U?$pair@$$CBHPAVQuestExpReward@@@std@@@0@PAU?$pair@$$CBHPAVQuestExpReward@@@0@AAU20@@Z 00416c50 f i QuestExpInfo.obj
 0001:00015c50       ??$_Cons_val@V?$allocator@UCASTLEDEEP_SPAWNTIME@@@std@@UCASTLEDEEP_SPAWNTIME@@ABU3@@std@@YAXAAV?$allocator@UCASTLEDEEP_SPAWNTIME@@@0@PAUCASTLEDEEP_SPAWNTIME@@ABU2@@Z 00416c50 f i CastleDeepEvent.obj
 0001:00015c50       ??$_Cons_val@V?$allocator@U?$pair@$$CBHPAUGAMESHOP_PACKAGE_DATA@@@std@@@std@@U?$pair@$$CBHPAUGAMESHOP_PACKAGE_DATA@@@2@U32@@std@@YAXAAV?$allocator@U?$pair@$$CBHPAUGAMESHOP_PACKAGE_DATA@@@std@@@0@PAU?$pair@$$CBHPAUGAMESHOP_PACKAGE_DATA@@@0@$$QAU20@@Z 00416c50 f i GameShop.obj
 0001:00015c50       ??$_Cons_val@V?$allocator@U?$pair@$$CBHPAVQuestExpReward@@@std@@@std@@U?$pair@$$CBHPAVQuestExpReward@@@2@U32@@std@@YAXAAV?$allocator@U?$pair@$$CBHPAVQuestExpReward@@@std@@@0@PAU?$pair@$$CBHPAVQuestExpReward@@@0@$$QAU20@@Z 00416c50 f i QuestExpInfo.obj
 0001:00015c50       ??$_Cons_val@V?$allocator@U?$pair@$$CBKPAVQuestExpRewardKind@@@std@@@std@@U?$pair@$$CBKPAVQuestExpRewardKind@@@2@U32@@std@@YAXAAV?$allocator@U?$pair@$$CBKPAVQuestExpRewardKind@@@std@@@0@PAU?$pair@$$CBKPAVQuestExpRewardKind@@@0@$$QAU20@@Z 00416c50 f i QuestExpInfo.obj
 0001:00015c50       ??$_Cons_val@V?$allocator@U_stMonsterIndexInfo@@@std@@U_stMonsterIndexInfo@@AAU3@@std@@YAXAAV?$allocator@U_stMonsterIndexInfo@@@0@PAU_stMonsterIndexInfo@@AAU2@@Z 00416c50 f i ImperialGuardian.obj
 0001:00015c50       ??$_Cons_val@V?$allocator@U?$pair@$$CBHPAUGAMESHOP_PACKAGE_DATA@@@std@@@std@@U?$pair@$$CBHPAUGAMESHOP_PACKAGE_DATA@@@2@U?$pair@HPAUGAMESHOP_PACKAGE_DATA@@@2@@std@@YAXAAV?$allocator@U?$pair@$$CBHPAUGAMESHOP_PACKAGE_DATA@@@std@@@0@PAU?$pair@$$CBHPAUGAMESHOP_PACKAGE_DATA@@@0@$$QAU?$pair@HPAUGAMESHOP_PACKAGE_DATA@@@0@@Z 00416c50 f i GameShop.obj
 0001:00015c70       ?CheckSync@CBloodCastle@@IAEXH@Z 00416c70 f   BloodCastle.obj
 0001:00015e50       ?SetState_Closed@CBloodCastle@@IAEXH@Z 00416e50 f   BloodCastle.obj
 0001:00015f30       ?GetRemainTime@CBloodCastle@@QAEHH@Z 00416f30 f   BloodCastle.obj
 0001:00016070       ??0CBloodCastle@@QAE@XZ    00417070 f   BloodCastle.obj
 0001:00016170       ??1CBloodCastle@@UAE@XZ    00417170 f   BloodCastle.obj
 0001:000161e0       ?Load@CBloodCastle@@QAEXPAD@Z 004171e0 f   BloodCastle.obj
 0001:00016690       ?SetState@CBloodCastle@@QAEXHH@Z 00417690 f   BloodCastle.obj
 0001:00016710       ?ProcState_Closed@CBloodCastle@@IAEXH@Z 00417710 f   BloodCastle.obj
 0001:00016930       ?ProcState_Playing@CBloodCastle@@IAEXH@Z 00417930 f   BloodCastle.obj
 0001:00016d80       ?ProcState_PlayEnd@CBloodCastle@@IAEXH@Z 00417d80 f   BloodCastle.obj
 0001:00016e20       ??_ECBloodCastle@@UAEPAXI@Z 00417e20 f i BloodCastle.obj
 0001:00016e20       ??_GCBloodCastle@@UAEPAXI@Z 00417e20 f i BloodCastle.obj
 0001:00016e50       ?Init@CBloodCastle@@QAEX_N@Z 00417e50 f   BloodCastle.obj
 0001:00016ff0       ?Run@CBloodCastle@@QAEXXZ  00417ff0 f   BloodCastle.obj
 0001:00017060       ??0CBuffEffect@@QAE@XZ     00418060 f   BuffEffect.obj
 0001:00017070       ??1CBuffEffect@@UAE@XZ     00418070 f   BuffEffect.obj
 0001:00017080       ?SetBuffEffect@CBuffEffect@@QAEXPAUOBJECTSTRUCT@@EH@Z 00418080 f   BuffEffect.obj
 0001:00017620       ?ClearBuffEffect@CBuffEffect@@QAEXPAUOBJECTSTRUCT@@EH@Z 00418620 f   BuffEffect.obj
 0001:00017bd0       ?GiveDamageEffect@CBuffEffect@@QAEXPAUOBJECTSTRUCT@@H@Z 00418bd0 f   BuffEffect.obj
 0001:00017ca0       ?PoisonEffect@CBuffEffect@@QAEXPAUOBJECTSTRUCT@@E@Z 00418ca0 f   BuffEffect.obj
 0001:00017d60       ?SetPrevEffect@CBuffEffect@@QAEXPAUOBJECTSTRUCT@@@Z 00418d60 f   BuffEffect.obj
 0001:00017e80       ?SetNextEffect@CBuffEffect@@QAEXPAUOBJECTSTRUCT@@@Z 00418e80 f   BuffEffect.obj
 0001:00017fa0       ??_GCBuffEffect@@UAEPAXI@Z 00418fa0 f i BuffEffect.obj
 0001:00017fa0       ??_ECBuffEffect@@UAEPAXI@Z 00418fa0 f i BuffEffect.obj
 0001:00017fd0       ?SetActiveBuffEffect@CBuffEffect@@QAEXPAUOBJECTSTRUCT@@EH@Z 00418fd0 f   BuffEffect.obj
 0001:00018010       ??0CBuffEffectSlot@@QAE@XZ 00419010 f   BuffEffectSlot.obj
 0001:00018020       ??1CBuffEffectSlot@@UAE@XZ 00419020 f   BuffEffectSlot.obj
 0001:00018030       ?RemoveEffect@CBuffEffectSlot@@QAE_NPAUOBJECTSTRUCT@@H@Z 00419030 f   BuffEffectSlot.obj
 0001:00018110       ?CheckUsedEffect@CBuffEffectSlot@@QAE_NPAUOBJECTSTRUCT@@H@Z 00419110 f   BuffEffectSlot.obj
 0001:00018150       ?RemoveBuffVariable@CBuffEffectSlot@@QAEXPAUOBJECTSTRUCT@@H@Z 00419150 f   BuffEffectSlot.obj
 0001:00018180       ?ClearEffect@CBuffEffectSlot@@QAEHPAUOBJECTSTRUCT@@W4eBuffClearType@@@Z 00419180 f   BuffEffectSlot.obj
 0001:00018230       ?GetEffectData@CBuffEffectSlot@@QAEPAUBUFF_EFFECT_DATE@@H@Z 00419230 f   BuffEffectSlot.obj
 0001:00018260       ?GetEffectDataFromItemCode@CBuffEffectSlot@@QAEPAUBUFF_EFFECT_DATE@@G@Z 00419260 f   BuffEffectSlot.obj
 0001:00018270       ?gObjCheckUsedBuffEffect@@YA_NPAUOBJECTSTRUCT@@H@Z 00419270 f   BuffEffectSlot.obj
 0001:000182a0       ?gObjMakeViewportState@@YAHPAUOBJECTSTRUCT@@PAE@Z 004192a0 f   BuffEffectSlot.obj
 0001:00018350       ?gObjCheckPowerfulEffect@@YA_NPAUOBJECTSTRUCT@@HHH@Z 00419350 f   BuffEffectSlot.obj
 0001:000183a0       ?gObjGetTotalValueOfEffect@@YAHPAUOBJECTSTRUCT@@H@Z 004193a0 f   BuffEffectSlot.obj
 0001:00018450       ?gObjCheckUsedBuffEffect@@YA_NPAUOBJECTSTRUCT@@HPAH1@Z 00419450 f   BuffEffectSlot.obj
 0001:000184b0       ?GCUseBuffEffect@@YAXPAUOBJECTSTRUCT@@EEGGH@Z 004194b0 f   BuffEffectSlot.obj
 0001:00018540       ?gObjSendBuffList@@YAXPAUOBJECTSTRUCT@@@Z 00419540 f   BuffEffectSlot.obj
 0001:00018590       ?CheckItemOptForGetExpEx@@YAXPAUOBJECTSTRUCT@@AA_JH@Z 00419590 f   BuffEffectSlot.obj
 0001:00018a00       ??_GCBuffEffectSlot@@UAEPAXI@Z 00419a00 f i BuffEffectSlot.obj
 0001:00018a00       ??_ECBuffEffectSlot@@UAEPAXI@Z 00419a00 f i BuffEffectSlot.obj
 0001:00018a30       ?SetEffect@CBuffEffectSlot@@QAEHPAUOBJECTSTRUCT@@HEEHHH@Z 00419a30 f   BuffEffectSlot.obj
 0001:00018ba0       ?gObjAddBuffEffect@@YA_NPAUOBJECTSTRUCT@@H@Z 00419ba0 f   BuffEffectSlot.obj
 0001:00018c70       ?gObjAddBuffEffect@@YA_NPAUOBJECTSTRUCT@@HEHEHH@Z 00419c70 f   BuffEffectSlot.obj
 0001:00018d10       ?gObjAddBuffEffect@@YA_NPAUOBJECTSTRUCT@@HH@Z 00419d10 f   BuffEffectSlot.obj
 0001:00018de0       ?gObjAddBuffEffectForInGameShop@@YA_NPAUOBJECTSTRUCT@@GH@Z 00419de0 f   BuffEffectSlot.obj
 0001:00018ed0       ?gObjRemoveBuffEffect@@YA_NPAUOBJECTSTRUCT@@H@Z 00419ed0 f   BuffEffectSlot.obj
 0001:00018f50       ?gObjClearBuffEffect@@YA_NPAUOBJECTSTRUCT@@W4eBuffClearType@@@Z 00419f50 f   BuffEffectSlot.obj
 0001:00019120       ?gObjChangeBuffValidTime@@YA_NPAUOBJECTSTRUCT@@HH@Z 0041a120 f   BuffEffectSlot.obj
 0001:000191a0       ?gObjAddBuffEffectWideArea@@YAHPAUOBJECTSTRUCT@@HAAHHEHEHH@Z 0041a1a0 f   BuffEffectSlot.obj
 0001:00019250       ?gObjCheckBuffEffectList@@YAXPAUOBJECTSTRUCT@@@Z 0041a250 f   BuffEffectSlot.obj
 0001:00019640       ??0CBuffScriptLoader@@QAE@XZ 0041a640 f   BuffScriptLoader.obj
 0001:00019650       ??1CBuffScriptLoader@@UAE@XZ 0041a650 f   BuffScriptLoader.obj
 0001:00019660       ?Initialize@CBuffScriptLoader@@QAEXXZ 0041a660 f   BuffScriptLoader.obj
 0001:00019690       ?AddBuffEffectData@CBuffScriptLoader@@QAE_NEEEEPADEEE0@Z 0041a690 f   BuffScriptLoader.obj
 0001:00019740       ?CheckVaildBuffEffect@CBuffScriptLoader@@QAE_NE@Z 0041a740 f   BuffScriptLoader.obj
 0001:00019750       ?GetBuffData@CBuffScriptLoader@@QAEPAUBUFF_EFFECT_DATE@@E@Z 0041a750 f   BuffScriptLoader.obj
 0001:000197a0       ?GetBuffDataFromItemCode@CBuffScriptLoader@@QAEPAUBUFF_EFFECT_DATE@@G@Z 0041a7a0 f   BuffScriptLoader.obj
 0001:000197f0       ??_ECBuffScriptLoader@@UAEPAXI@Z 0041a7f0 f i BuffScriptLoader.obj
 0001:000197f0       ??_GCBuffScriptLoader@@UAEPAXI@Z 0041a7f0 f i BuffScriptLoader.obj
 0001:00019820       ?Load@CBuffScriptLoader@@QAE_NPAD@Z 0041a820 f   BuffScriptLoader.obj
 0001:00019ab0       ?erase@?$basic_string@DU?$char_traits@D@std@@V?$allocator@D@2@@std@@QAEAAV12@II@Z 0041aab0 f i CallStackTrace.obj
 0001:00019b40       ?allocate@?$allocator@D@std@@QAEPADI@Z 0041ab40 f i CallStackTrace.obj
 0001:00019b90       ?_Copy@?$basic_string@DU?$char_traits@D@std@@V?$allocator@D@2@@std@@QAEXII@Z 0041ab90 f i CallStackTrace.obj
 0001:00019d00       ?assign@?$basic_string@DU?$char_traits@D@std@@V?$allocator@D@2@@std@@QAEAAV12@ABV12@II@Z 0041ad00 f i CallStackTrace.obj
 0001:00019df0       ?assign@?$basic_string@DU?$char_traits@D@std@@V?$allocator@D@2@@std@@QAEAAV12@PBDI@Z 0041adf0 f i CallStackTrace.obj
 0001:00019ef0       ??0CCannonTower@@QAE@XZ    0041aef0 f   CannonTower.obj
 0001:00019f00       ??1CCannonTower@@UAE@XZ    0041af00 f   CannonTower.obj
 0001:00019f10       ?CannonTowerAct@CCannonTower@@QAEXH@Z 0041af10 f   CannonTower.obj
 0001:0001a100       ??_ECCannonTower@@UAEPAXI@Z 0041b100 f i CannonTower.obj
 0001:0001a100       ??_GCCannonTower@@UAEPAXI@Z 0041b100 f i CannonTower.obj
 0001:0001a130       ??0CCashItemPeriodSystem@@QAE@XZ 0041b130 f   CashItemPeriodSystem.obj
 0001:0001a140       ??1CCashItemPeriodSystem@@UAE@XZ 0041b140 f   CashItemPeriodSystem.obj
 0001:0001a150       ?GDReqPeriodItemList@CCashItemPeriodSystem@@QAEXPAUOBJECTSTRUCT@@@Z 0041b150 f   CashItemPeriodSystem.obj
 0001:0001a1c0       ?GDReqPeriodItemUpdate@CCashItemPeriodSystem@@QAEXPAUOBJECTSTRUCT@@H@Z 0041b1c0 f   CashItemPeriodSystem.obj
 0001:0001a280       ?GDReqPeriodItemDelete@CCashItemPeriodSystem@@QAEXPAUOBJECTSTRUCT@@PAD@Z 0041b280 f   CashItemPeriodSystem.obj
 0001:0001a2f0       ?GCSendPeriodItemInserResult@CCashItemPeriodSystem@@QAEXPAUOBJECTSTRUCT@@E@Z 0041b2f0 f   CashItemPeriodSystem.obj
 0001:0001a330       ?GetItemPeriodInfo@CCashItemPeriodSystem@@QAEPAUITEMPERIOD_INFO@@PAUOBJECTSTRUCT@@@Z 0041b330 f   CashItemPeriodSystem.obj
 0001:0001a360       ?GetItemPeriodInfoEffectID@CCashItemPeriodSystem@@QAEHH@Z 0041b360 f   CashItemPeriodSystem.obj
 0001:0001a560       ?ApplyItemPeriodEffect@CCashItemPeriodSystem@@QAEHPAUOBJECTSTRUCT@@HH@Z 0041b560 f   CashItemPeriodSystem.obj
 0001:0001a5e0       ??0CTime@ATL@@QAE@HHHHHHH@Z 0041b5e0 f i CashItemPeriodSystem.obj
 0001:0001a6d0       ?GetLocalTm@CTime@ATL@@QBEPAUtm@@PAU3@@Z 0041b6d0 f i CashItemPeriodSystem.obj
 0001:0001a740       ??_ECCashItemPeriodSystem@@UAEPAXI@Z 0041b740 f i CashItemPeriodSystem.obj
 0001:0001a740       ??_GCCashItemPeriodSystem@@UAEPAXI@Z 0041b740 f i CashItemPeriodSystem.obj
 0001:0001a770       ?ClearPeriodItemEffect@CCashItemPeriodSystem@@QAEHPAUOBJECTSTRUCT@@H@Z 0041b770 f   CashItemPeriodSystem.obj
 0001:0001a870       ?DGAnsPeriodItemUpdate@CCashItemPeriodSystem@@QAEXPAUPMSG_ANS_PERIODITEM_UPDATE@@@Z 0041b870 f   CashItemPeriodSystem.obj
 0001:0001a910       ?SearchAndDeleteItemPeriodEffect@CCashItemPeriodSystem@@QAE_NPAUOBJECTSTRUCT@@H@Z 0041b910 f   CashItemPeriodSystem.obj
 0001:0001a990       ?PeriodCheckThread@CCashItemPeriodSystem@@SGKPAX@Z 0041b990 f   CashItemPeriodSystem.obj
 0001:0001aa60       ?CalcItemUseEndTime@CCashItemPeriodSystem@@QAE?AVCTime@ATL@@H@Z 0041ba60 f   CashItemPeriodSystem.obj
 0001:0001aab0       ?SetPeriodItemEffect@CCashItemPeriodSystem@@QAEHPAUOBJECTSTRUCT@@HEEK@Z 0041bab0 f   CashItemPeriodSystem.obj
 0001:0001ac20       ?GDReqPeriodItemInsert@CCashItemPeriodSystem@@QAEXPAUOBJECTSTRUCT@@HH@Z 0041bc20 f   CashItemPeriodSystem.obj
 0001:0001ae90       ?DGAnsPeriodItemInsert@CCashItemPeriodSystem@@QAEXPAUPMSG_ANS_PERIODITEM_INSERT@@@Z 0041be90 f   CashItemPeriodSystem.obj
 0001:0001af60       ?DGAnsPeriodItemList@CCashItemPeriodSystem@@QAEXPAUPMSG_ANS_PERIODITEM_LIST@@@Z 0041bf60 f   CashItemPeriodSystem.obj
 0001:0001b060       ?Initialize@CCashItemPeriodSystem@@QAEXXZ 0041c060 f   CashItemPeriodSystem.obj
 0001:0001b400       ??0CCashLotterySystem@@QAE@XZ 0041c400 f   CashLotterySystem.obj
 0001:0001b470       ??1CCashLotterySystem@@UAE@XZ 0041c470 f   CashLotterySystem.obj
 0001:0001b4e0       ?Initialize@CCashLotterySystem@@QAEXXZ 0041c4e0 f   CashLotterySystem.obj
 0001:0001b590       ?SetitemDropRate@CCashLotterySystem@@QAEXHHHHHH@Z 0041c590 f   CashLotterySystem.obj
 0001:0001b5e0       ?InsertItem@CCashLotterySystem@@QAEHHHHHHHHHH@Z 0041c5e0 f   CashLotterySystem.obj
 0001:0001b6a0       ?GetItem@CCashLotterySystem@@QAEHPAVCItem@@@Z 0041c6a0 f   CashLotterySystem.obj
 0001:0001ba90       ??_GCCashLotterySystem@@UAEPAXI@Z 0041ca90 f i CashLotterySystem.obj
 0001:0001ba90       ??_ECCashLotterySystem@@UAEPAXI@Z 0041ca90 f i CashLotterySystem.obj
 0001:0001bac0       ?Load@CCashLotterySystem@@QAEXPAD@Z 0041cac0 f   CashLotterySystem.obj
 0001:0001be00       ?IsCashItem@@YAHH@Z        0041ce00 f   CashShop.obj
 0001:0001bee0       ?IsPremiumItem@@YAHH@Z     0041cee0 f   CashShop.obj
 0001:0001bf50       ??0CCastleCrown@@QAE@XZ    0041cf50 f   CastleCrown.obj
 0001:0001bf60       ??1CCastleCrown@@UAE@XZ    0041cf60 f   CastleCrown.obj
 0001:0001bf70       ?CastleCrownAct@CCastleCrown@@QAEXH@Z 0041cf70 f   CastleCrown.obj
 0001:0001c1b0       ??_ECCastleCrown@@UAEPAXI@Z 0041d1b0 f i CastleCrown.obj
 0001:0001c1b0       ??_GCCastleCrown@@UAEPAXI@Z 0041d1b0 f i CastleCrown.obj
 0001:0001c1e0       ??0CCastleCrownSwitch@@QAE@XZ 0041d1e0 f   CastleCrownSwitch.obj
 0001:0001c1f0       ??1CCastleCrownSwitch@@UAE@XZ 0041d1f0 f   CastleCrownSwitch.obj
 0001:0001c200       ?CastleCrownSwitchAct@CCastleCrownSwitch@@QAEXH@Z 0041d200 f   CastleCrownSwitch.obj
 0001:0001c4a0       ??_GCCastleCrownSwitch@@UAEPAXI@Z 0041d4a0 f i CastleCrownSwitch.obj
 0001:0001c4a0       ??_ECCastleCrownSwitch@@UAEPAXI@Z 0041d4a0 f i CastleCrownSwitch.obj
 0001:0001c7c0       ?ClearMonster@CCastleDeepEvent@@QAEXXZ 0041d7c0 f   CastleDeepEvent.obj
 0001:0001c800       ?_Min@?$_Tree_val@V?$_Tmap_traits@HV?$vector@UCASTLEDEEP_MONSTERINFO@@V?$allocator@UCASTLEDEEP_MONSTERINFO@@@std@@@std@@U?$less@H@2@V?$allocator@U?$pair@$$CBHV?$vector@UCASTLEDEEP_MONSTERINFO@@V?$allocator@UCASTLEDEEP_MONSTERINFO@@@std@@@std@@@std@@@2@$0A@@std@@@std@@SAPAU_Node@?$_Tree_nod@V?$_Tmap_traits@HV?$vector@UCASTLEDEEP_MONSTERINFO@@V?$allocator@UCASTLEDEEP_MONSTERINFO@@@std@@@std@@U?$less@H@2@V?$allocator@U?$pair@$$CBHV?$vector@UCASTLEDEEP_MONSTERINFO@@V?$allocator@UCASTLEDEEP_MONSTERINFO@@@std@@@std@@@std@@@2@$0A@@std@@@2@PAU342@@Z 0041d800 f i CastleDeepEvent.obj
 0001:0001c800       ?_Min@?$_Tree_val@V?$_Tmap_traits@HU_tagWaiting@@U?$less@H@std@@V?$allocator@U?$pair@$$CBHU_tagWaiting@@@std@@@3@$0A@@std@@@std@@SAPAU_Node@?$_Tree_nod@V?$_Tmap_traits@HU_tagWaiting@@U?$less@H@std@@V?$allocator@U?$pair@$$CBHU_tagWaiting@@@std@@@3@$0A@@std@@@2@PAU342@@Z 0041d800 f i NewPVP.obj
 0001:0001c800       ?_Min@?$_Tree_val@V?$_Tmap_traits@HV?$vector@UCASTLEDEEP_SPAWNTIME@@V?$allocator@UCASTLEDEEP_SPAWNTIME@@@std@@@std@@U?$less@H@2@V?$allocator@U?$pair@$$CBHV?$vector@UCASTLEDEEP_SPAWNTIME@@V?$allocator@UCASTLEDEEP_SPAWNTIME@@@std@@@std@@@std@@@2@$0A@@std@@@std@@SAPAU_Node@?$_Tree_nod@V?$_Tmap_traits@HV?$vector@UCASTLEDEEP_SPAWNTIME@@V?$allocator@UCASTLEDEEP_SPAWNTIME@@@std@@@std@@U?$less@H@2@V?$allocator@U?$pair@$$CBHV?$vector@UCASTLEDEEP_SPAWNTIME@@V?$allocator@UCASTLEDEEP_SPAWNTIME@@@std@@@std@@@std@@@2@$0A@@std@@@2@PAU342@@Z 0041d800 f i CastleDeepEvent.obj
 0001:0001c800       ?_Min@?$_Tree_val@V?$_Tmap_traits@HU_MONSTER_HERD_DATA@@U?$less@H@std@@V?$allocator@U?$pair@$$CBHU_MONSTER_HERD_DATA@@@std@@@3@$0A@@std@@@std@@SAPAU_Node@?$_Tree_nod@V?$_Tmap_traits@HU_MONSTER_HERD_DATA@@U?$less@H@std@@V?$allocator@U?$pair@$$CBHU_MONSTER_HERD_DATA@@@std@@@3@$0A@@std@@@2@PAU342@@Z 0041d800 f i Doppelganger.obj
 0001:0001c820       ?_Max@?$_Tree_val@V?$_Tmap_traits@HV?$vector@UCASTLEDEEP_SPAWNTIME@@V?$allocator@UCASTLEDEEP_SPAWNTIME@@@std@@@std@@U?$less@H@2@V?$allocator@U?$pair@$$CBHV?$vector@UCASTLEDEEP_SPAWNTIME@@V?$allocator@UCASTLEDEEP_SPAWNTIME@@@std@@@std@@@std@@@2@$0A@@std@@@std@@SAPAU_Node@?$_Tree_nod@V?$_Tmap_traits@HV?$vector@UCASTLEDEEP_SPAWNTIME@@V?$allocator@UCASTLEDEEP_SPAWNTIME@@@std@@@std@@U?$less@H@2@V?$allocator@U?$pair@$$CBHV?$vector@UCASTLEDEEP_SPAWNTIME@@V?$allocator@UCASTLEDEEP_SPAWNTIME@@@std@@@std@@@std@@@2@$0A@@std@@@2@PAU342@@Z 0041d820 f i CastleDeepEvent.obj
 0001:0001c820       ?_Max@?$_Tree_val@V?$_Tmap_traits@HU_MONSTER_HERD_DATA@@U?$less@H@std@@V?$allocator@U?$pair@$$CBHU_MONSTER_HERD_DATA@@@std@@@3@$0A@@std@@@std@@SAPAU_Node@?$_Tree_nod@V?$_Tmap_traits@HU_MONSTER_HERD_DATA@@U?$less@H@std@@V?$allocator@U?$pair@$$CBHU_MONSTER_HERD_DATA@@@std@@@3@$0A@@std@@@2@PAU342@@Z 0041d820 f i Doppelganger.obj
 0001:0001c820       ?_Max@?$_Tree_val@V?$_Tmap_traits@HU_tagWaiting@@U?$less@H@std@@V?$allocator@U?$pair@$$CBHU_tagWaiting@@@std@@@3@$0A@@std@@@std@@SAPAU_Node@?$_Tree_nod@V?$_Tmap_traits@HU_tagWaiting@@U?$less@H@std@@V?$allocator@U?$pair@$$CBHU_tagWaiting@@@std@@@3@$0A@@std@@@2@PAU342@@Z 0041d820 f i NewPVP.obj
 0001:0001c820       ?_Max@?$_Tree_val@V?$_Tmap_traits@HV?$vector@UCASTLEDEEP_MONSTERINFO@@V?$allocator@UCASTLEDEEP_MONSTERINFO@@@std@@@std@@U?$less@H@2@V?$allocator@U?$pair@$$CBHV?$vector@UCASTLEDEEP_MONSTERINFO@@V?$allocator@UCASTLEDEEP_MONSTERINFO@@@std@@@std@@@std@@@2@$0A@@std@@@std@@SAPAU_Node@?$_Tree_nod@V?$_Tmap_traits@HV?$vector@UCASTLEDEEP_MONSTERINFO@@V?$allocator@UCASTLEDEEP_MONSTERINFO@@@std@@@std@@U?$less@H@2@V?$allocator@U?$pair@$$CBHV?$vector@UCASTLEDEEP_MONSTERINFO@@V?$allocator@UCASTLEDEEP_MONSTERINFO@@@std@@@std@@@std@@@2@$0A@@std@@@2@PAU342@@Z 0041d820 f i CastleDeepEvent.obj
 0001:0001c840       ??F?$_Tree_unchecked_const_iterator@V?$_Tree_val@V?$_Tmap_traits@HU_tagWaiting@@U?$less@H@std@@V?$allocator@U?$pair@$$CBHU_tagWaiting@@@std@@@3@$0A@@std@@@std@@U_Iterator_base0@2@@std@@QAEAAV01@XZ 0041d840 f i NewPVP.obj
 0001:0001c840       ??F?$_Tree_unchecked_const_iterator@V?$_Tree_val@V?$_Tmap_traits@HU_MONSTER_HERD_DATA@@U?$less@H@std@@V?$allocator@U?$pair@$$CBHU_MONSTER_HERD_DATA@@@std@@@3@$0A@@std@@@std@@U_Iterator_base0@2@@std@@QAEAAV01@XZ 0041d840 f i Doppelganger.obj
 0001:0001c840       ??F?$_Tree_unchecked_const_iterator@V?$_Tree_val@V?$_Tmap_traits@HV?$vector@UCASTLEDEEP_SPAWNTIME@@V?$allocator@UCASTLEDEEP_SPAWNTIME@@@std@@@std@@U?$less@H@2@V?$allocator@U?$pair@$$CBHV?$vector@UCASTLEDEEP_SPAWNTIME@@V?$allocator@UCASTLEDEEP_SPAWNTIME@@@std@@@std@@@std@@@2@$0A@@std@@@std@@U_Iterator_base0@2@@std@@QAEAAV01@XZ 0041d840 f i CastleDeepEvent.obj
 0001:0001c840       ??F?$_Tree_unchecked_const_iterator@V?$_Tree_val@V?$_Tmap_traits@HV?$vector@UCASTLEDEEP_MONSTERINFO@@V?$allocator@UCASTLEDEEP_MONSTERINFO@@@std@@@std@@U?$less@H@2@V?$allocator@U?$pair@$$CBHV?$vector@UCASTLEDEEP_MONSTERINFO@@V?$allocator@UCASTLEDEEP_MONSTERINFO@@@std@@@std@@@std@@@2@$0A@@std@@@std@@U_Iterator_base0@2@@std@@QAEAAV01@XZ 0041d840 f i CastleDeepEvent.obj
 0001:0001c8a0       ?_Rrotate@?$_Tree@V?$_Tmap_traits@HPAUGAMESHOP_PACKAGE_DATA@@U?$less@H@std@@V?$allocator@U?$pair@$$CBHPAUGAMESHOP_PACKAGE_DATA@@@std@@@3@$0A@@std@@@std@@IAEXPAU_Node@?$_Tree_nod@V?$_Tmap_traits@HPAUGAMESHOP_PACKAGE_DATA@@U?$less@H@std@@V?$allocator@U?$pair@$$CBHPAUGAMESHOP_PACKAGE_DATA@@@std@@@3@$0A@@std@@@2@@Z 0041d8a0 f i GameShop.obj
 0001:0001c8a0       ?_Rrotate@?$_Tree@V?$_Tmap_traits@HPAU_MAPSVR_DATA@@U?$less@H@std@@V?$allocator@U?$pair@$$CBHPAU_MAPSVR_DATA@@@std@@@3@$0A@@std@@@std@@IAEXPAU_Node@?$_Tree_nod@V?$_Tmap_traits@HPAU_MAPSVR_DATA@@U?$less@H@std@@V?$allocator@U?$pair@$$CBHPAU_MAPSVR_DATA@@@std@@@3@$0A@@std@@@2@@Z 0041d8a0 f i MapServerManager.obj
 0001:0001c8a0       ?_Rrotate@?$_Tree@V?$_Tmap_traits@HPAXU?$less@H@std@@V?$allocator@U?$pair@$$CBHPAX@std@@@2@$0A@@std@@@std@@IAEXPAU_Node@?$_Tree_nod@V?$_Tmap_traits@HPAXU?$less@H@std@@V?$allocator@U?$pair@$$CBHPAX@std@@@2@$0A@@std@@@2@@Z 0041d8a0 f i EventManagement.obj
 0001:0001c8a0       ?_Rrotate@?$_Tree@V?$_Tmap_traits@HPAU_GUILD_INFO_STRUCT@@U?$less@H@std@@V?$allocator@U?$pair@$$CBHPAU_GUILD_INFO_STRUCT@@@std@@@3@$0A@@std@@@std@@IAEXPAU_Node@?$_Tree_nod@V?$_Tmap_traits@HPAU_GUILD_INFO_STRUCT@@U?$less@H@std@@V?$allocator@U?$pair@$$CBHPAU_GUILD_INFO_STRUCT@@@std@@@3@$0A@@std@@@2@@Z 0041d8a0 f i GuildClass.obj
 0001:0001c8a0       ?_Rrotate@?$_Tree@V?$_Tmap_traits@HPAUGAMESHOP_ITEM_DATA@@U?$less@H@std@@V?$allocator@U?$pair@$$CBHPAUGAMESHOP_ITEM_DATA@@@std@@@3@$0A@@std@@@std@@IAEXPAU_Node@?$_Tree_nod@V?$_Tmap_traits@HPAUGAMESHOP_ITEM_DATA@@U?$less@H@std@@V?$allocator@U?$pair@$$CBHPAUGAMESHOP_ITEM_DATA@@@std@@@3@$0A@@std@@@2@@Z 0041d8a0 f i GameShop.obj
 0001:0001c8a0       ?_Rrotate@?$_Tree@V?$_Tmap_traits@HPAVQuestExpAsk@@U?$less@H@std@@V?$allocator@U?$pair@$$CBHPAVQuestExpAsk@@@std@@@3@$0A@@std@@@std@@IAEXPAU_Node@?$_Tree_nod@V?$_Tmap_traits@HPAVQuestExpAsk@@U?$less@H@std@@V?$allocator@U?$pair@$$CBHPAVQuestExpAsk@@@std@@@3@$0A@@std@@@2@@Z 0041d8a0 f i QuestExpInfo.obj
 0001:0001c8a0       ?_Rrotate@?$_Tree@V?$_Tmap_traits@HPAVTUnionInfo@@U?$less@H@std@@V?$allocator@U?$pair@$$CBHPAVTUnionInfo@@@std@@@3@$0A@@std@@@std@@IAEXPAU_Node@?$_Tree_nod@V?$_Tmap_traits@HPAVTUnionInfo@@U?$less@H@std@@V?$allocator@U?$pair@$$CBHPAVTUnionInfo@@@std@@@3@$0A@@std@@@2@@Z 0041d8a0 f i TUnion.obj
 0001:0001c8a0       ?_Rrotate@?$_Tree@V?$_Tmap_traits@HHU?$less@H@std@@V?$allocator@U?$pair@$$CBHH@std@@@2@$0A@@std@@@std@@IAEXPAU_Node@?$_Tree_nod@V?$_Tmap_traits@HHU?$less@H@std@@V?$allocator@U?$pair@$$CBHH@std@@@2@$0A@@std@@@2@@Z 0041d8a0 f i CastleDeepEvent.obj
 0001:0001c8a0       ?_Rrotate@?$_Tree@V?$_Tmap_traits@IHU?$less@I@std@@V?$allocator@U?$pair@$$CBIH@std@@@2@$0A@@std@@@std@@IAEXPAU_Node@?$_Tree_nod@V?$_Tmap_traits@IHU?$less@I@std@@V?$allocator@U?$pair@$$CBIH@std@@@2@$0A@@std@@@2@@Z 0041d8a0 f i CastleSiege.obj
 0001:0001c8a0       ?_Rrotate@?$_Tree@V?$_Tmap_traits@KPAVQuestExpRewardKind@@U?$less@K@std@@V?$allocator@U?$pair@$$CBKPAVQuestExpRewardKind@@@std@@@3@$0A@@std@@@std@@IAEXPAU_Node@?$_Tree_nod@V?$_Tmap_traits@KPAVQuestExpRewardKind@@U?$less@K@std@@V?$allocator@U?$pair@$$CBKPAVQuestExpRewardKind@@@std@@@3@$0A@@std@@@2@@Z 0041d8a0 f i QuestExpInfo.obj
 0001:0001c8a0       ?_Rrotate@?$_Tree@V?$_Tmap_traits@HPAVQuestExpReward@@U?$less@H@std@@V?$allocator@U?$pair@$$CBHPAVQuestExpReward@@@std@@@3@$0A@@std@@@std@@IAEXPAU_Node@?$_Tree_nod@V?$_Tmap_traits@HPAVQuestExpReward@@U?$less@H@std@@V?$allocator@U?$pair@$$CBHPAVQuestExpReward@@@std@@@3@$0A@@std@@@2@@Z 0041d8a0 f i QuestExpInfo.obj
 0001:0001c900       ?_Rrotate@?$_Tree@V?$_Tmap_traits@HV?$vector@UCASTLEDEEP_MONSTERINFO@@V?$allocator@UCASTLEDEEP_MONSTERINFO@@@std@@@std@@U?$less@H@2@V?$allocator@U?$pair@$$CBHV?$vector@UCASTLEDEEP_MONSTERINFO@@V?$allocator@UCASTLEDEEP_MONSTERINFO@@@std@@@std@@@std@@@2@$0A@@std@@@std@@IAEXPAU_Node@?$_Tree_nod@V?$_Tmap_traits@HV?$vector@UCASTLEDEEP_MONSTERINFO@@V?$allocator@UCASTLEDEEP_MONSTERINFO@@@std@@@std@@U?$less@H@2@V?$allocator@U?$pair@$$CBHV?$vector@UCASTLEDEEP_MONSTERINFO@@V?$allocator@UCASTLEDEEP_MONSTERINFO@@@std@@@std@@@std@@@2@$0A@@std@@@2@@Z 0041d900 f i CastleDeepEvent.obj
 0001:0001c900       ?_Rrotate@?$_Tree@V?$_Tmap_traits@HU_tagWaiting@@U?$less@H@std@@V?$allocator@U?$pair@$$CBHU_tagWaiting@@@std@@@3@$0A@@std@@@std@@IAEXPAU_Node@?$_Tree_nod@V?$_Tmap_traits@HU_tagWaiting@@U?$less@H@std@@V?$allocator@U?$pair@$$CBHU_tagWaiting@@@std@@@3@$0A@@std@@@2@@Z 0041d900 f i NewPVP.obj
 0001:0001c900       ?_Rrotate@?$_Tree@V?$_Tmap_traits@HU_MONSTER_HERD_DATA@@U?$less@H@std@@V?$allocator@U?$pair@$$CBHU_MONSTER_HERD_DATA@@@std@@@3@$0A@@std@@@std@@IAEXPAU_Node@?$_Tree_nod@V?$_Tmap_traits@HU_MONSTER_HERD_DATA@@U?$less@H@std@@V?$allocator@U?$pair@$$CBHU_MONSTER_HERD_DATA@@@std@@@3@$0A@@std@@@2@@Z 0041d900 f i Doppelganger.obj
 0001:0001c900       ?_Rrotate@?$_Tree@V?$_Tmap_traits@HV?$vector@UCASTLEDEEP_SPAWNTIME@@V?$allocator@UCASTLEDEEP_SPAWNTIME@@@std@@@std@@U?$less@H@2@V?$allocator@U?$pair@$$CBHV?$vector@UCASTLEDEEP_SPAWNTIME@@V?$allocator@UCASTLEDEEP_SPAWNTIME@@@std@@@std@@@std@@@2@$0A@@std@@@std@@IAEXPAU_Node@?$_Tree_nod@V?$_Tmap_traits@HV?$vector@UCASTLEDEEP_SPAWNTIME@@V?$allocator@UCASTLEDEEP_SPAWNTIME@@@std@@@std@@U?$less@H@2@V?$allocator@U?$pair@$$CBHV?$vector@UCASTLEDEEP_SPAWNTIME@@V?$allocator@UCASTLEDEEP_SPAWNTIME@@@std@@@std@@@std@@@2@$0A@@std@@@2@@Z 0041d900 f i CastleDeepEvent.obj
 0001:0001c960       ??$_Cons_val@V?$allocator@UCASTLEDEEP_MONSTERINFO@@@std@@UCASTLEDEEP_MONSTERINFO@@ABU3@@std@@YAXAAV?$allocator@UCASTLEDEEP_MONSTERINFO@@@0@PAUCASTLEDEEP_MONSTERINFO@@ABU2@@Z 0041d960 f i CastleDeepEvent.obj
 0001:0001c960       ??$_Cons_val@V?$allocator@UCASTLEDEEP_MONSTERINFO@@@std@@UCASTLEDEEP_MONSTERINFO@@U3@@std@@YAXAAV?$allocator@UCASTLEDEEP_MONSTERINFO@@@0@PAUCASTLEDEEP_MONSTERINFO@@$$QAU2@@Z 0041d960 f i CastleDeepEvent.obj
 0001:0001c960       ??$_Cons_val@V?$allocator@UCASTLEDEEP_MONSTERINFO@@@std@@UCASTLEDEEP_MONSTERINFO@@AAU3@@std@@YAXAAV?$allocator@UCASTLEDEEP_MONSTERINFO@@@0@PAUCASTLEDEEP_MONSTERINFO@@AAU2@@Z 0041d960 f i CastleDeepEvent.obj
 0001:0001c980       ?allocate@?$allocator@U_stMonsterIndexInfo@@@std@@QAEPAU_stMonsterIndexInfo@@I@Z 0041d980 f i ImperialGuardian.obj
 0001:0001c980       ?allocate@?$allocator@UCASTLEDEEP_SPAWNTIME@@@std@@QAEPAUCASTLEDEEP_SPAWNTIME@@I@Z 0041d980 f i CastleDeepEvent.obj
 0001:0001c980       ?allocate@?$allocator@UXMASMONSTER_EVENT_TIME@@@std@@QAEPAUXMASMONSTER_EVENT_TIME@@I@Z 0041d980 f i XMasAttackEvent.obj
 0001:0001c980       ?allocate@?$allocator@URINGMONSTER_EVENT_TIME@@@std@@QAEPAURINGMONSTER_EVENT_TIME@@I@Z 0041d980 f i RingAttackEvent.obj
 0001:0001c980       ?allocate@?$allocator@UCHAOSCASTLE_START_TIME@@@std@@QAEPAUCHAOSCASTLE_START_TIME@@I@Z 0041d980 f i ChaosCastle.obj
 0001:0001c980       ?allocate@?$allocator@VCItemBagAttrEx@@@std@@QAEPAVCItemBagAttrEx@@I@Z 0041d980 f i DoppelgangerItemBag.obj
 0001:0001c980       ?allocate@?$allocator@UCASTLEDEEP_EVENTTIME@@@std@@QAEPAUCASTLEDEEP_EVENTTIME@@I@Z 0041d980 f i CastleDeepEvent.obj
 0001:0001c980       ?allocate@?$allocator@UtagPOINT@@@std@@QAEPAUtagPOINT@@I@Z 0041d980 f i ChaosCastle.obj
 0001:0001c9e0       ??$_Uninit_copy@V?$_Vector_const_iterator@V?$_Vector_val@UCASTLEDEEP_MONSTERINFO@@V?$allocator@UCASTLEDEEP_MONSTERINFO@@@std@@@std@@@std@@PAUCASTLEDEEP_MONSTERINFO@@V?$allocator@UCASTLEDEEP_MONSTERINFO@@@2@@std@@YAPAUCASTLEDEEP_MONSTERINFO@@V?$_Vector_const_iterator@V?$_Vector_val@UCASTLEDEEP_MONSTERINFO@@V?$allocator@UCASTLEDEEP_MONSTERINFO@@@std@@@std@@@0@0PAU1@AAV?$allocator@UCASTLEDEEP_MONSTERINFO@@@0@U_Nonscalar_ptr_iterator_tag@0@@Z 0041d9e0 f i CastleDeepEvent.obj
 0001:0001ca20       ??$_Uninit_move@PAUCASTLEDEEP_MONSTERINFO@@PAU1@V?$allocator@UCASTLEDEEP_MONSTERINFO@@@std@@U1@@std@@YAPAUCASTLEDEEP_MONSTERINFO@@PAU1@00AAV?$allocator@UCASTLEDEEP_MONSTERINFO@@@0@0U_Nonscalar_ptr_iterator_tag@0@@Z 0041da20 f i CastleDeepEvent.obj
 0001:0001ca60       ?CheckSync@CCastleDeepEvent@@QAEXXZ 0041da60 f   CastleDeepEvent.obj
 0001:0001cc30       ?SetState_Closed@CCastleDeepEvent@@QAEXXZ 0041dc30 f   CastleDeepEvent.obj
 0001:0001cc50       ?clear@?$vector@HV?$allocator@H@std@@@std@@QAEXXZ 0041dc50 f i CastleDeepEvent.obj
 0001:0001cc80       ?find@?$_Tree@V?$_Tmap_traits@HU_MONSTER_HERD_DATA@@U?$less@H@std@@V?$allocator@U?$pair@$$CBHU_MONSTER_HERD_DATA@@@std@@@3@$0A@@std@@@std@@QAE?AV?$_Tree_iterator@V?$_Tree_val@V?$_Tmap_traits@HU_MONSTER_HERD_DATA@@U?$less@H@std@@V?$allocator@U?$pair@$$CBHU_MONSTER_HERD_DATA@@@std@@@3@$0A@@std@@@std@@@2@ABH@Z 0041dc80 f i MonsterHerd.obj
 0001:0001cc80       ?find@?$_Tree@V?$_Tmap_traits@HV?$vector@UCASTLEDEEP_MONSTERINFO@@V?$allocator@UCASTLEDEEP_MONSTERINFO@@@std@@@std@@U?$less@H@2@V?$allocator@U?$pair@$$CBHV?$vector@UCASTLEDEEP_MONSTERINFO@@V?$allocator@UCASTLEDEEP_MONSTERINFO@@@std@@@std@@@std@@@2@$0A@@std@@@std@@QAE?AV?$_Tree_iterator@V?$_Tree_val@V?$_Tmap_traits@HV?$vector@UCASTLEDEEP_MONSTERINFO@@V?$allocator@UCASTLEDEEP_MONSTERINFO@@@std@@@std@@U?$less@H@2@V?$allocator@U?$pair@$$CBHV?$vector@UCASTLEDEEP_MONSTERINFO@@V?$allocator@UCASTLEDEEP_MONSTERINFO@@@std@@@std@@@std@@@2@$0A@@std@@@std@@@2@ABH@Z 0041dc80 f i CastleDeepEvent.obj
 0001:0001cc80       ?find@?$_Tree@V?$_Tmap_traits@HV?$vector@UCASTLEDEEP_SPAWNTIME@@V?$allocator@UCASTLEDEEP_SPAWNTIME@@@std@@@std@@U?$less@H@2@V?$allocator@U?$pair@$$CBHV?$vector@UCASTLEDEEP_SPAWNTIME@@V?$allocator@UCASTLEDEEP_SPAWNTIME@@@std@@@std@@@std@@@2@$0A@@std@@@std@@QAE?AV?$_Tree_iterator@V?$_Tree_val@V?$_Tmap_traits@HV?$vector@UCASTLEDEEP_SPAWNTIME@@V?$allocator@UCASTLEDEEP_SPAWNTIME@@@std@@@std@@U?$less@H@2@V?$allocator@U?$pair@$$CBHV?$vector@UCASTLEDEEP_SPAWNTIME@@V?$allocator@UCASTLEDEEP_SPAWNTIME@@@std@@@std@@@std@@@2@$0A@@std@@@std@@@2@ABH@Z 0041dc80 f i CastleDeepEvent.obj
 0001:0001cc80       ?find@?$_Tree@V?$_Tmap_traits@HU_tagWaiting@@U?$less@H@std@@V?$allocator@U?$pair@$$CBHU_tagWaiting@@@std@@@3@$0A@@std@@@std@@QAE?AV?$_Tree_iterator@V?$_Tree_val@V?$_Tmap_traits@HU_tagWaiting@@U?$less@H@std@@V?$allocator@U?$pair@$$CBHU_tagWaiting@@@std@@@3@$0A@@std@@@std@@@2@ABH@Z 0041dc80 f i NewPVP.obj
 0001:0001ccf0       ?StartEvent@CCastleDeepEvent@@QAEXXZ 0041dcf0 f   CastleDeepEvent.obj
 0001:0001cdf0       ?SetState_Playing@CCastleDeepEvent@@QAEXXZ 0041ddf0 f   CastleDeepEvent.obj
 0001:0001ce10       ?AddMonster@CCastleDeepEvent@@QAEXHH@Z 0041de10 f   CastleDeepEvent.obj
 0001:0001d040       ?reserve@?$vector@U_stMonsterIndexInfo@@V?$allocator@U_stMonsterIndexInfo@@@std@@@std@@QAEXI@Z 0041e040 f i ImperialGuardian.obj
 0001:0001d040       ?reserve@?$vector@VCItemBagAttrEx@@V?$allocator@VCItemBagAttrEx@@@std@@@std@@QAEXI@Z 0041e040 f i DoppelgangerItemBag.obj
 0001:0001d040       ?reserve@?$vector@UCHAOSCASTLE_START_TIME@@V?$allocator@UCHAOSCASTLE_START_TIME@@@std@@@std@@QAEXI@Z 0041e040 f i ChaosCastle.obj
 0001:0001d040       ?reserve@?$vector@UtagPOINT@@V?$allocator@UtagPOINT@@@std@@@std@@QAEXI@Z 0041e040 f i ChaosCastle.obj
 0001:0001d040       ?reserve@?$vector@URINGMONSTER_EVENT_TIME@@V?$allocator@URINGMONSTER_EVENT_TIME@@@std@@@std@@QAEXI@Z 0041e040 f i RingAttackEvent.obj
 0001:0001d040       ?reserve@?$vector@UCASTLEDEEP_SPAWNTIME@@V?$allocator@UCASTLEDEEP_SPAWNTIME@@@std@@@std@@QAEXI@Z 0041e040 f i CastleDeepEvent.obj
 0001:0001d040       ?reserve@?$vector@UXMASMONSTER_EVENT_TIME@@V?$allocator@UXMASMONSTER_EVENT_TIME@@@std@@@std@@QAEXI@Z 0041e040 f i XMasAttackEvent.obj
 0001:0001d040       ?reserve@?$vector@UCASTLEDEEP_EVENTTIME@@V?$allocator@UCASTLEDEEP_EVENTTIME@@@std@@@std@@QAEXI@Z 0041e040 f i CastleDeepEvent.obj
 0001:0001d110       ?reserve@?$vector@UCASTLEDEEP_MONSTERINFO@@V?$allocator@UCASTLEDEEP_MONSTERINFO@@@std@@@std@@QAEXI@Z 0041e110 f i CastleDeepEvent.obj
 0001:0001d220       ??0?$vector@UCASTLEDEEP_MONSTERINFO@@V?$allocator@UCASTLEDEEP_MONSTERINFO@@@std@@@std@@QAE@ABV01@@Z 0041e220 f i CastleDeepEvent.obj
 0001:0001d300       ?SetState@CCastleDeepEvent@@QAEXH@Z 0041e300 f   CastleDeepEvent.obj
 0001:0001d340       ?ProcState_Closed@CCastleDeepEvent@@QAEXXZ 0041e340 f   CastleDeepEvent.obj
 0001:0001d460       ?ProcState_Playing@CCastleDeepEvent@@QAEXXZ 0041e460 f   CastleDeepEvent.obj
 0001:0001d5d0       ?_Reserve@?$vector@UCASTLEDEEP_MONSTERINFO@@V?$allocator@UCASTLEDEEP_MONSTERINFO@@@std@@@std@@IAEXI@Z 0041e5d0 f i CastleDeepEvent.obj
 0001:0001d650       ?EnableEvent@CCastleDeepEvent@@QAEXH@Z 0041e650 f   CastleDeepEvent.obj
 0001:0001d680       ?Run@CCastleDeepEvent@@QAEXXZ 0041e680 f   CastleDeepEvent.obj
 0001:0001d6a0       ?push_back@?$vector@UCASTLEDEEP_MONSTERINFO@@V?$allocator@UCASTLEDEEP_MONSTERINFO@@@std@@@std@@QAEXABUCASTLEDEEP_MONSTERINFO@@@Z 0041e6a0 f i CastleDeepEvent.obj
 0001:0001d730       ??1?$pair@HV?$vector@UCASTLEDEEP_SPAWNTIME@@V?$allocator@UCASTLEDEEP_SPAWNTIME@@@std@@@std@@@std@@QAE@XZ 0041e730 f i CastleDeepEvent.obj
 0001:0001d730       ??1?$pair@HV?$vector@UCASTLEDEEP_MONSTERINFO@@V?$allocator@UCASTLEDEEP_MONSTERINFO@@@std@@@std@@@std@@QAE@XZ 0041e730 f i CastleDeepEvent.obj
 0001:0001d760       ??$_Dest_val@V?$allocator@U?$pair@$$CBHV?$vector@UCASTLEDEEP_MONSTERINFO@@V?$allocator@UCASTLEDEEP_MONSTERINFO@@@std@@@std@@@std@@@std@@U?$pair@$$CBHV?$vector@UCASTLEDEEP_MONSTERINFO@@V?$allocator@UCASTLEDEEP_MONSTERINFO@@@std@@@std@@@2@@std@@YAXAAV?$allocator@U?$pair@$$CBHV?$vector@UCASTLEDEEP_MONSTERINFO@@V?$allocator@UCASTLEDEEP_MONSTERINFO@@@std@@@std@@@std@@@0@PAU?$pair@$$CBHV?$vector@UCASTLEDEEP_MONSTERINFO@@V?$allocator@UCASTLEDEEP_MONSTERINFO@@@std@@@std@@@0@@Z 0041e760 f i CastleDeepEvent.obj
 0001:0001d760       ??$_Dest_val@V?$allocator@U?$pair@$$CBHV?$vector@UCASTLEDEEP_SPAWNTIME@@V?$allocator@UCASTLEDEEP_SPAWNTIME@@@std@@@std@@@std@@@std@@U?$pair@$$CBHV?$vector@UCASTLEDEEP_SPAWNTIME@@V?$allocator@UCASTLEDEEP_SPAWNTIME@@@std@@@std@@@2@@std@@YAXAAV?$allocator@U?$pair@$$CBHV?$vector@UCASTLEDEEP_SPAWNTIME@@V?$allocator@UCASTLEDEEP_SPAWNTIME@@@std@@@std@@@std@@@0@PAU?$pair@$$CBHV?$vector@UCASTLEDEEP_SPAWNTIME@@V?$allocator@UCASTLEDEEP_SPAWNTIME@@@std@@@std@@@0@@Z 0041e760 f i CastleDeepEvent.obj
 0001:0001d790       ?_Insert@?$_Tree@V?$_Tmap_traits@HV?$vector@UCASTLEDEEP_SPAWNTIME@@V?$allocator@UCASTLEDEEP_SPAWNTIME@@@std@@@std@@U?$less@H@2@V?$allocator@U?$pair@$$CBHV?$vector@UCASTLEDEEP_SPAWNTIME@@V?$allocator@UCASTLEDEEP_SPAWNTIME@@@std@@@std@@@std@@@2@$0A@@std@@@std@@IAE?AV?$_Tree_iterator@V?$_Tree_val@V?$_Tmap_traits@HV?$vector@UCASTLEDEEP_SPAWNTIME@@V?$allocator@UCASTLEDEEP_SPAWNTIME@@@std@@@std@@U?$less@H@2@V?$allocator@U?$pair@$$CBHV?$vector@UCASTLEDEEP_SPAWNTIME@@V?$allocator@UCASTLEDEEP_SPAWNTIME@@@std@@@std@@@std@@@2@$0A@@std@@@std@@@2@_NPAU_Node@?$_Tree_nod@V?$_Tmap_traits@HV?$vector@UCASTLEDEEP_SPAWNTIME@@V?$allocator@UCASTLEDEEP_SPAWNTIME@@@std@@@std@@U?$less@H@2@V?$allocator@U?$pair@$$CBHV?$vector@UCASTLEDEEP_SPAWNTIME@@V?$allocator@UCASTLEDEEP_SPAWNTIME@@@std@@@std@@@std@@@2@$0A@@std@@@2@1@Z 0041e790 f i CastleDeepEvent.obj
 0001:0001d790       ?_Insert@?$_Tree@V?$_Tmap_traits@HV?$vector@UCASTLEDEEP_MONSTERINFO@@V?$allocator@UCASTLEDEEP_MONSTERINFO@@@std@@@std@@U?$less@H@2@V?$allocator@U?$pair@$$CBHV?$vector@UCASTLEDEEP_MONSTERINFO@@V?$allocator@UCASTLEDEEP_MONSTERINFO@@@std@@@std@@@std@@@2@$0A@@std@@@std@@IAE?AV?$_Tree_iterator@V?$_Tree_val@V?$_Tmap_traits@HV?$vector@UCASTLEDEEP_MONSTERINFO@@V?$allocator@UCASTLEDEEP_MONSTERINFO@@@std@@@std@@U?$less@H@2@V?$allocator@U?$pair@$$CBHV?$vector@UCASTLEDEEP_MONSTERINFO@@V?$allocator@UCASTLEDEEP_MONSTERINFO@@@std@@@std@@@std@@@2@$0A@@std@@@std@@@2@_NPAU_Node@?$_Tree_nod@V?$_Tmap_traits@HV?$vector@UCASTLEDEEP_MONSTERINFO@@V?$allocator@UCASTLEDEEP_MONSTERINFO@@@std@@@std@@U?$less@H@2@V?$allocator@U?$pair@$$CBHV?$vector@UCASTLEDEEP_MONSTERINFO@@V?$allocator@UCASTLEDEEP_MONSTERINFO@@@std@@@std@@@std@@@2@$0A@@std@@@2@1@Z 0041e790 f i CastleDeepEvent.obj
 0001:0001d9c0       ?_Erase@?$_Tree@V?$_Tmap_traits@HV?$vector@UCASTLEDEEP_SPAWNTIME@@V?$allocator@UCASTLEDEEP_SPAWNTIME@@@std@@@std@@U?$less@H@2@V?$allocator@U?$pair@$$CBHV?$vector@UCASTLEDEEP_SPAWNTIME@@V?$allocator@UCASTLEDEEP_SPAWNTIME@@@std@@@std@@@std@@@2@$0A@@std@@@std@@IAEXPAU_Node@?$_Tree_nod@V?$_Tmap_traits@HV?$vector@UCASTLEDEEP_SPAWNTIME@@V?$allocator@UCASTLEDEEP_SPAWNTIME@@@std@@@std@@U?$less@H@2@V?$allocator@U?$pair@$$CBHV?$vector@UCASTLEDEEP_SPAWNTIME@@V?$allocator@UCASTLEDEEP_SPAWNTIME@@@std@@@std@@@std@@@2@$0A@@std@@@2@@Z 0041e9c0 f i CastleDeepEvent.obj
 0001:0001d9c0       ?_Erase@?$_Tree@V?$_Tmap_traits@HV?$vector@UCASTLEDEEP_MONSTERINFO@@V?$allocator@UCASTLEDEEP_MONSTERINFO@@@std@@@std@@U?$less@H@2@V?$allocator@U?$pair@$$CBHV?$vector@UCASTLEDEEP_MONSTERINFO@@V?$allocator@UCASTLEDEEP_MONSTERINFO@@@std@@@std@@@std@@@2@$0A@@std@@@std@@IAEXPAU_Node@?$_Tree_nod@V?$_Tmap_traits@HV?$vector@UCASTLEDEEP_MONSTERINFO@@V?$allocator@UCASTLEDEEP_MONSTERINFO@@@std@@@std@@U?$less@H@2@V?$allocator@U?$pair@$$CBHV?$vector@UCASTLEDEEP_MONSTERINFO@@V?$allocator@UCASTLEDEEP_MONSTERINFO@@@std@@@std@@@std@@@2@$0A@@std@@@2@@Z 0041e9c0 f i CastleDeepEvent.obj
 0001:0001da10       ?erase@?$_Tree@V?$_Tmap_traits@HV?$vector@UCASTLEDEEP_SPAWNTIME@@V?$allocator@UCASTLEDEEP_SPAWNTIME@@@std@@@std@@U?$less@H@2@V?$allocator@U?$pair@$$CBHV?$vector@UCASTLEDEEP_SPAWNTIME@@V?$allocator@UCASTLEDEEP_SPAWNTIME@@@std@@@std@@@std@@@2@$0A@@std@@@std@@QAE?AV?$_Tree_iterator@V?$_Tree_val@V?$_Tmap_traits@HV?$vector@UCASTLEDEEP_SPAWNTIME@@V?$allocator@UCASTLEDEEP_SPAWNTIME@@@std@@@std@@U?$less@H@2@V?$allocator@U?$pair@$$CBHV?$vector@UCASTLEDEEP_SPAWNTIME@@V?$allocator@UCASTLEDEEP_SPAWNTIME@@@std@@@std@@@std@@@2@$0A@@std@@@std@@@2@V?$_Tree_const_iterator@V?$_Tree_val@V?$_Tmap_traits@HV?$vector@UCASTLEDEEP_SPAWNTIME@@V?$allocator@UCASTLEDEEP_SPAWNTIME@@@std@@@std@@U?$less@H@2@V?$allocator@U?$pair@$$CBHV?$vector@UCASTLEDEEP_SPAWNTIME@@V?$allocator@UCASTLEDEEP_SPAWNTIME@@@std@@@std@@@std@@@2@$0A@@std@@@std@@@2@@Z 0041ea10 f i CastleDeepEvent.obj
 0001:0001da10       ?erase@?$_Tree@V?$_Tmap_traits@HV?$vector@UCASTLEDEEP_MONSTERINFO@@V?$allocator@UCASTLEDEEP_MONSTERINFO@@@std@@@std@@U?$less@H@2@V?$allocator@U?$pair@$$CBHV?$vector@UCASTLEDEEP_MONSTERINFO@@V?$allocator@UCASTLEDEEP_MONSTERINFO@@@std@@@std@@@std@@@2@$0A@@std@@@std@@QAE?AV?$_Tree_iterator@V?$_Tree_val@V?$_Tmap_traits@HV?$vector@UCASTLEDEEP_MONSTERINFO@@V?$allocator@UCASTLEDEEP_MONSTERINFO@@@std@@@std@@U?$less@H@2@V?$allocator@U?$pair@$$CBHV?$vector@UCASTLEDEEP_MONSTERINFO@@V?$allocator@UCASTLEDEEP_MONSTERINFO@@@std@@@std@@@std@@@2@$0A@@std@@@std@@@2@V?$_Tree_const_iterator@V?$_Tree_val@V?$_Tmap_traits@HV?$vector@UCASTLEDEEP_MONSTERINFO@@V?$allocator@UCASTLEDEEP_MONSTERINFO@@@std@@@std@@U?$less@H@2@V?$allocator@U?$pair@$$CBHV?$vector@UCASTLEDEEP_MONSTERINFO@@V?$allocator@UCASTLEDEEP_MONSTERINFO@@@std@@@std@@@std@@@2@$0A@@std@@@std@@@2@@Z 0041ea10 f i CastleDeepEvent.obj
 0001:0001dc70       ?_Linsert@?$_Tree@V?$_Tmap_traits@HV?$vector@UCASTLEDEEP_MONSTERINFO@@V?$allocator@UCASTLEDEEP_MONSTERINFO@@@std@@@std@@U?$less@H@2@V?$allocator@U?$pair@$$CBHV?$vector@UCASTLEDEEP_MONSTERINFO@@V?$allocator@UCASTLEDEEP_MONSTERINFO@@@std@@@std@@@std@@@2@$0A@@std@@@std@@QAE?AU?$pair@V?$_Tree_iterator@V?$_Tree_val@V?$_Tmap_traits@HV?$vector@UCASTLEDEEP_MONSTERINFO@@V?$allocator@UCASTLEDEEP_MONSTERINFO@@@std@@@std@@U?$less@H@2@V?$allocator@U?$pair@$$CBHV?$vector@UCASTLEDEEP_MONSTERINFO@@V?$allocator@UCASTLEDEEP_MONSTERINFO@@@std@@@std@@@std@@@2@$0A@@std@@@std@@@std@@_N@2@PAU_Node@?$_Tree_nod@V?$_Tmap_traits@HV?$vector@UCASTLEDEEP_MONSTERINFO@@V?$allocator@UCASTLEDEEP_MONSTERINFO@@@std@@@std@@U?$less@H@2@V?$allocator@U?$pair@$$CBHV?$vector@UCASTLEDEEP_MONSTERINFO@@V?$allocator@UCASTLEDEEP_MONSTERINFO@@@std@@@std@@@std@@@2@$0A@@std@@@2@_N@Z 0041ec70 f i CastleDeepEvent.obj
 0001:0001dc70       ?_Linsert@?$_Tree@V?$_Tmap_traits@HV?$vector@UCASTLEDEEP_SPAWNTIME@@V?$allocator@UCASTLEDEEP_SPAWNTIME@@@std@@@std@@U?$less@H@2@V?$allocator@U?$pair@$$CBHV?$vector@UCASTLEDEEP_SPAWNTIME@@V?$allocator@UCASTLEDEEP_SPAWNTIME@@@std@@@std@@@std@@@2@$0A@@std@@@std@@QAE?AU?$pair@V?$_Tree_iterator@V?$_Tree_val@V?$_Tmap_traits@HV?$vector@UCASTLEDEEP_SPAWNTIME@@V?$allocator@UCASTLEDEEP_SPAWNTIME@@@std@@@std@@U?$less@H@2@V?$allocator@U?$pair@$$CBHV?$vector@UCASTLEDEEP_SPAWNTIME@@V?$allocator@UCASTLEDEEP_SPAWNTIME@@@std@@@std@@@std@@@2@$0A@@std@@@std@@@std@@_N@2@PAU_Node@?$_Tree_nod@V?$_Tmap_traits@HV?$vector@UCASTLEDEEP_SPAWNTIME@@V?$allocator@UCASTLEDEEP_SPAWNTIME@@@std@@@std@@U?$less@H@2@V?$allocator@U?$pair@$$CBHV?$vector@UCASTLEDEEP_SPAWNTIME@@V?$allocator@UCASTLEDEEP_SPAWNTIME@@@std@@@std@@@std@@@2@$0A@@std@@@2@_N@Z 0041ec70 f i CastleDeepEvent.obj
 0001:0001dd60       ??$_Cons_val@V?$allocator@U?$pair@$$CBHV?$vector@UCASTLEDEEP_SPAWNTIME@@V?$allocator@UCASTLEDEEP_SPAWNTIME@@@std@@@std@@@std@@@std@@U?$pair@$$CBHV?$vector@UCASTLEDEEP_SPAWNTIME@@V?$allocator@UCASTLEDEEP_SPAWNTIME@@@std@@@std@@@2@U?$pair@HV?$vector@UCASTLEDEEP_SPAWNTIME@@V?$allocator@UCASTLEDEEP_SPAWNTIME@@@std@@@std@@@2@@std@@YAXAAV?$allocator@U?$pair@$$CBHV?$vector@UCASTLEDEEP_SPAWNTIME@@V?$allocator@UCASTLEDEEP_SPAWNTIME@@@std@@@std@@@std@@@0@PAU?$pair@$$CBHV?$vector@UCASTLEDEEP_SPAWNTIME@@V?$allocator@UCASTLEDEEP_SPAWNTIME@@@std@@@std@@@0@$$QAU?$pair@HV?$vector@UCASTLEDEEP_SPAWNTIME@@V?$allocator@UCASTLEDEEP_SPAWNTIME@@@std@@@std@@@0@@Z 0041ed60 f i CastleDeepEvent.obj
 0001:0001dd60       ??$_Cons_val@V?$allocator@U?$pair@$$CBHV?$vector@UCASTLEDEEP_MONSTERINFO@@V?$allocator@UCASTLEDEEP_MONSTERINFO@@@std@@@std@@@std@@@std@@U?$pair@$$CBHV?$vector@UCASTLEDEEP_MONSTERINFO@@V?$allocator@UCASTLEDEEP_MONSTERINFO@@@std@@@std@@@2@U?$pair@HV?$vector@UCASTLEDEEP_MONSTERINFO@@V?$allocator@UCASTLEDEEP_MONSTERINFO@@@std@@@std@@@2@@std@@YAXAAV?$allocator@U?$pair@$$CBHV?$vector@UCASTLEDEEP_MONSTERINFO@@V?$allocator@UCASTLEDEEP_MONSTERINFO@@@std@@@std@@@std@@@0@PAU?$pair@$$CBHV?$vector@UCASTLEDEEP_MONSTERINFO@@V?$allocator@UCASTLEDEEP_MONSTERINFO@@@std@@@std@@@0@$$QAU?$pair@HV?$vector@UCASTLEDEEP_MONSTERINFO@@V?$allocator@UCASTLEDEEP_MONSTERINFO@@@std@@@std@@@0@@Z 0041ed60 f i CastleDeepEvent.obj
 0001:0001dde0       ?erase@?$_Tree@V?$_Tmap_traits@HV?$vector@UCASTLEDEEP_MONSTERINFO@@V?$allocator@UCASTLEDEEP_MONSTERINFO@@@std@@@std@@U?$less@H@2@V?$allocator@U?$pair@$$CBHV?$vector@UCASTLEDEEP_MONSTERINFO@@V?$allocator@UCASTLEDEEP_MONSTERINFO@@@std@@@std@@@std@@@2@$0A@@std@@@std@@QAE?AV?$_Tree_iterator@V?$_Tree_val@V?$_Tmap_traits@HV?$vector@UCASTLEDEEP_MONSTERINFO@@V?$allocator@UCASTLEDEEP_MONSTERINFO@@@std@@@std@@U?$less@H@2@V?$allocator@U?$pair@$$CBHV?$vector@UCASTLEDEEP_MONSTERINFO@@V?$allocator@UCASTLEDEEP_MONSTERINFO@@@std@@@std@@@std@@@2@$0A@@std@@@std@@@2@V?$_Tree_const_iterator@V?$_Tree_val@V?$_Tmap_traits@HV?$vector@UCASTLEDEEP_MONSTERINFO@@V?$allocator@UCASTLEDEEP_MONSTERINFO@@@std@@@std@@U?$less@H@2@V?$allocator@U?$pair@$$CBHV?$vector@UCASTLEDEEP_MONSTERINFO@@V?$allocator@UCASTLEDEEP_MONSTERINFO@@@std@@@std@@@std@@@2@$0A@@std@@@std@@@2@0@Z 0041ede0 f i CastleDeepEvent.obj
 0001:0001dde0       ?erase@?$_Tree@V?$_Tmap_traits@HV?$vector@UCASTLEDEEP_SPAWNTIME@@V?$allocator@UCASTLEDEEP_SPAWNTIME@@@std@@@std@@U?$less@H@2@V?$allocator@U?$pair@$$CBHV?$vector@UCASTLEDEEP_SPAWNTIME@@V?$allocator@UCASTLEDEEP_SPAWNTIME@@@std@@@std@@@std@@@2@$0A@@std@@@std@@QAE?AV?$_Tree_iterator@V?$_Tree_val@V?$_Tmap_traits@HV?$vector@UCASTLEDEEP_SPAWNTIME@@V?$allocator@UCASTLEDEEP_SPAWNTIME@@@std@@@std@@U?$less@H@2@V?$allocator@U?$pair@$$CBHV?$vector@UCASTLEDEEP_SPAWNTIME@@V?$allocator@UCASTLEDEEP_SPAWNTIME@@@std@@@std@@@std@@@2@$0A@@std@@@std@@@2@V?$_Tree_const_iterator@V?$_Tree_val@V?$_Tmap_traits@HV?$vector@UCASTLEDEEP_SPAWNTIME@@V?$allocator@UCASTLEDEEP_SPAWNTIME@@@std@@@std@@U?$less@H@2@V?$allocator@U?$pair@$$CBHV?$vector@UCASTLEDEEP_SPAWNTIME@@V?$allocator@UCASTLEDEEP_SPAWNTIME@@@std@@@std@@@std@@@2@$0A@@std@@@std@@@2@0@Z 0041ede0 f i CastleDeepEvent.obj
 0001:0001dea0       ??$_Buynode@U?$pair@HV?$vector@UCASTLEDEEP_MONSTERINFO@@V?$allocator@UCASTLEDEEP_MONSTERINFO@@@std@@@std@@@std@@@?$_Tree_val@V?$_Tmap_traits@HV?$vector@UCASTLEDEEP_MONSTERINFO@@V?$allocator@UCASTLEDEEP_MONSTERINFO@@@std@@@std@@U?$less@H@2@V?$allocator@U?$pair@$$CBHV?$vector@UCASTLEDEEP_MONSTERINFO@@V?$allocator@UCASTLEDEEP_MONSTERINFO@@@std@@@std@@@std@@@2@$0A@@std@@@std@@QAEPAU_Node@?$_Tree_nod@V?$_Tmap_traits@HV?$vector@UCASTLEDEEP_MONSTERINFO@@V?$allocator@UCASTLEDEEP_MONSTERINFO@@@std@@@std@@U?$less@H@2@V?$allocator@U?$pair@$$CBHV?$vector@UCASTLEDEEP_MONSTERINFO@@V?$allocator@UCASTLEDEEP_MONSTERINFO@@@std@@@std@@@std@@@2@$0A@@std@@@1@$$QAU?$pair@HV?$vector@UCASTLEDEEP_MONSTERINFO@@V?$allocator@UCASTLEDEEP_MONSTERINFO@@@std@@@std@@@1@@Z 0041eea0 f i CastleDeepEvent.obj
 0001:0001dea0       ??$_Buynode@U?$pair@HV?$vector@UCASTLEDEEP_SPAWNTIME@@V?$allocator@UCASTLEDEEP_SPAWNTIME@@@std@@@std@@@std@@@?$_Tree_val@V?$_Tmap_traits@HV?$vector@UCASTLEDEEP_SPAWNTIME@@V?$allocator@UCASTLEDEEP_SPAWNTIME@@@std@@@std@@U?$less@H@2@V?$allocator@U?$pair@$$CBHV?$vector@UCASTLEDEEP_SPAWNTIME@@V?$allocator@UCASTLEDEEP_SPAWNTIME@@@std@@@std@@@std@@@2@$0A@@std@@@std@@QAEPAU_Node@?$_Tree_nod@V?$_Tmap_traits@HV?$vector@UCASTLEDEEP_SPAWNTIME@@V?$allocator@UCASTLEDEEP_SPAWNTIME@@@std@@@std@@U?$less@H@2@V?$allocator@U?$pair@$$CBHV?$vector@UCASTLEDEEP_SPAWNTIME@@V?$allocator@UCASTLEDEEP_SPAWNTIME@@@std@@@std@@@std@@@2@$0A@@std@@@1@$$QAU?$pair@HV?$vector@UCASTLEDEEP_SPAWNTIME@@V?$allocator@UCASTLEDEEP_SPAWNTIME@@@std@@@std@@@1@@Z 0041eea0 f i CastleDeepEvent.obj
 0001:0001df60       ?Load@CCastleDeepEvent@@QAEHPAD@Z 0041ef60 f   CastleDeepEvent.obj
 0001:0001e790       ??1?$map@HV?$vector@UCASTLEDEEP_SPAWNTIME@@V?$allocator@UCASTLEDEEP_SPAWNTIME@@@std@@@std@@U?$less@H@2@V?$allocator@U?$pair@$$CBHV?$vector@UCASTLEDEEP_SPAWNTIME@@V?$allocator@UCASTLEDEEP_SPAWNTIME@@@std@@@std@@@std@@@2@@std@@QAE@XZ 0041f790 f i CastleDeepEvent.obj
 0001:0001e790       ??1?$map@HV?$vector@UCASTLEDEEP_MONSTERINFO@@V?$allocator@UCASTLEDEEP_MONSTERINFO@@@std@@@std@@U?$less@H@2@V?$allocator@U?$pair@$$CBHV?$vector@UCASTLEDEEP_MONSTERINFO@@V?$allocator@UCASTLEDEEP_MONSTERINFO@@@std@@@std@@@std@@@2@@std@@QAE@XZ 0041f790 f i CastleDeepEvent.obj
 0001:0001e7f0       ??1CCastleDeepEvent@@UAE@XZ 0041f7f0 f   CastleDeepEvent.obj
 0001:0001e910       ??0CCastleDeepEvent@@QAE@XZ 0041f910 f   CastleDeepEvent.obj
 0001:0001eab0       ??_GCCastleDeepEvent@@UAEPAXI@Z 0041fab0 f i CastleDeepEvent.obj
 0001:0001eab0       ??_ECCastleDeepEvent@@UAEPAXI@Z 0041fab0 f i CastleDeepEvent.obj
 0001:0001edf0       ??1_CS_SCHEDULE_DATA@@UAE@XZ 0041fdf0 f   CastleSiege.obj
 0001:0001ee00       ?Clear@_CS_SCHEDULE_DATA@@QAEXXZ 0041fe00 f   CastleSiege.obj
 0001:0001ee20       ??1_CS_TOTAL_GUILD_DATA@@UAE@XZ 0041fe20 f   CastleSiege.obj
 0001:0001ee30       ?Clear@_CS_TOTAL_GUILD_DATA@@QAEXXZ 0041fe30 f   CastleSiege.obj
 0001:0001ee40       ??1_CS_MINIMAP_DATA@@UAE@XZ 0041fe40 f   CastleSiege.obj
 0001:0001ee50       ?Clear@_CS_MINIMAP_DATA@@QAEXXZ 0041fe50 f   CastleSiege.obj
 0001:0001ee90       ??1_CS_NPC_DATA@@UAE@XZ    0041fe90 f   CastleSiege.obj
 0001:0001eea0       ?Clear@_CS_NPC_DATA@@QAEXXZ 0041fea0 f   CastleSiege.obj
 0001:0001ef00       ?SetBaseValue@_CS_NPC_DATA@@QAEXXZ 0041ff00 f   CastleSiege.obj
 0001:0001ef40       ?ScheduleStateCompFunc@CCastleSiege@@SAEAAU_CS_SCHEDULE_DATA@@0@Z 0041ff40 f   CastleSiege.obj
 0001:0001ef60       ??0_CS_NPC_DATA@@QAE@ABU0@@Z 0041ff60 f i CastleSiege.obj
 0001:0001f040       ?DataRequest@CCastleSiege@@QAEHXZ 00420040 f   CastleSiege.obj
 0001:0001f0f0       ?SetState_IDLE_1@CCastleSiege@@QAEXH@Z 004200f0 f   CastleSiege.obj
 0001:0001f1a0       ??4_CS_SCHEDULE_DATA@@QAEAAU0@ABU0@@Z 004201a0 f i CastleSiege.obj
 0001:0001f1d0       ?GetNextDay@CCastleSiege@@QAEXPAU_SYSTEMTIME@@HHHH@Z 004201d0 f   CastleSiege.obj
 0001:0001f2a0       ?GetCastleStateTerm@CCastleSiege@@QAEHPAU_SYSTEMTIME@@0@Z 004202a0 f   CastleSiege.obj
 0001:0001f310       ?GetCurRemainSec@CCastleSiege@@QAEHXZ 00420310 f   CastleSiege.obj
 0001:0001f330       ?ClearNonDbNPC@CCastleSiege@@QAEXXZ 00420330 f   CastleSiege.obj
 0001:0001f3e0       ?ClearNonDbNPC_MidWin@CCastleSiege@@QAEXXZ 004203e0 f   CastleSiege.obj
 0001:0001f460       ?ClearAllNPC@CCastleSiege@@QAEXXZ 00420460 f   CastleSiege.obj
 0001:0001f4a0       ??4_CS_NPC_DATA@@QAEAAU0@ABU0@@Z 004204a0 f i CastleSiege.obj
 0001:0001f570       ?SendCsGateStateViewPort@CCastleSiege@@QAEXHE@Z 00420570 f   CastleSiege.obj
 0001:0001f600       ?CreateCsGateLever@CCastleSiege@@QAEHHH@Z 00420600 f   CastleSiege.obj
 0001:0001f7c0       ?LinkCsGateLever@CCastleSiege@@QAEHHH@Z 004207c0 f   CastleSiege.obj
 0001:0001f860       ?CheckLeverAlive@CCastleSiege@@QAEHH@Z 00420860 f   CastleSiege.obj
 0001:0001f8a0       ?CheckCsGateAlive@CCastleSiege@@QAEHH@Z 004208a0 f   CastleSiege.obj
 0001:0001f8e0       ?DelGemOfDefend@CCastleSiege@@QAEHHH@Z 004208e0 f   CastleSiege.obj
 0001:0001fa30       ?SetTaxRate@CCastleSiege@@QAEXHH@Z 00420a30 f   CastleSiege.obj
 0001:0001faa0       ?CheckCastleHasMoney@CCastleSiege@@QAEH_J@Z 00420aa0 f   CastleSiege.obj
 0001:0001fad0       ?SetCastleMoney@CCastleSiege@@QAEX_J@Z 00420ad0 f   CastleSiege.obj
 0001:0001faf0       ?ResetCastleTaxInfo@CCastleSiege@@QAEXXZ 00420af0 f   CastleSiege.obj
 0001:0001fb20       ?SendCastleStateSync@CCastleSiege@@QAEXXZ 00420b20 f   CastleSiege.obj
 0001:0001fb50       ?CheckGuildOwnCastle@CCastleSiege@@QAEHPAD@Z 00420b50 f   CastleSiege.obj
 0001:0001fbf0       ?SetGateBlockState@CCastleSiege@@QAEXHHH@Z 00420bf0 f   CastleSiege.obj
 0001:0001fcd0       ?RegGuildScoreCompFunc@CCastleSiege@@SAEAAU_CS_REG_GUILD_DATA@@0@Z 00420cd0 f   CastleSiege.obj
 0001:0001fd00       ?NotifySelfCsJoinSide@CCastleSiege@@QAEXH@Z 00420d00 f   CastleSiege.obj
 0001:0001fe50       ?CheckCastleOwnerMember@CCastleSiege@@QAEHH@Z 00420e50 f   CastleSiege.obj
 0001:0001ff40       ?CheckCastleOwnerUnionMember@CCastleSiege@@QAEHH@Z 00420f40 f   CastleSiege.obj
 0001:00020050       ?CheckGuardianStatueExist@CCastleSiege@@QAEHXZ 00421050 f   CastleSiege.obj
 0001:000200a0       ?CheckUnionGuildMaster@CCastleSiege@@QAEHH@Z 004210a0 f   CastleSiege.obj
 0001:00020100       ?SetCrownSwitchUserIndex@CCastleSiege@@QAEXHH@Z 00421100 f   CastleSiege.obj
 0001:00020130       ?GetCrownSwitchUserIndex@CCastleSiege@@QAEHH@Z 00421130 f   CastleSiege.obj
 0001:00020160       ?ResetCrownSwitchUserIndex@CCastleSiege@@QAEXH@Z 00421160 f   CastleSiege.obj
 0001:00020190       ?SetCrownAccessTickCount@CCastleSiege@@QAEXXZ 00421190 f   CastleSiege.obj
 0001:000201b0       ?ResetCrownAccessTickCount@CCastleSiege@@QAEXXZ 004211b0 f   CastleSiege.obj
 0001:000201c0       ?CheckTeleportMagicAxisY@CCastleSiege@@QAEHHHH@Z 004211c0 f   CastleSiege.obj
 0001:00020210       ?NotifyCsSelfLeftTime@CCastleSiege@@QAEXH@Z 00421210 f   CastleSiege.obj
 0001:00020260       ?ReSpawnEnemyUser@CCastleSiege@@QAEXH@Z 00421260 f   CastleSiege.obj
 0001:000205d0       ?NotifyAllUserCsStartState@CCastleSiege@@QAEXE@Z 004215d0 f   CastleSiege.obj
 0001:00020640       ?NotifyAllUserCsProgState@CCastleSiege@@QAEXEPAD@Z 00421640 f   CastleSiege.obj
 0001:000206e0       ?ClearCastleTowerBarrier@CCastleSiege@@QAEXXZ 004216e0 f   CastleSiege.obj
 0001:00020730       ?NotifyCrownState@CCastleSiege@@QAEXE@Z 00421730 f   CastleSiege.obj
 0001:00020830       ?NotifyCrownSwitchInfo@CCastleSiege@@QAEXH@Z 00421830 f   CastleSiege.obj
 0001:00020a00       ?SendMapServerGroupMsg@CCastleSiege@@QAEXPAD@Z 00421a00 f   CastleSiege.obj
 0001:00020a20       ?SendAllUserAnyMsg@CCastleSiege@@QAEXPADH@Z 00421a20 f   CastleSiege.obj
 0001:00020b10       ?_Max@?$_Tree_val@V?$_Tmap_traits@V?$basic_string@DU?$char_traits@D@std@@V?$allocator@D@2@@std@@U_CS_TOTAL_GUILD_DATA@@U?$less@V?$basic_string@DU?$char_traits@D@std@@V?$allocator@D@2@@std@@@2@V?$allocator@U?$pair@$$CBV?$basic_string@DU?$char_traits@D@std@@V?$allocator@D@2@@std@@U_CS_TOTAL_GUILD_DATA@@@std@@@2@$0A@@std@@@std@@SAPAU_Node@?$_Tree_nod@V?$_Tmap_traits@V?$basic_string@DU?$char_traits@D@std@@V?$allocator@D@2@@std@@U_CS_TOTAL_GUILD_DATA@@U?$less@V?$basic_string@DU?$char_traits@D@std@@V?$allocator@D@2@@std@@@2@V?$allocator@U?$pair@$$CBV?$basic_string@DU?$char_traits@D@std@@V?$allocator@D@2@@std@@U_CS_TOTAL_GUILD_DATA@@@std@@@2@$0A@@std@@@2@PAU342@@Z 00421b10 f i CastleSiege.obj
 0001:00020b30       ?_Min@?$_Tree_val@V?$_Tmap_traits@V?$basic_string@DU?$char_traits@D@std@@V?$allocator@D@2@@std@@U_CS_TOTAL_GUILD_DATA@@U?$less@V?$basic_string@DU?$char_traits@D@std@@V?$allocator@D@2@@std@@@2@V?$allocator@U?$pair@$$CBV?$basic_string@DU?$char_traits@D@std@@V?$allocator@D@2@@std@@U_CS_TOTAL_GUILD_DATA@@@std@@@2@$0A@@std@@@std@@SAPAU_Node@?$_Tree_nod@V?$_Tmap_traits@V?$basic_string@DU?$char_traits@D@std@@V?$allocator@D@2@@std@@U_CS_TOTAL_GUILD_DATA@@U?$less@V?$basic_string@DU?$char_traits@D@std@@V?$allocator@D@2@@std@@@2@V?$allocator@U?$pair@$$CBV?$basic_string@DU?$char_traits@D@std@@V?$allocator@D@2@@std@@U_CS_TOTAL_GUILD_DATA@@@std@@@2@$0A@@std@@@2@PAU342@@Z 00421b30 f i CastleSiege.obj
 0001:00020b50       ?_Max@?$_Tree_val@V?$_Tmap_traits@HU_CS_MINIMAP_DATA@@U?$less@H@std@@V?$allocator@U?$pair@$$CBHU_CS_MINIMAP_DATA@@@std@@@3@$0A@@std@@@std@@SAPAU_Node@?$_Tree_nod@V?$_Tmap_traits@HU_CS_MINIMAP_DATA@@U?$less@H@std@@V?$allocator@U?$pair@$$CBHU_CS_MINIMAP_DATA@@@std@@@3@$0A@@std@@@2@PAU342@@Z 00421b50 f i CastleSiege.obj
 0001:00020b80       ?_Min@?$_Tree_val@V?$_Tmap_traits@HU_CS_MINIMAP_DATA@@U?$less@H@std@@V?$allocator@U?$pair@$$CBHU_CS_MINIMAP_DATA@@@std@@@3@$0A@@std@@@std@@SAPAU_Node@?$_Tree_nod@V?$_Tmap_traits@HU_CS_MINIMAP_DATA@@U?$less@H@std@@V?$allocator@U?$pair@$$CBHU_CS_MINIMAP_DATA@@@std@@@3@$0A@@std@@@2@PAU342@@Z 00421b80 f i CastleSiege.obj
 0001:00020ba0       ??F?$_Tree_unchecked_const_iterator@V?$_Tree_val@V?$_Tmap_traits@V?$basic_string@DU?$char_traits@D@std@@V?$allocator@D@2@@std@@U_CS_TOTAL_GUILD_DATA@@U?$less@V?$basic_string@DU?$char_traits@D@std@@V?$allocator@D@2@@std@@@2@V?$allocator@U?$pair@$$CBV?$basic_string@DU?$char_traits@D@std@@V?$allocator@D@2@@std@@U_CS_TOTAL_GUILD_DATA@@@std@@@2@$0A@@std@@@std@@U_Iterator_base0@2@@std@@QAEAAV01@XZ 00421ba0 f i CastleSiege.obj
 0001:00020c00       ??F?$_Tree_unchecked_const_iterator@V?$_Tree_val@V?$_Tmap_traits@HU_CS_MINIMAP_DATA@@U?$less@H@std@@V?$allocator@U?$pair@$$CBHU_CS_MINIMAP_DATA@@@std@@@3@$0A@@std@@@std@@U_Iterator_base0@2@@std@@QAEAAV01@XZ 00421c00 f i CastleSiege.obj
 0001:00020c80       ??$_Push_heap@PAU_CS_SCHEDULE_DATA@@HU1@P6AEAAU1@0@Z@std@@YAXPAU_CS_SCHEDULE_DATA@@HH$$QAU1@P6AEAAU1@2@Z@Z 00421c80 f i CastleSiege.obj
 0001:00020d40       ??$_Move_backward@PAU_CS_SCHEDULE_DATA@@PAU1@@std@@YAPAU_CS_SCHEDULE_DATA@@PAU1@00U_Nonscalar_ptr_iterator_tag@0@@Z 00421d40 f i CastleSiege.obj
 0001:00020d90       ?compare@?$char_traits@D@std@@SAHPBD0I@Z 00421d90 f i CastleSiege.obj
 0001:00020e10       ??0_CS_SCHEDULE_DATA@@QAE@XZ 00421e10 f   CastleSiege.obj
 0001:00020e20       ??_G_CS_SCHEDULE_DATA@@UAEPAXI@Z 00421e20 f i CastleSiege.obj
 0001:00020e20       ??_E_CS_SCHEDULE_DATA@@UAEPAXI@Z 00421e20 f i CastleSiege.obj
 0001:00020e50       ??0_CS_TOTAL_GUILD_DATA@@QAE@XZ 00421e50 f   CastleSiege.obj
 0001:00020e60       ??_E_CS_TOTAL_GUILD_DATA@@UAEPAXI@Z 00421e60 f i CastleSiege.obj
 0001:00020e60       ??_G_CS_TOTAL_GUILD_DATA@@UAEPAXI@Z 00421e60 f i CastleSiege.obj
 0001:00020e90       ??0_CS_MINIMAP_DATA@@QAE@XZ 00421e90 f   CastleSiege.obj
 0001:00020eb0       ??_E_CS_MINIMAP_DATA@@UAEPAXI@Z 00421eb0 f i CastleSiege.obj
 0001:00020eb0       ??_G_CS_MINIMAP_DATA@@UAEPAXI@Z 00421eb0 f i CastleSiege.obj
 0001:00020ee0       ??0_CS_NPC_DATA@@QAE@XZ    00421ee0 f   CastleSiege.obj
 0001:00020f00       ??_E_CS_NPC_DATA@@UAEPAXI@Z 00421f00 f i CastleSiege.obj
 0001:00020f00       ??_G_CS_NPC_DATA@@UAEPAXI@Z 00421f00 f i CastleSiege.obj
 0001:00020f30       ?LoadPreFixData@CCastleSiege@@QAEHPAD@Z 00421f30 f   CastleSiege.obj
 0001:00021340       ?SetState_ENDCYCLE@CCastleSiege@@QAEXH@Z 00422340 f   CastleSiege.obj
 0001:00021510       ?ResetAllUserCsJoinSide@CCastleSiege@@QAEXXZ 00422510 f   CastleSiege.obj
 0001:000215a0       ?CheckAttackGuildExist@CCastleSiege@@QAEHXZ 004225a0 f   CastleSiege.obj
 0001:000215d0       ?CheckCastleSiegeResult@CCastleSiege@@QAEHXZ 004225d0 f   CastleSiege.obj
 0001:00021840       ??1?$pair@HU_CS_MINIMAP_DATA@@@std@@QAE@XZ 00422840 f i CastleSiege.obj
 0001:00021850       ??E?$_Tree_unchecked_const_iterator@V?$_Tree_val@V?$_Tmap_traits@V?$basic_string@DU?$char_traits@D@std@@V?$allocator@D@2@@std@@U_CS_TOTAL_GUILD_DATA@@U?$less@V?$basic_string@DU?$char_traits@D@std@@V?$allocator@D@2@@std@@@2@V?$allocator@U?$pair@$$CBV?$basic_string@DU?$char_traits@D@std@@V?$allocator@D@2@@std@@U_CS_TOTAL_GUILD_DATA@@@std@@@2@$0A@@std@@@std@@U_Iterator_base0@2@@std@@QAEAAV01@XZ 00422850 f i CastleSiege.obj
 0001:000218a0       ??E?$_Tree_unchecked_const_iterator@V?$_Tree_val@V?$_Tmap_traits@HU_CS_MINIMAP_DATA@@U?$less@H@std@@V?$allocator@U?$pair@$$CBHU_CS_MINIMAP_DATA@@@std@@@3@$0A@@std@@@std@@U_Iterator_base0@2@@std@@QAEAAV01@XZ 004228a0 f i CastleSiege.obj
 0001:00021900       ?_Lrotate@?$_Tree@V?$_Tmap_traits@V?$basic_string@DU?$char_traits@D@std@@V?$allocator@D@2@@std@@U_CS_TOTAL_GUILD_DATA@@U?$less@V?$basic_string@DU?$char_traits@D@std@@V?$allocator@D@2@@std@@@2@V?$allocator@U?$pair@$$CBV?$basic_string@DU?$char_traits@D@std@@V?$allocator@D@2@@std@@U_CS_TOTAL_GUILD_DATA@@@std@@@2@$0A@@std@@@std@@IAEXPAU_Node@?$_Tree_nod@V?$_Tmap_traits@V?$basic_string@DU?$char_traits@D@std@@V?$allocator@D@2@@std@@U_CS_TOTAL_GUILD_DATA@@U?$less@V?$basic_string@DU?$char_traits@D@std@@V?$allocator@D@2@@std@@@2@V?$allocator@U?$pair@$$CBV?$basic_string@DU?$char_traits@D@std@@V?$allocator@D@2@@std@@U_CS_TOTAL_GUILD_DATA@@@std@@@2@$0A@@std@@@2@@Z 00422900 f i CastleSiege.obj
 0001:00021960       ?_Rrotate@?$_Tree@V?$_Tmap_traits@V?$basic_string@DU?$char_traits@D@std@@V?$allocator@D@2@@std@@U_CS_TOTAL_GUILD_DATA@@U?$less@V?$basic_string@DU?$char_traits@D@std@@V?$allocator@D@2@@std@@@2@V?$allocator@U?$pair@$$CBV?$basic_string@DU?$char_traits@D@std@@V?$allocator@D@2@@std@@U_CS_TOTAL_GUILD_DATA@@@std@@@2@$0A@@std@@@std@@IAEXPAU_Node@?$_Tree_nod@V?$_Tmap_traits@V?$basic_string@DU?$char_traits@D@std@@V?$allocator@D@2@@std@@U_CS_TOTAL_GUILD_DATA@@U?$less@V?$basic_string@DU?$char_traits@D@std@@V?$allocator@D@2@@std@@@2@V?$allocator@U?$pair@$$CBV?$basic_string@DU?$char_traits@D@std@@V?$allocator@D@2@@std@@U_CS_TOTAL_GUILD_DATA@@@std@@@2@$0A@@std@@@2@@Z 00422960 f i CastleSiege.obj
 0001:000219c0       ?_Lrotate@?$_Tree@V?$_Tmap_traits@HU_CS_MINIMAP_DATA@@U?$less@H@std@@V?$allocator@U?$pair@$$CBHU_CS_MINIMAP_DATA@@@std@@@3@$0A@@std@@@std@@IAEXPAU_Node@?$_Tree_nod@V?$_Tmap_traits@HU_CS_MINIMAP_DATA@@U?$less@H@std@@V?$allocator@U?$pair@$$CBHU_CS_MINIMAP_DATA@@@std@@@3@$0A@@std@@@2@@Z 004229c0 f i CastleSiege.obj
 0001:00021a20       ?_Rrotate@?$_Tree@V?$_Tmap_traits@HU_CS_MINIMAP_DATA@@U?$less@H@std@@V?$allocator@U?$pair@$$CBHU_CS_MINIMAP_DATA@@@std@@@3@$0A@@std@@@std@@IAEXPAU_Node@?$_Tree_nod@V?$_Tmap_traits@HU_CS_MINIMAP_DATA@@U?$less@H@std@@V?$allocator@U?$pair@$$CBHU_CS_MINIMAP_DATA@@@std@@@3@$0A@@std@@@2@@Z 00422a20 f i CastleSiege.obj
 0001:00021a80       ??$_Cons_val@V?$allocator@U_CS_SCHEDULE_DATA@@@std@@U_CS_SCHEDULE_DATA@@AAU3@@std@@YAXAAV?$allocator@U_CS_SCHEDULE_DATA@@@0@PAU_CS_SCHEDULE_DATA@@AAU2@@Z 00422a80 f i CastleSiege.obj
 0001:00021a80       ??$_Cons_val@V?$allocator@U_CS_SCHEDULE_DATA@@@std@@U_CS_SCHEDULE_DATA@@ABU3@@std@@YAXAAV?$allocator@U_CS_SCHEDULE_DATA@@@0@PAU_CS_SCHEDULE_DATA@@ABU2@@Z 00422a80 f i CastleSiege.obj
 0001:00021a80       ??$_Cons_val@V?$allocator@U_CS_SCHEDULE_DATA@@@std@@U_CS_SCHEDULE_DATA@@U3@@std@@YAXAAV?$allocator@U_CS_SCHEDULE_DATA@@@0@PAU_CS_SCHEDULE_DATA@@$$QAU2@@Z 00422a80 f i CastleSiege.obj
 0001:00021ac0       ??$_Cons_val@V?$allocator@U_CS_NPC_DATA@@@std@@U_CS_NPC_DATA@@U3@@std@@YAXAAV?$allocator@U_CS_NPC_DATA@@@0@PAU_CS_NPC_DATA@@$$QAU2@@Z 00422ac0 f i CastleSiege.obj
 0001:00021ac0       ??$_Cons_val@V?$allocator@U_CS_NPC_DATA@@@std@@U_CS_NPC_DATA@@AAU3@@std@@YAXAAV?$allocator@U_CS_NPC_DATA@@@0@PAU_CS_NPC_DATA@@AAU2@@Z 00422ac0 f i CastleSiege.obj
 0001:00021ac0       ??$_Cons_val@V?$allocator@U_CS_NPC_DATA@@@std@@U_CS_NPC_DATA@@ABU3@@std@@YAXAAV?$allocator@U_CS_NPC_DATA@@@0@PAU_CS_NPC_DATA@@ABU2@@Z 00422ac0 f i CastleSiege.obj
 0001:00021ae0       ??$_Move@PAU_CS_SCHEDULE_DATA@@PAU1@@std@@YAPAU_CS_SCHEDULE_DATA@@PAU1@00U_Nonscalar_ptr_iterator_tag@0@@Z 00422ae0 f i CastleSiege.obj
 0001:00021b30       ??$_Move@PAU_CS_NPC_DATA@@PAU1@@std@@YAPAU_CS_NPC_DATA@@PAU1@00U_Nonscalar_ptr_iterator_tag@0@@Z 00422b30 f i CastleSiege.obj
 0001:00021c30       ??$_Adjust_heap@PAU_CS_SCHEDULE_DATA@@HU1@P6AEAAU1@0@Z@std@@YAXPAU_CS_SCHEDULE_DATA@@HH$$QAU1@P6AEAAU1@2@Z@Z 00422c30 f i CastleSiege.obj
 0001:00021d20       ?compare@?$basic_string@DU?$char_traits@D@std@@V?$allocator@D@2@@std@@QBEHIIPBDI@Z 00422d20 f i CastleSiege.obj
 0001:00021d90       ?SetState_ENDSIEGE@CCastleSiege@@QAEXH@Z 00422d90 f   CastleSiege.obj
 0001:00021e70       ?allocate@?$allocator@U_CS_SCHEDULE_DATA@@@std@@QAEPAU_CS_SCHEDULE_DATA@@I@Z 00422e70 f i CastleSiege.obj
 0001:00021e70       ?allocate@?$allocator@UCASTLEDEEP_MONSTERINFO@@@std@@QAEPAUCASTLEDEEP_MONSTERINFO@@I@Z 00422e70 f i CastleDeepEvent.obj
 0001:00021ed0       ?allocate@?$allocator@U_CS_NPC_DATA@@@std@@QAEPAU_CS_NPC_DATA@@I@Z 00422ed0 f i CastleSiege.obj
 0001:00021f30       ?allocate@?$allocator@U_CS_REG_GUILD_DATA@@@std@@QAEPAU_CS_REG_GUILD_DATA@@I@Z 00422f30 f i CastleSiege.obj
 0001:00021f90       ??$_Dest_val@V?$allocator@U_CS_SCHEDULE_DATA@@@std@@U_CS_SCHEDULE_DATA@@@std@@YAXAAV?$allocator@U_CS_SCHEDULE_DATA@@@0@PAU_CS_SCHEDULE_DATA@@@Z 00422f90 f i CastleSiege.obj
 0001:00021f90       ??$_Dest_val@V?$allocator@U_CS_REG_GUILD_DATA@@@std@@U_CS_REG_GUILD_DATA@@@std@@YAXAAV?$allocator@U_CS_REG_GUILD_DATA@@@0@PAU_CS_REG_GUILD_DATA@@@Z 00422f90 f i CastleSiege.obj
 0001:00021f90       ??$_Dest_val@V?$allocator@U_CS_NPC_DATA@@@std@@U_CS_NPC_DATA@@@std@@YAXAAV?$allocator@U_CS_NPC_DATA@@@0@PAU_CS_NPC_DATA@@@Z 00422f90 f i CastleSiege.obj
 0001:00021fa0       ??$_Make_heap@PAU_CS_SCHEDULE_DATA@@HU1@P6AEAAU1@0@Z@std@@YAXPAU_CS_SCHEDULE_DATA@@0P6AEAAU1@1@ZPAH0@Z 00422fa0 f i CastleSiege.obj
 0001:00022070       ??$_Insertion_sort1@PAU_CS_SCHEDULE_DATA@@P6AEAAU1@0@ZU1@@std@@YAXPAU_CS_SCHEDULE_DATA@@0P6AEAAU1@1@Z0@Z 00423070 f i CastleSiege.obj
 0001:000221d0       ??$_Med3@PAU_CS_SCHEDULE_DATA@@P6AEAAU1@0@Z@std@@YAXPAU_CS_SCHEDULE_DATA@@00P6AEAAU1@1@Z@Z 004231d0 f i CastleSiege.obj
 0001:00022330       ??$_Pop_heap_0@PAU_CS_SCHEDULE_DATA@@U1@P6AEAAU1@0@Z@std@@YAXPAU_CS_SCHEDULE_DATA@@0P6AEAAU1@1@Z0@Z 00423330 f i CastleSiege.obj
 0001:000223f0       ??$_Cons_val@V?$allocator@U?$pair@$$CBHU_CS_MINIMAP_DATA@@@std@@@std@@U?$pair@$$CBHU_CS_MINIMAP_DATA@@@2@U?$pair@HU_CS_MINIMAP_DATA@@@2@@std@@YAXAAV?$allocator@U?$pair@$$CBHU_CS_MINIMAP_DATA@@@std@@@0@PAU?$pair@$$CBHU_CS_MINIMAP_DATA@@@0@$$QAU?$pair@HU_CS_MINIMAP_DATA@@@0@@Z 004233f0 f i CastleSiege.obj
 0001:00022440       ??$_Uninit_move@PAU_CS_SCHEDULE_DATA@@PAU1@V?$allocator@U_CS_SCHEDULE_DATA@@@std@@U1@@std@@YAPAU_CS_SCHEDULE_DATA@@PAU1@00AAV?$allocator@U_CS_SCHEDULE_DATA@@@0@0U_Nonscalar_ptr_iterator_tag@0@@Z 00423440 f i CastleSiege.obj
 0001:00022480       ??$_Uninit_move@PAU_CS_NPC_DATA@@PAU1@V?$allocator@U_CS_NPC_DATA@@@std@@U1@@std@@YAPAU_CS_NPC_DATA@@PAU1@00AAV?$allocator@U_CS_NPC_DATA@@@0@0U_Nonscalar_ptr_iterator_tag@0@@Z 00423480 f i CastleSiege.obj
 0001:000224c0       ??$_Median@PAU_CS_SCHEDULE_DATA@@P6AEAAU1@0@Z@std@@YAXPAU_CS_SCHEDULE_DATA@@00P6AEAAU1@1@Z@Z 004234c0 f i CastleSiege.obj
 0001:00022580       ??1_CS_REG_GUILD_DATA@@UAE@XZ 00423580 f   CastleSiege.obj
 0001:000225b0       ?FirstCreateDbNPC@CCastleSiege@@QAEHXZ 004235b0 f   CastleSiege.obj
 0001:00022730       ?GetStateDate@CCastleSiege@@QAEXHPAU_SYSTEMTIME@@@Z 00423730 f   CastleSiege.obj
 0001:000227c0       ?GetStateGapSec@CCastleSiege@@QAEHH@Z 004237c0 f   CastleSiege.obj
 0001:00022820       ?CalcCastleLeftSiegeDate@CCastleSiege@@QAEHXZ 00423820 f   CastleSiege.obj
 0001:000229b0       ?CreateDbNPC@CCastleSiege@@QAEXXZ 004239b0 f   CastleSiege.obj
 0001:00022dd0       ?CheckAddDbNPC@CCastleSiege@@QAEHHHHAAE@Z 00423dd0 f   CastleSiege.obj
 0001:00022f60       ?AddDbNPC@CCastleSiege@@QAEHHH@Z 00423f60 f   CastleSiege.obj
 0001:00023420       ?DelNPC@CCastleSiege@@QAEHHHHH@Z 00424420 f   CastleSiege.obj
 0001:00023650       ?RepairDbNPC@CCastleSiege@@QAEHHHHH@Z 00424650 f   CastleSiege.obj
 0001:00023770       ?UpgradeDbNPC_DFLEVEL@CCastleSiege@@QAEHHHH@Z 00424770 f   CastleSiege.obj
 0001:000238b0       ?UpgradeDbNPC_RGLEVEL@CCastleSiege@@QAEHHHH@Z 004248b0 f   CastleSiege.obj
 0001:000239d0       ?UpgradeDbNPC_MAXHP@CCastleSiege@@QAEHHHH@Z 004249d0 f   CastleSiege.obj
 0001:00023b00       ?StoreDbNpc@CCastleSiege@@QAEXXZ 00424b00 f   CastleSiege.obj
 0001:00023d90       ?SendNpcStateList@CCastleSiege@@QAEXHH@Z 00424d90 f   CastleSiege.obj
 0001:00023fe0       ?GetNpcData@CCastleSiege@@QAEHHHAAU_CS_NPC_DATA@@@Z 00424fe0 f   CastleSiege.obj
 0001:000240f0       ?AdjustDbNpcLevel@CCastleSiege@@QAEXXZ 004250f0 f   CastleSiege.obj
 0001:00024270       ?CreateAllCsGateLever@CCastleSiege@@QAEXXZ 00425270 f   CastleSiege.obj
 0001:00024360       ?CheckCsDbNpcAlive@CCastleSiege@@QAEXXZ 00425360 f   CastleSiege.obj
 0001:00024550       ?OperateGate@CCastleSiege@@QAEHHHH@Z 00425550 f   CastleSiege.obj
 0001:000246a0       ?CheckReviveNonDbNPC@CCastleSiege@@QAEXXZ 004256a0 f   CastleSiege.obj
 0001:00024940       ?SetAllCastleGateState@CCastleSiege@@QAEXH@Z 00425940 f   CastleSiege.obj
 0001:00024a90       ??R?$less@V?$basic_string@DU?$char_traits@D@std@@V?$allocator@D@2@@std@@@std@@QBE_NABV?$basic_string@DU?$char_traits@D@std@@V?$allocator@D@2@@1@0@Z 00425a90 f i CastleSiege.obj
 0001:00024ac0       ?_Lbound@?$_Tree@V?$_Tmap_traits@V?$basic_string@DU?$char_traits@D@std@@V?$allocator@D@2@@std@@U_CS_TOTAL_GUILD_DATA@@U?$less@V?$basic_string@DU?$char_traits@D@std@@V?$allocator@D@2@@std@@@2@V?$allocator@U?$pair@$$CBV?$basic_string@DU?$char_traits@D@std@@V?$allocator@D@2@@std@@U_CS_TOTAL_GUILD_DATA@@@std@@@2@$0A@@std@@@std@@IAEPAU_Node@?$_Tree_nod@V?$_Tmap_traits@V?$basic_string@DU?$char_traits@D@std@@V?$allocator@D@2@@std@@U_CS_TOTAL_GUILD_DATA@@U?$less@V?$basic_string@DU?$char_traits@D@std@@V?$allocator@D@2@@std@@@2@V?$allocator@U?$pair@$$CBV?$basic_string@DU?$char_traits@D@std@@V?$allocator@D@2@@std@@U_CS_TOTAL_GUILD_DATA@@@std@@@2@$0A@@std@@@2@ABV?$basic_string@DU?$char_traits@D@std@@V?$allocator@D@2@@2@@Z 00425ac0 f i CastleSiege.obj
 0001:00024b50       ??$_Buynode@U?$pair@HU_CS_MINIMAP_DATA@@@std@@@?$_Tree_val@V?$_Tmap_traits@HU_CS_MINIMAP_DATA@@U?$less@H@std@@V?$allocator@U?$pair@$$CBHU_CS_MINIMAP_DATA@@@std@@@3@$0A@@std@@@std@@QAEPAU_Node@?$_Tree_nod@V?$_Tmap_traits@HU_CS_MINIMAP_DATA@@U?$less@H@std@@V?$allocator@U?$pair@$$CBHU_CS_MINIMAP_DATA@@@std@@@3@$0A@@std@@@1@$$QAU?$pair@HU_CS_MINIMAP_DATA@@@1@@Z 00425b50 f i CastleSiege.obj
 0001:00024bd0       ??$_Unguarded_partition@PAU_CS_SCHEDULE_DATA@@P6AEAAU1@0@Z@std@@YA?AU?$pair@PAU_CS_SCHEDULE_DATA@@PAU1@@0@PAU_CS_SCHEDULE_DATA@@0P6AEAAU2@1@Z@Z 00425bd0 f i CastleSiege.obj
 0001:00025100       ??$_Sort_heap@PAU_CS_SCHEDULE_DATA@@P6AEAAU1@0@Z@std@@YAXPAU_CS_SCHEDULE_DATA@@0P6AEAAU1@1@Z@Z 00426100 f i CastleSiege.obj
 0001:00025160       ??_E_CS_REG_GUILD_DATA@@UAEPAXI@Z 00426160 f i CastleSiege.obj
 0001:00025160       ??_G_CS_REG_GUILD_DATA@@UAEPAXI@Z 00426160 f i CastleSiege.obj
 0001:00025190       ?SetState_REGSIEGE@CCastleSiege@@QAEXH@Z 00426190 f   CastleSiege.obj
 0001:000251f0       ?SetState_IDLE_2@CCastleSiege@@QAEXH@Z 004261f0 f   CastleSiege.obj
 0001:00025240       ?SetState_REGMARK@CCastleSiege@@QAEXH@Z 00426240 f   CastleSiege.obj
 0001:00025290       ?SetState_IDLE_3@CCastleSiege@@QAEXH@Z 00426290 f   CastleSiege.obj
 0001:000252e0       ?SetCastleInitData@CCastleSiege@@QAEHPAUCSP_ANS_CSINITDATA@@@Z 004262e0 f   CastleSiege.obj
 0001:00025540       ?PayForUpgradeDbNpc@CCastleSiege@@QAEHHHHHHH@Z 00426540 f   CastleSiege.obj
 0001:000259d0       ?UpgradeDbNPC@CCastleSiege@@QAEHHHHHHH@Z 004269d0 f   CastleSiege.obj
 0001:00025b60       ??1?$pair@V?$basic_string@DU?$char_traits@D@std@@V?$allocator@D@2@@std@@U_CS_TOTAL_GUILD_DATA@@@std@@QAE@XZ 00426b60 f i CastleSiege.obj
 0001:00025b90       ?GetCsAttkGuildList@CCastleSiege@@QAEHPAUPMSG_CSATTKGUILDLIST@@AAH@Z 00426b90 f   CastleSiege.obj
 0001:00025ca0       ?DelMiniMapDataReqUser@CCastleSiege@@QAEXH@Z 00426ca0 f   CastleSiege.obj
 0001:00025d10       ?find@?$_Tree@V?$_Tmap_traits@IHU?$less@I@std@@V?$allocator@U?$pair@$$CBIH@std@@@2@$0A@@std@@@std@@QAE?AV?$_Tree_iterator@V?$_Tree_val@V?$_Tmap_traits@IHU?$less@I@std@@V?$allocator@U?$pair@$$CBIH@std@@@2@$0A@@std@@@std@@@2@ABI@Z 00426d10 f i CastleSiege.obj
 0001:00025d10       ?find@?$_Tree@V?$_Tmap_traits@KPAVQuestExpRewardKind@@U?$less@K@std@@V?$allocator@U?$pair@$$CBKPAVQuestExpRewardKind@@@std@@@3@$0A@@std@@@std@@QAE?AV?$_Tree_iterator@V?$_Tree_val@V?$_Tmap_traits@KPAVQuestExpRewardKind@@U?$less@K@std@@V?$allocator@U?$pair@$$CBKPAVQuestExpRewardKind@@@std@@@3@$0A@@std@@@std@@@2@ABK@Z 00426d10 f i QuestExpInfo.obj
 0001:00025d80       ?_Destroy@?$vector@U_CS_SCHEDULE_DATA@@V?$allocator@U_CS_SCHEDULE_DATA@@@std@@@std@@IAEXPAU_CS_SCHEDULE_DATA@@0@Z 00426d80 f i CastleSiege.obj
 0001:00025db0       ?_Destroy@?$vector@U_CS_NPC_DATA@@V?$allocator@U_CS_NPC_DATA@@@std@@@std@@IAEXPAU_CS_NPC_DATA@@0@Z 00426db0 f i CastleSiege.obj
 0001:00025de0       ?_Destroy@?$vector@U_CS_REG_GUILD_DATA@@V?$allocator@U_CS_REG_GUILD_DATA@@@std@@@std@@IAEXPAU_CS_REG_GUILD_DATA@@0@Z 00426de0 f i CastleSiege.obj
 0001:00025e10       ??$_Dest_val@V?$allocator@U?$pair@$$CBHU_CS_MINIMAP_DATA@@@std@@@std@@U?$pair@$$CBHU_CS_MINIMAP_DATA@@@2@@std@@YAXAAV?$allocator@U?$pair@$$CBHU_CS_MINIMAP_DATA@@@std@@@0@PAU?$pair@$$CBHU_CS_MINIMAP_DATA@@@0@@Z 00426e10 f i CastleSiege.obj
 0001:00025e20       ?_Insert@?$_Tree@V?$_Tmap_traits@HU_CS_MINIMAP_DATA@@U?$less@H@std@@V?$allocator@U?$pair@$$CBHU_CS_MINIMAP_DATA@@@std@@@3@$0A@@std@@@std@@IAE?AV?$_Tree_iterator@V?$_Tree_val@V?$_Tmap_traits@HU_CS_MINIMAP_DATA@@U?$less@H@std@@V?$allocator@U?$pair@$$CBHU_CS_MINIMAP_DATA@@@std@@@3@$0A@@std@@@std@@@2@_NPAU_Node@?$_Tree_nod@V?$_Tmap_traits@HU_CS_MINIMAP_DATA@@U?$less@H@std@@V?$allocator@U?$pair@$$CBHU_CS_MINIMAP_DATA@@@std@@@3@$0A@@std@@@2@1@Z 00426e20 f i CastleSiege.obj
 0001:00026040       ??0_CS_REG_GUILD_DATA@@QAE@ABU0@@Z 00427040 f i CastleSiege.obj
 0001:000260b0       ?SaveCsTotalGuildInfo@CCastleSiege@@QAEXXZ 004270b0 f   CastleSiege.obj
 0001:000263d0       ?AddMiniMapDataReqUser@CCastleSiege@@QAEXH@Z 004273d0 f   CastleSiege.obj
 0001:00026430       ?find@?$_Tree@V?$_Tmap_traits@V?$basic_string@DU?$char_traits@D@std@@V?$allocator@D@2@@std@@U_CS_TOTAL_GUILD_DATA@@U?$less@V?$basic_string@DU?$char_traits@D@std@@V?$allocator@D@2@@std@@@2@V?$allocator@U?$pair@$$CBV?$basic_string@DU?$char_traits@D@std@@V?$allocator@D@2@@std@@U_CS_TOTAL_GUILD_DATA@@@std@@@2@$0A@@std@@@std@@QAE?AV?$_Tree_iterator@V?$_Tree_val@V?$_Tmap_traits@V?$basic_string@DU?$char_traits@D@std@@V?$allocator@D@2@@std@@U_CS_TOTAL_GUILD_DATA@@U?$less@V?$basic_string@DU?$char_traits@D@std@@V?$allocator@D@2@@std@@@2@V?$allocator@U?$pair@$$CBV?$basic_string@DU?$char_traits@D@std@@V?$allocator@D@2@@std@@U_CS_TOTAL_GUILD_DATA@@@std@@@2@$0A@@std@@@std@@@2@ABV?$basic_string@DU?$char_traits@D@std@@V?$allocator@D@2@@2@@Z 00427430 f i CastleSiege.obj
 0001:000264a0       ?erase@?$vector@U_CS_SCHEDULE_DATA@@V?$allocator@U_CS_SCHEDULE_DATA@@@std@@@std@@QAE?AV?$_Vector_iterator@V?$_Vector_val@U_CS_SCHEDULE_DATA@@V?$allocator@U_CS_SCHEDULE_DATA@@@std@@@std@@@2@V?$_Vector_const_iterator@V?$_Vector_val@U_CS_SCHEDULE_DATA@@V?$allocator@U_CS_SCHEDULE_DATA@@@std@@@std@@@2@0@Z 004274a0 f i CastleSiege.obj
 0001:00026510       ?erase@?$vector@U_CS_NPC_DATA@@V?$allocator@U_CS_NPC_DATA@@@std@@@std@@QAE?AV?$_Vector_iterator@V?$_Vector_val@U_CS_NPC_DATA@@V?$allocator@U_CS_NPC_DATA@@@std@@@std@@@2@V?$_Vector_const_iterator@V?$_Vector_val@U_CS_NPC_DATA@@V?$allocator@U_CS_NPC_DATA@@@std@@@std@@@2@0@Z 00427510 f i CastleSiege.obj
 0001:00026580       ?_Erase@?$_Tree@V?$_Tmap_traits@HU_CS_MINIMAP_DATA@@U?$less@H@std@@V?$allocator@U?$pair@$$CBHU_CS_MINIMAP_DATA@@@std@@@3@$0A@@std@@@std@@IAEXPAU_Node@?$_Tree_nod@V?$_Tmap_traits@HU_CS_MINIMAP_DATA@@U?$less@H@std@@V?$allocator@U?$pair@$$CBHU_CS_MINIMAP_DATA@@@std@@@3@$0A@@std@@@2@@Z 00427580 f i CastleSiege.obj
 0001:000265d0       ?reserve@?$vector@U_CS_SCHEDULE_DATA@@V?$allocator@U_CS_SCHEDULE_DATA@@@std@@@std@@QAEXI@Z 004275d0 f i CastleSiege.obj
 0001:000266f0       ?reserve@?$vector@U_CS_NPC_DATA@@V?$allocator@U_CS_NPC_DATA@@@std@@@std@@QAEXI@Z 004276f0 f i CastleSiege.obj
 0001:00026800       ?erase@?$_Tree@V?$_Tmap_traits@HU_CS_MINIMAP_DATA@@U?$less@H@std@@V?$allocator@U?$pair@$$CBHU_CS_MINIMAP_DATA@@@std@@@3@$0A@@std@@@std@@QAE?AV?$_Tree_iterator@V?$_Tree_val@V?$_Tmap_traits@HU_CS_MINIMAP_DATA@@U?$less@H@std@@V?$allocator@U?$pair@$$CBHU_CS_MINIMAP_DATA@@@std@@@3@$0A@@std@@@std@@@2@V?$_Tree_const_iterator@V?$_Tree_val@V?$_Tmap_traits@HU_CS_MINIMAP_DATA@@U?$less@H@std@@V?$allocator@U?$pair@$$CBHU_CS_MINIMAP_DATA@@@std@@@3@$0A@@std@@@std@@@2@@Z 00427800 f i CastleSiege.obj
 0001:00026af0       ?_Linsert@?$_Tree@V?$_Tmap_traits@HU_CS_MINIMAP_DATA@@U?$less@H@std@@V?$allocator@U?$pair@$$CBHU_CS_MINIMAP_DATA@@@std@@@3@$0A@@std@@@std@@QAE?AU?$pair@V?$_Tree_iterator@V?$_Tree_val@V?$_Tmap_traits@HU_CS_MINIMAP_DATA@@U?$less@H@std@@V?$allocator@U?$pair@$$CBHU_CS_MINIMAP_DATA@@@std@@@3@$0A@@std@@@std@@@std@@_N@2@PAU_Node@?$_Tree_nod@V?$_Tmap_traits@HU_CS_MINIMAP_DATA@@U?$less@H@std@@V?$allocator@U?$pair@$$CBHU_CS_MINIMAP_DATA@@@std@@@3@$0A@@std@@@2@_N@Z 00427af0 f i CastleSiege.obj
 0001:00026be0       ??$_Sort@PAU_CS_SCHEDULE_DATA@@HP6AEAAU1@0@Z@std@@YAXPAU_CS_SCHEDULE_DATA@@0HP6AEAAU1@1@Z@Z 00427be0 f i CastleSiege.obj
 0001:00026d30       ??1?$vector@U_CS_SCHEDULE_DATA@@V?$allocator@U_CS_SCHEDULE_DATA@@@std@@@std@@QAE@XZ 00427d30 f i CastleSiege.obj
 0001:00026d70       ??1?$vector@U_CS_NPC_DATA@@V?$allocator@U_CS_NPC_DATA@@@std@@@std@@QAE@XZ 00427d70 f i CastleSiege.obj
 0001:00026db0       ??1?$vector@U_CS_REG_GUILD_DATA@@V?$allocator@U_CS_REG_GUILD_DATA@@@std@@@std@@QAE@XZ 00427db0 f i CastleSiege.obj
 0001:00026df0       ?_Reserve@?$vector@U_CS_SCHEDULE_DATA@@V?$allocator@U_CS_SCHEDULE_DATA@@@std@@@std@@IAEXI@Z 00427df0 f i CastleSiege.obj
 0001:00026e70       ?_Reserve@?$vector@U_CS_NPC_DATA@@V?$allocator@U_CS_NPC_DATA@@@std@@@std@@IAEXI@Z 00427e70 f i CastleSiege.obj
 0001:00026ef0       ?erase@?$_Tree@V?$_Tmap_traits@HU_CS_MINIMAP_DATA@@U?$less@H@std@@V?$allocator@U?$pair@$$CBHU_CS_MINIMAP_DATA@@@std@@@3@$0A@@std@@@std@@QAE?AV?$_Tree_iterator@V?$_Tree_val@V?$_Tmap_traits@HU_CS_MINIMAP_DATA@@U?$less@H@std@@V?$allocator@U?$pair@$$CBHU_CS_MINIMAP_DATA@@@std@@@3@$0A@@std@@@std@@@2@V?$_Tree_const_iterator@V?$_Tree_val@V?$_Tmap_traits@HU_CS_MINIMAP_DATA@@U?$less@H@std@@V?$allocator@U?$pair@$$CBHU_CS_MINIMAP_DATA@@@std@@@3@$0A@@std@@@std@@@2@0@Z 00427ef0 f i CastleSiege.obj
 0001:00026fc0       ??$_Cons_val@V?$allocator@U_CS_REG_GUILD_DATA@@@std@@U_CS_REG_GUILD_DATA@@U3@@std@@YAXAAV?$allocator@U_CS_REG_GUILD_DATA@@@0@PAU_CS_REG_GUILD_DATA@@$$QAU2@@Z 00427fc0 f i CastleSiege.obj
 0001:00026fc0       ??$_Cons_val@V?$allocator@U_CS_REG_GUILD_DATA@@@std@@U_CS_REG_GUILD_DATA@@AAU3@@std@@YAXAAV?$allocator@U_CS_REG_GUILD_DATA@@@0@PAU_CS_REG_GUILD_DATA@@AAU2@@Z 00427fc0 f i CastleSiege.obj
 0001:00027010       ??$_Uninit_move@PAU_CS_REG_GUILD_DATA@@PAU1@V?$allocator@U_CS_REG_GUILD_DATA@@@std@@U1@@std@@YAPAU_CS_REG_GUILD_DATA@@PAU1@00AAV?$allocator@U_CS_REG_GUILD_DATA@@@0@0U_Nonscalar_ptr_iterator_tag@0@@Z 00428010 f i CastleSiege.obj
 0001:000270b0       ??$swap@U_CS_REG_GUILD_DATA@@@std@@YAXAAU_CS_REG_GUILD_DATA@@0@Z 004280b0 f i CastleSiege.obj
 0001:000271e0       ??$_Push_heap@PAU_CS_REG_GUILD_DATA@@HU1@P6AEAAU1@0@Z@std@@YAXPAU_CS_REG_GUILD_DATA@@HH$$QAU1@P6AEAAU1@2@Z@Z 004281e0 f i CastleSiege.obj
 0001:000272b0       ??$_Move_backward@PAU_CS_REG_GUILD_DATA@@PAU1@@std@@YAPAU_CS_REG_GUILD_DATA@@PAU1@00U_Nonscalar_ptr_iterator_tag@0@@Z 004282b0 f i CastleSiege.obj
 0001:00027320       ??0?$basic_string@DU?$char_traits@D@std@@V?$allocator@D@2@@std@@QAE@PBD@Z 00428320 f i CastleSiege.obj
 0001:00027360       ?assign@?$basic_string@DU?$char_traits@D@std@@V?$allocator@D@2@@std@@QAEAAV12@$$QAV12@@Z 00428360 f i CastleSiege.obj
 0001:000273e0       ?Clear@_CS_REG_GUILD_DATA@@QAEXXZ 004283e0 f   CastleSiege.obj
 0001:00027410       ?Clear@CCastleSiege@@QAEXXZ 00428410 f   CastleSiege.obj
 0001:000275d0       ?Ready@CCastleSiege@@QAEHH@Z 004285d0 f   CastleSiege.obj
 0001:00027610       ??1?$map@HPAVTUnionInfo@@U?$less@H@std@@V?$allocator@U?$pair@$$CBHPAVTUnionInfo@@@std@@@3@@std@@QAE@XZ 00428610 f i TUnion.obj
 0001:00027610       ??1?$map@KPAVQuestExpRewardKind@@U?$less@K@std@@V?$allocator@U?$pair@$$CBKPAVQuestExpRewardKind@@@std@@@3@@std@@QAE@XZ 00428610 f i QuestExpInfo.obj
 0001:00027610       ??1?$map@HPAU_GUILD_INFO_STRUCT@@U?$less@H@std@@V?$allocator@U?$pair@$$CBHPAU_GUILD_INFO_STRUCT@@@std@@@3@@std@@QAE@XZ 00428610 f i GuildClass.obj
 0001:00027610       ??1?$map@HPAVQuestExpReward@@U?$less@H@std@@V?$allocator@U?$pair@$$CBHPAVQuestExpReward@@@std@@@3@@std@@QAE@XZ 00428610 f i QuestExpInfo.obj
 0001:00027610       ??1?$map@HPAUGAMESHOP_ITEM_DATA@@U?$less@H@std@@V?$allocator@U?$pair@$$CBHPAUGAMESHOP_ITEM_DATA@@@std@@@3@@std@@QAE@XZ 00428610 f i GameShop.obj
 0001:00027610       ??1?$map@IHU?$less@I@std@@V?$allocator@U?$pair@$$CBIH@std@@@2@@std@@QAE@XZ 00428610 f i CastleSiege.obj
 0001:00027610       ??1?$map@HPAXU?$less@H@std@@V?$allocator@U?$pair@$$CBHPAX@std@@@2@@std@@QAE@XZ 00428610 f i EventManagement.obj
 0001:00027610       ??1?$map@HHU?$less@H@std@@V?$allocator@U?$pair@$$CBHH@std@@@2@@std@@QAE@XZ 00428610 f i CastleDeepEvent.obj
 0001:00027610       ??1?$map@HPAVQuestExpAsk@@U?$less@H@std@@V?$allocator@U?$pair@$$CBHPAVQuestExpAsk@@@std@@@3@@std@@QAE@XZ 00428610 f i QuestExpInfo.obj
 0001:00027670       ?GetCsJoinSide@CCastleSiege@@QAEHPADPAEPA_N@Z 00428670 f   CastleSiege.obj
 0001:00027770       ?SetAllUserCsJoinSide@CCastleSiege@@QAEXXZ 00428770 f   CastleSiege.obj
 0001:00027970       ?ChangeWinnerGuild@CCastleSiege@@QAEXH@Z 00428970 f   CastleSiege.obj
 0001:00027c50       ?CheckMiddleWinnerGuild@CCastleSiege@@QAEHXZ 00428c50 f   CastleSiege.obj
 0001:00027f60       ?push_back@?$vector@U_CS_SCHEDULE_DATA@@V?$allocator@U_CS_SCHEDULE_DATA@@@std@@@std@@QAEXABU_CS_SCHEDULE_DATA@@@Z 00428f60 f i CastleSiege.obj
 0001:00027ff0       ?push_back@?$vector@U_CS_NPC_DATA@@V?$allocator@U_CS_NPC_DATA@@@std@@@std@@QAEXABU_CS_NPC_DATA@@@Z 00428ff0 f i CastleSiege.obj
 0001:00028080       ??0?$map@IHU?$less@I@std@@V?$allocator@U?$pair@$$CBIH@std@@@2@@std@@QAE@XZ 00429080 f i CastleSiege.obj
 0001:000280f0       ??$_Cons_val@V?$allocator@U_CS_REG_GUILD_DATA@@@std@@U_CS_REG_GUILD_DATA@@ABU3@@std@@YAXAAV?$allocator@U_CS_REG_GUILD_DATA@@@0@PAU_CS_REG_GUILD_DATA@@ABU2@@Z 004290f0 f i CastleSiege.obj
 0001:00028140       ??$_Adjust_heap@PAU_CS_REG_GUILD_DATA@@HU1@P6AEAAU1@0@Z@std@@YAXPAU_CS_REG_GUILD_DATA@@HH$$QAU1@P6AEAAU1@2@Z@Z 00429140 f i CastleSiege.obj
 0001:00028240       ??0_CS_REG_GUILD_DATA@@QAE@XZ 00429240 f   CastleSiege.obj
 0001:000282a0       ?LoadData@CCastleSiege@@QAEHPAD@Z 004292a0 f   CastleSiege.obj
 0001:000293b0       ?SetState_STARTSIEGE@CCastleSiege@@QAEXH@Z 0042a3b0 f   CastleSiege.obj
 0001:00029500       ?SetCastleNpcData@CCastleSiege@@QAEHPAUCSP_CSINITDATA@@H@Z 0042a500 f   CastleSiege.obj
 0001:00029700       ??$?0AAY0BA@DAAU_CS_TOTAL_GUILD_DATA@@@?$pair@V?$basic_string@DU?$char_traits@D@std@@V?$allocator@D@2@@std@@U_CS_TOTAL_GUILD_DATA@@@std@@QAE@AAY0BA@DAAU_CS_TOTAL_GUILD_DATA@@@Z 0042a700 f i CastleSiege.obj
 0001:00029760       ??$_Dest_val@V?$allocator@U?$pair@$$CBV?$basic_string@DU?$char_traits@D@std@@V?$allocator@D@2@@std@@U_CS_TOTAL_GUILD_DATA@@@std@@@std@@U?$pair@$$CBV?$basic_string@DU?$char_traits@D@std@@V?$allocator@D@2@@std@@U_CS_TOTAL_GUILD_DATA@@@2@@std@@YAXAAV?$allocator@U?$pair@$$CBV?$basic_string@DU?$char_traits@D@std@@V?$allocator@D@2@@std@@U_CS_TOTAL_GUILD_DATA@@@std@@@0@PAU?$pair@$$CBV?$basic_string@DU?$char_traits@D@std@@V?$allocator@D@2@@std@@U_CS_TOTAL_GUILD_DATA@@@0@@Z 0042a760 f i CastleSiege.obj
 0001:000297a0       ?_Insert@?$_Tree@V?$_Tmap_traits@V?$basic_string@DU?$char_traits@D@std@@V?$allocator@D@2@@std@@U_CS_TOTAL_GUILD_DATA@@U?$less@V?$basic_string@DU?$char_traits@D@std@@V?$allocator@D@2@@std@@@2@V?$allocator@U?$pair@$$CBV?$basic_string@DU?$char_traits@D@std@@V?$allocator@D@2@@std@@U_CS_TOTAL_GUILD_DATA@@@std@@@2@$0A@@std@@@std@@IAE?AV?$_Tree_iterator@V?$_Tree_val@V?$_Tmap_traits@V?$basic_string@DU?$char_traits@D@std@@V?$allocator@D@2@@std@@U_CS_TOTAL_GUILD_DATA@@U?$less@V?$basic_string@DU?$char_traits@D@std@@V?$allocator@D@2@@std@@@2@V?$allocator@U?$pair@$$CBV?$basic_string@DU?$char_traits@D@std@@V?$allocator@D@2@@std@@U_CS_TOTAL_GUILD_DATA@@@std@@@2@$0A@@std@@@std@@@2@_NPAU_Node@?$_Tree_nod@V?$_Tmap_traits@V?$basic_string@DU?$char_traits@D@std@@V?$allocator@D@2@@std@@U_CS_TOTAL_GUILD_DATA@@U?$less@V?$basic_string@DU?$char_traits@D@std@@V?$allocator@D@2@@std@@@2@V?$allocator@U?$pair@$$CBV?$basic_string@DU?$char_traits@D@std@@V?$allocator@D@2@@std@@U_CS_TOTAL_GUILD_DATA@@@std@@@2@$0A@@std@@@2@1@Z 0042a7a0 f i CastleSiege.obj
 0001:000299d0       ??$_Median@PAU_CS_REG_GUILD_DATA@@P6AEAAU1@0@Z@std@@YAXPAU_CS_REG_GUILD_DATA@@00P6AEAAU1@1@Z@Z 0042a9d0 f i CastleSiege.obj
 0001:00029bb0       ??$_Make_heap@PAU_CS_REG_GUILD_DATA@@HU1@P6AEAAU1@0@Z@std@@YAXPAU_CS_REG_GUILD_DATA@@0P6AEAAU1@1@ZPAH0@Z 0042abb0 f i CastleSiege.obj
 0001:00029cb0       ??$_Insertion_sort1@PAU_CS_REG_GUILD_DATA@@P6AEAAU1@0@ZU1@@std@@YAXPAU_CS_REG_GUILD_DATA@@0P6AEAAU1@1@Z0@Z 0042acb0 f i CastleSiege.obj
 0001:00029ea0       ??$_Pop_heap_0@PAU_CS_REG_GUILD_DATA@@U1@P6AEAAU1@0@Z@std@@YAXPAU_CS_REG_GUILD_DATA@@0P6AEAAU1@1@Z0@Z 0042aea0 f i CastleSiege.obj
 0001:00029fb0       ??1?$map@HU_CS_MINIMAP_DATA@@U?$less@H@std@@V?$allocator@U?$pair@$$CBHU_CS_MINIMAP_DATA@@@std@@@3@@std@@QAE@XZ 0042afb0 f i CastleSiege.obj
 0001:0002a010       ?_Erase@?$_Tree@V?$_Tmap_traits@V?$basic_string@DU?$char_traits@D@std@@V?$allocator@D@2@@std@@U_CS_TOTAL_GUILD_DATA@@U?$less@V?$basic_string@DU?$char_traits@D@std@@V?$allocator@D@2@@std@@@2@V?$allocator@U?$pair@$$CBV?$basic_string@DU?$char_traits@D@std@@V?$allocator@D@2@@std@@U_CS_TOTAL_GUILD_DATA@@@std@@@2@$0A@@std@@@std@@IAEXPAU_Node@?$_Tree_nod@V?$_Tmap_traits@V?$basic_string@DU?$char_traits@D@std@@V?$allocator@D@2@@std@@U_CS_TOTAL_GUILD_DATA@@U?$less@V?$basic_string@DU?$char_traits@D@std@@V?$allocator@D@2@@std@@@2@V?$allocator@U?$pair@$$CBV?$basic_string@DU?$char_traits@D@std@@V?$allocator@D@2@@std@@U_CS_TOTAL_GUILD_DATA@@@std@@@2@$0A@@std@@@2@@Z 0042b010 f i CastleSiege.obj
 0001:0002a060       ?reserve@?$vector@U_CS_REG_GUILD_DATA@@V?$allocator@U_CS_REG_GUILD_DATA@@@std@@@std@@QAEXI@Z 0042b060 f i CastleSiege.obj
 0001:0002a150       ?erase@?$_Tree@V?$_Tmap_traits@V?$basic_string@DU?$char_traits@D@std@@V?$allocator@D@2@@std@@U_CS_TOTAL_GUILD_DATA@@U?$less@V?$basic_string@DU?$char_traits@D@std@@V?$allocator@D@2@@std@@@2@V?$allocator@U?$pair@$$CBV?$basic_string@DU?$char_traits@D@std@@V?$allocator@D@2@@std@@U_CS_TOTAL_GUILD_DATA@@@std@@@2@$0A@@std@@@std@@QAE?AV?$_Tree_iterator@V?$_Tree_val@V?$_Tmap_traits@V?$basic_string@DU?$char_traits@D@std@@V?$allocator@D@2@@std@@U_CS_TOTAL_GUILD_DATA@@U?$less@V?$basic_string@DU?$char_traits@D@std@@V?$allocator@D@2@@std@@@2@V?$allocator@U?$pair@$$CBV?$basic_string@DU?$char_traits@D@std@@V?$allocator@D@2@@std@@U_CS_TOTAL_GUILD_DATA@@@std@@@2@$0A@@std@@@std@@@2@V?$_Tree_const_iterator@V?$_Tree_val@V?$_Tmap_traits@V?$basic_string@DU?$char_traits@D@std@@V?$allocator@D@2@@std@@U_CS_TOTAL_GUILD_DATA@@U?$less@V?$basic_string@DU?$char_traits@D@std@@V?$allocator@D@2@@std@@@2@V?$allocator@U?$pair@$$CBV?$basic_string@DU?$char_traits@D@std@@V?$allocator@D@2@@std@@U_CS_TOTAL_GUILD_DATA@@@std@@@2@$0A@@std@@@std@@@2@@Z 0042b150 f i CastleSiege.obj
 0001:0002a3b0       ?_Linsert@?$_Tree@V?$_Tmap_traits@V?$basic_string@DU?$char_traits@D@std@@V?$allocator@D@2@@std@@U_CS_TOTAL_GUILD_DATA@@U?$less@V?$basic_string@DU?$char_traits@D@std@@V?$allocator@D@2@@std@@@2@V?$allocator@U?$pair@$$CBV?$basic_string@DU?$char_traits@D@std@@V?$allocator@D@2@@std@@U_CS_TOTAL_GUILD_DATA@@@std@@@2@$0A@@std@@@std@@QAE?AU?$pair@V?$_Tree_iterator@V?$_Tree_val@V?$_Tmap_traits@V?$basic_string@DU?$char_traits@D@std@@V?$allocator@D@2@@std@@U_CS_TOTAL_GUILD_DATA@@U?$less@V?$basic_string@DU?$char_traits@D@std@@V?$allocator@D@2@@std@@@2@V?$allocator@U?$pair@$$CBV?$basic_string@DU?$char_traits@D@std@@V?$allocator@D@2@@std@@U_CS_TOTAL_GUILD_DATA@@@std@@@2@$0A@@std@@@std@@@std@@_N@2@PAU_Node@?$_Tree_nod@V?$_Tmap_traits@V?$basic_string@DU?$char_traits@D@std@@V?$allocator@D@2@@std@@U_CS_TOTAL_GUILD_DATA@@U?$less@V?$basic_string@DU?$char_traits@D@std@@V?$allocator@D@2@@std@@@2@V?$allocator@U?$pair@$$CBV?$basic_string@DU?$char_traits@D@std@@V?$allocator@D@2@@std@@U_CS_TOTAL_GUILD_DATA@@@std@@@2@$0A@@std@@@2@_N@Z 0042b3b0 f i CastleSiege.obj
 0001:0002a560       ??$_Unguarded_partition@PAU_CS_REG_GUILD_DATA@@P6AEAAU1@0@Z@std@@YA?AU?$pair@PAU_CS_REG_GUILD_DATA@@PAU1@@0@PAU_CS_REG_GUILD_DATA@@0P6AEAAU2@1@Z@Z 0042b560 f i CastleSiege.obj
 0001:0002a700       ?OperateMiniMapWork@CCastleSiege@@QAEXXZ 0042b700 f   CastleSiege.obj
 0001:0002afc0       ?_Reserve@?$vector@U_CS_REG_GUILD_DATA@@V?$allocator@U_CS_REG_GUILD_DATA@@@std@@@std@@IAEXI@Z 0042bfc0 f i CastleSiege.obj
 0001:0002b020       ?erase@?$_Tree@V?$_Tmap_traits@V?$basic_string@DU?$char_traits@D@std@@V?$allocator@D@2@@std@@U_CS_TOTAL_GUILD_DATA@@U?$less@V?$basic_string@DU?$char_traits@D@std@@V?$allocator@D@2@@std@@@2@V?$allocator@U?$pair@$$CBV?$basic_string@DU?$char_traits@D@std@@V?$allocator@D@2@@std@@U_CS_TOTAL_GUILD_DATA@@@std@@@2@$0A@@std@@@std@@QAE?AV?$_Tree_iterator@V?$_Tree_val@V?$_Tmap_traits@V?$basic_string@DU?$char_traits@D@std@@V?$allocator@D@2@@std@@U_CS_TOTAL_GUILD_DATA@@U?$less@V?$basic_string@DU?$char_traits@D@std@@V?$allocator@D@2@@std@@@2@V?$allocator@U?$pair@$$CBV?$basic_string@DU?$char_traits@D@std@@V?$allocator@D@2@@std@@U_CS_TOTAL_GUILD_DATA@@@std@@@2@$0A@@std@@@std@@@2@V?$_Tree_const_iterator@V?$_Tree_val@V?$_Tmap_traits@V?$basic_string@DU?$char_traits@D@std@@V?$allocator@D@2@@std@@U_CS_TOTAL_GUILD_DATA@@U?$less@V?$basic_string@DU?$char_traits@D@std@@V?$allocator@D@2@@std@@@2@V?$allocator@U?$pair@$$CBV?$basic_string@DU?$char_traits@D@std@@V?$allocator@D@2@@std@@U_CS_TOTAL_GUILD_DATA@@@std@@@2@$0A@@std@@@std@@@2@0@Z 0042c020 f i CastleSiege.obj
 0001:0002b0e0       ??$_Sort_heap@PAU_CS_REG_GUILD_DATA@@P6AEAAU1@0@Z@std@@YAXPAU_CS_REG_GUILD_DATA@@0P6AEAAU1@1@Z@Z 0042c0e0 f i CastleSiege.obj
 0001:0002b130       ?ResetCastleCycle@CCastleSiege@@QAEXXZ 0042c130 f   CastleSiege.obj
 0001:0002b200       ?CheckBuildCsGuildInfo@CCastleSiege@@QAEXXZ 0042c200 f   CastleSiege.obj
 0001:0002b2e0       ?push_back@?$vector@U_CS_REG_GUILD_DATA@@V?$allocator@U_CS_REG_GUILD_DATA@@@std@@@std@@QAEXABU_CS_REG_GUILD_DATA@@@Z 0042c2e0 f i CastleSiege.obj
 0001:0002b350       ??$_Cons_val@V?$allocator@U?$pair@$$CBV?$basic_string@DU?$char_traits@D@std@@V?$allocator@D@2@@std@@U_CS_TOTAL_GUILD_DATA@@@std@@@std@@U?$pair@$$CBV?$basic_string@DU?$char_traits@D@std@@V?$allocator@D@2@@std@@U_CS_TOTAL_GUILD_DATA@@@2@U?$pair@V?$basic_string@DU?$char_traits@D@std@@V?$allocator@D@2@@std@@U_CS_TOTAL_GUILD_DATA@@@2@@std@@YAXAAV?$allocator@U?$pair@$$CBV?$basic_string@DU?$char_traits@D@std@@V?$allocator@D@2@@std@@U_CS_TOTAL_GUILD_DATA@@@std@@@0@PAU?$pair@$$CBV?$basic_string@DU?$char_traits@D@std@@V?$allocator@D@2@@std@@U_CS_TOTAL_GUILD_DATA@@@0@$$QAU?$pair@V?$basic_string@DU?$char_traits@D@std@@V?$allocator@D@2@@std@@U_CS_TOTAL_GUILD_DATA@@@0@@Z 0042c350 f i CastleSiege.obj
 0001:0002b3d0       ?SetState_NOTIFY@CCastleSiege@@QAEXH@Z 0042c3d0 f   CastleSiege.obj
 0001:0002b430       ?SetState_READYSIEGE@CCastleSiege@@QAEXH@Z 0042c430 f   CastleSiege.obj
 0001:0002b490       ??$_Sort@PAU_CS_REG_GUILD_DATA@@HP6AEAAU1@0@Z@std@@YAXPAU_CS_REG_GUILD_DATA@@0HP6AEAAU1@1@Z@Z 0042c490 f i CastleSiege.obj
 0001:0002b580       ??$_Buynode@U?$pair@V?$basic_string@DU?$char_traits@D@std@@V?$allocator@D@2@@std@@U_CS_TOTAL_GUILD_DATA@@@std@@@?$_Tree_val@V?$_Tmap_traits@V?$basic_string@DU?$char_traits@D@std@@V?$allocator@D@2@@std@@U_CS_TOTAL_GUILD_DATA@@U?$less@V?$basic_string@DU?$char_traits@D@std@@V?$allocator@D@2@@std@@@2@V?$allocator@U?$pair@$$CBV?$basic_string@DU?$char_traits@D@std@@V?$allocator@D@2@@std@@U_CS_TOTAL_GUILD_DATA@@@std@@@2@$0A@@std@@@std@@QAEPAU_Node@?$_Tree_nod@V?$_Tmap_traits@V?$basic_string@DU?$char_traits@D@std@@V?$allocator@D@2@@std@@U_CS_TOTAL_GUILD_DATA@@U?$less@V?$basic_string@DU?$char_traits@D@std@@V?$allocator@D@2@@std@@@2@V?$allocator@U?$pair@$$CBV?$basic_string@DU?$char_traits@D@std@@V?$allocator@D@2@@std@@U_CS_TOTAL_GUILD_DATA@@@std@@@2@$0A@@std@@@1@$$QAU?$pair@V?$basic_string@DU?$char_traits@D@std@@V?$allocator@D@2@@std@@U_CS_TOTAL_GUILD_DATA@@@1@@Z 0042c580 f i CastleSiege.obj
 0001:0002b640       ??1?$map@V?$basic_string@DU?$char_traits@D@std@@V?$allocator@D@2@@std@@U_CS_TOTAL_GUILD_DATA@@U?$less@V?$basic_string@DU?$char_traits@D@std@@V?$allocator@D@2@@std@@@2@V?$allocator@U?$pair@$$CBV?$basic_string@DU?$char_traits@D@std@@V?$allocator@D@2@@std@@U_CS_TOTAL_GUILD_DATA@@@std@@@2@@std@@QAE@XZ 0042c640 f i CastleSiege.obj
 0001:0002b6a0       ??1CCastleSiege@@UAE@XZ    0042c6a0 f   CastleSiege.obj
 0001:0002b880       ?SetState@CCastleSiege@@QAEXHH@Z 0042c880 f   CastleSiege.obj
 0001:0002b9a0       ?ProcState_IDLE_1@CCastleSiege@@QAEXXZ 0042c9a0 f   CastleSiege.obj
 0001:0002b9f0       ?ProcState_REGSIEGE@CCastleSiege@@QAEXXZ 0042c9f0 f   CastleSiege.obj
 0001:0002ba70       ?ProcState_IDLE_2@CCastleSiege@@QAEXXZ 0042ca70 f   CastleSiege.obj
 0001:0002bac0       ?ProcState_REGMARK@CCastleSiege@@QAEXXZ 0042cac0 f   CastleSiege.obj
 0001:0002bb40       ?ProcState_IDLE_3@CCastleSiege@@QAEXXZ 0042cb40 f   CastleSiege.obj
 0001:0002bbc0       ?ProcState_NOTIFY@CCastleSiege@@QAEXXZ 0042cbc0 f   CastleSiege.obj
 0001:0002bc40       ?ProcState_READYSIEGE@CCastleSiege@@QAEXXZ 0042cc40 f   CastleSiege.obj
 0001:0002bd60       ?ProcState_STARTSIEGE@CCastleSiege@@QAEXXZ 0042cd60 f   CastleSiege.obj
 0001:0002bf70       ?ProcState_ENDSIEGE@CCastleSiege@@QAEXXZ 0042cf70 f   CastleSiege.obj
 0001:0002bfc0       ?ProcState_ENDCYCLE@CCastleSiege@@QAEXXZ 0042cfc0 f   CastleSiege.obj
 0001:0002c010       ?CheckSync@CCastleSiege@@QAEHXZ 0042d010 f   CastleSiege.obj
 0001:0002c5e0       ??0CCastleSiege@@QAE@XZ    0042d5e0 f   CastleSiege.obj
 0001:0002c7f0       ??_GCCastleSiege@@UAEPAXI@Z 0042d7f0 f i CastleSiege.obj
 0001:0002c7f0       ??_ECCastleSiege@@UAEPAXI@Z 0042d7f0 f i CastleSiege.obj
 0001:0002c820       ?Init@CCastleSiege@@QAEHXZ 0042d820 f   CastleSiege.obj
 0001:0002c930       ?Run@CCastleSiege@@QAEXXZ  0042d930 f   CastleSiege.obj
 0001:0002cad0       ?SetCalcRegGuildList@CCastleSiege@@QAEXPAUCSP_CALCREGGUILDLIST@@H@Z 0042dad0 f   CastleSiege.obj
 0001:0002d230       ?MakeCsTotalGuildInfo@CCastleSiege@@QAEXPAUCSP_CSGUILDUNIONINFO@@H@Z 0042e230 f   CastleSiege.obj
 0001:0002d4a0       ?SetCsTotalGuildInfo@CCastleSiege@@QAEXPAUCSP_CSLOADTOTALGUILDINFO@@H@Z 0042e4a0 f   CastleSiege.obj
 0001:0002d800       ??1CCastleSiegeSync@@UAE@XZ 0042e800 f   CastleSiegeSync.obj
 0001:0002d810       ?Clear@CCastleSiegeSync@@QAEXXZ 0042e810 f   CastleSiegeSync.obj
 0001:0002d840       ?SetCastleOwnerGuild@CCastleSiegeSync@@QAEXPAD@Z 0042e840 f   CastleSiegeSync.obj
 0001:0002d870       ?AddTributeMoney@CCastleSiegeSync@@QAEXH@Z 0042e870 f   CastleSiegeSync.obj
 0001:0002d8b0       ?ResetTributeMoney@CCastleSiegeSync@@QAEXXZ 0042e8b0 f   CastleSiegeSync.obj
 0001:0002d8c0       ?AdjustTributeMoney@CCastleSiegeSync@@QAEXXZ 0042e8c0 f   CastleSiegeSync.obj
 0001:0002d920       ?CheckCastleOwnerMember@CCastleSiegeSync@@QAEHH@Z 0042e920 f   CastleSiegeSync.obj
 0001:0002d9e0       ?CheckCastleOwnerUnionMember@CCastleSiegeSync@@QAEHH@Z 0042e9e0 f   CastleSiegeSync.obj
 0001:0002dab0       ?CheckOverlapCsMarks@CCastleSiegeSync@@QAEHH@Z 0042eab0 f   CastleSiegeSync.obj
 0001:0002db50       ??0CCastleSiegeSync@@QAE@XZ 0042eb50 f   CastleSiegeSync.obj
 0001:0002db60       ??_GCCastleSiegeSync@@UAEPAXI@Z 0042eb60 f i CastleSiegeSync.obj
 0001:0002db60       ??_ECCastleSiegeSync@@UAEPAXI@Z 0042eb60 f i CastleSiegeSync.obj
 0001:0002db90       ?GetTaxRateChaos@CCastleSiegeSync@@QAEHH@Z 0042eb90 f   CastleSiegeSync.obj
 0001:0002dbd0       ?GetTaxRateStore@CCastleSiegeSync@@QAEHH@Z 0042ebd0 f   CastleSiegeSync.obj
 0001:0002dc10       ?GetTaxHuntZone@CCastleSiegeSync@@QAEHHH@Z 0042ec10 f   CastleSiegeSync.obj
 0001:0002dc60       ??0CChaosCard@@QAE@XZ      0042ec60 f   ChaosCard.obj
 0001:0002dc70       ??1CChaosCard@@UAE@XZ      0042ec70 f   ChaosCard.obj
 0001:0002dc80       ?Load@CChaosCard@@QAE_NPAD0@Z 0042ec80 f   ChaosCard.obj
 0001:0002dd50       ?GetChaosCardData@CChaosCard@@QAEPAVCCashLotterySystem@@PAD@Z 0042ed50 f   ChaosCard.obj
 0001:0002ddd0       ?CheckChaosCardInfo@CChaosCard@@QAEHPADPAVCItem@@@Z 0042edd0 f   ChaosCard.obj
 0001:0002de00       ??_GCChaosCard@@UAEPAXI@Z  0042ee00 f i ChaosCard.obj
 0001:0002de00       ??_ECChaosCard@@UAEPAXI@Z  0042ee00 f i ChaosCard.obj
 0001:0002e120       ?AddMonsterList@CChaosCastle@@QAEXHH@Z 0042f120 f   ChaosCastle.obj
 0001:0002e180       ?DelMonsterList@CChaosCastle@@QAEXHH@Z 0042f180 f   ChaosCastle.obj
 0001:0002e240       ?GetMonsterListCount@CChaosCastle@@QAEHH@Z 0042f240 f   ChaosCastle.obj
 0001:0002e2f0       ?SendAllUserAnyMsg@CChaosCastle@@QAEXPAEH@Z 0042f2f0 f   ChaosCastle.obj
 0001:0002e2f0       ?SendAllUserAnyMsg@CBloodCastle@@QAEXPAEH@Z 0042f2f0 f   BloodCastle.obj
 0001:0002e2f0       ?SendAllUserAnyMsg@CIllusionTempleProcess@@QAEXPAEH@Z 0042f2f0 f   IllusionTempleProcess.obj
 0001:0002e340       ?SendChaosCastleAnyMsg@CChaosCastle@@QAEXPAEHH@Z 0042f340 f   ChaosCastle.obj
 0001:0002e3d0       ?EnterUserChaosCastle@CChaosCastle@@QAEHHH@Z 0042f3d0 f   ChaosCastle.obj
 0001:0002e470       ?LeaveUserChaosCastle@CChaosCastle@@QAEHHH@Z 0042f470 f   ChaosCastle.obj
 0001:0002e500       ?AddFallUser@CChaosCastle@@QAEXHH@Z 0042f500 f   ChaosCastle.obj
 0001:0002e560       ?SetUserState@CChaosCastle@@QAEXHH@Z 0042f560 f   ChaosCastle.obj
 0001:0002e600       ?GetUserLevelToEnter@CChaosCastle@@QAEHH@Z 0042f600 f   ChaosCastle.obj
 0001:0002e6a0       ?CheckUserEnterMoney@CChaosCastle@@QAEHHH@Z 0042f6a0 f   ChaosCastle.obj
 0001:0002e700       ?PayUserEnterMoney@CChaosCastle@@QAEHHH@Z 0042f700 f   ChaosCastle.obj
 0001:0002e780       ?GiveUserDamage@CChaosCastle@@QAEXHH@Z 0042f780 f   ChaosCastle.obj
 0001:0002e8e0       ?LevelUp@CChaosCastle@@QAEHHHH@Z 0042f8e0 f   ChaosCastle.obj
 0001:0002ecf0       ?CheckCanEnter@CChaosCastle@@QAE_NH@Z 0042fcf0 f   ChaosCastle.obj
 0001:0002ed20       ?GetCurrentState@CChaosCastle@@QAEHH@Z 0042fd20 f   ChaosCastle.obj
 0001:0002ed50       ?GetCurEnteredUser@CChaosCastle@@QAEHH@Z 0042fd50 f   ChaosCastle.obj
 0001:0002ed80       ?ObjSetPosition@CChaosCastle@@QAEHHHH@Z 0042fd80 f   ChaosCastle.obj
 0001:0002ef90       ?CheckWearingMOPH@CChaosCastle@@QAEHH@Z 0042ff90 f   ChaosCastle.obj
 0001:0002f0c0       ?GiveWinnerItem@CChaosCastle@@QAEXHH@Z 004300c0 f   ChaosCastle.obj
 0001:0002f250       ?GetChaosCastleMapNumber@CChaosCastle@@QAEHH@Z 00430250 f   ChaosCastle.obj
 0001:0002f2c0       ?GetChaosCastleIndex@CChaosCastle@@QAEHH@Z 004302c0 f   ChaosCastle.obj
 0001:0002f360       ?_Max@?$_Tree_val@V?$_Tmap_traits@HU_MONSTER_ITEM_DROP@@U?$less@H@std@@V?$allocator@U?$pair@$$CBHU_MONSTER_ITEM_DROP@@@std@@@3@$0A@@std@@@std@@SAPAU_Node@?$_Tree_nod@V?$_Tmap_traits@HU_MONSTER_ITEM_DROP@@U?$less@H@std@@V?$allocator@U?$pair@$$CBHU_MONSTER_ITEM_DROP@@@std@@@3@$0A@@std@@@2@PAU342@@Z 00430360 f i ChaosCastle.obj
 0001:0002f380       ?_Min@?$_Tree_val@V?$_Tmap_traits@HU_MONSTER_ITEM_DROP@@U?$less@H@std@@V?$allocator@U?$pair@$$CBHU_MONSTER_ITEM_DROP@@@std@@@3@$0A@@std@@@std@@SAPAU_Node@?$_Tree_nod@V?$_Tmap_traits@HU_MONSTER_ITEM_DROP@@U?$less@H@std@@V?$allocator@U?$pair@$$CBHU_MONSTER_ITEM_DROP@@@std@@@3@$0A@@std@@@2@PAU342@@Z 00430380 f i ChaosCastle.obj
 0001:0002f3a0       ??E?$_Tree_unchecked_const_iterator@V?$_Tree_val@V?$_Tmap_traits@HU_MONSTER_ITEM_DROP@@U?$less@H@std@@V?$allocator@U?$pair@$$CBHU_MONSTER_ITEM_DROP@@@std@@@3@$0A@@std@@@std@@U_Iterator_base0@2@@std@@QAEAAV01@XZ 004303a0 f i ChaosCastle.obj
 0001:0002f3f0       ??F?$_Tree_unchecked_const_iterator@V?$_Tree_val@V?$_Tmap_traits@HU_MONSTER_ITEM_DROP@@U?$less@H@std@@V?$allocator@U?$pair@$$CBHU_MONSTER_ITEM_DROP@@@std@@@3@$0A@@std@@@std@@U_Iterator_base0@2@@std@@QAEAAV01@XZ 004303f0 f i ChaosCastle.obj
 0001:0002f450       ?SetMapAttrHollow@CChaosCastle@@QAEXHH@Z 00430450 f   ChaosCastle.obj
 0001:0002f500       ?SetMapAttrFill@CChaosCastle@@QAEXH@Z 00430500 f   ChaosCastle.obj
 0001:0002f5b0       ?ClearMonster@CChaosCastle@@QAEXH@Z 004305b0 f   ChaosCastle.obj
 0001:0002f610       ?ProcessFallUser@CChaosCastle@@QAEXH@Z 00430610 f   ChaosCastle.obj
 0001:0002f740       ?CalcSendRewardEXP@CChaosCastle@@QAEHHHHH@Z 00430740 f   ChaosCastle.obj
 0001:0002f8b0       ?GetCurPlayUser@CChaosCastle@@QAEHH@Z 004308b0 f   ChaosCastle.obj
 0001:0002f940       ?SafetyCastleZone@CChaosCastle@@QAEXH@Z 00430940 f   ChaosCastle.obj
 0001:0002fa60       ?UnSafetyCastleZone@CChaosCastle@@QAEXH@Z 00430a60 f   ChaosCastle.obj
 0001:0002fb80       ?SendCastleZoneSafetyInfo@CChaosCastle@@QAEXH_N@Z 00430b80 f   ChaosCastle.obj
 0001:0002fc90       ?PlayFailedRollBack@CChaosCastle@@QAEXH@Z 00430c90 f   ChaosCastle.obj
 0001:0002fe30       ?RewardUserEXP@CChaosCastle@@QAEXHHH@Z 00430e30 f   ChaosCastle.obj
 0001:00030000       ?ReCalcUserCount@CChaosCastle@@QAEHH@Z 00431000 f   ChaosCastle.obj
 0001:00030050       ?_Lrotate@?$_Tree@V?$_Tmap_traits@HU_MONSTER_ITEM_DROP@@U?$less@H@std@@V?$allocator@U?$pair@$$CBHU_MONSTER_ITEM_DROP@@@std@@@3@$0A@@std@@@std@@IAEXPAU_Node@?$_Tree_nod@V?$_Tmap_traits@HU_MONSTER_ITEM_DROP@@U?$less@H@std@@V?$allocator@U?$pair@$$CBHU_MONSTER_ITEM_DROP@@@std@@@3@$0A@@std@@@2@@Z 00431050 f i ChaosCastle.obj
 0001:000300b0       ?_Rrotate@?$_Tree@V?$_Tmap_traits@HU_MONSTER_ITEM_DROP@@U?$less@H@std@@V?$allocator@U?$pair@$$CBHU_MONSTER_ITEM_DROP@@@std@@@3@$0A@@std@@@std@@IAEXPAU_Node@?$_Tree_nod@V?$_Tmap_traits@HU_MONSTER_ITEM_DROP@@U?$less@H@std@@V?$allocator@U?$pair@$$CBHU_MONSTER_ITEM_DROP@@@std@@@3@$0A@@std@@@2@@Z 004310b0 f i ChaosCastle.obj
 0001:00030110       ?SetMonster@CChaosCastle@@QAEHH@Z 00431110 f   ChaosCastle.obj
 0001:00030330       ?SendNoticeState@CChaosCastle@@QAEXHH@Z 00431330 f   ChaosCastle.obj
 0001:00030470       ?SendWinMessage@CChaosCastle@@QAEXHH@Z 00431470 f   ChaosCastle.obj
 0001:00030540       ?SendFailMessage@CChaosCastle@@QAEXHH@Z 00431540 f   ChaosCastle.obj
 0001:000305e0       ?SendAllLoserFailMessage@CChaosCastle@@QAEXHH@Z 004315e0 f   ChaosCastle.obj
 0001:000306c0       ?GetCurrentWinUser@CChaosCastle@@QAEHH@Z 004316c0 f   ChaosCastle.obj
 0001:000307c0       ?CheckPlayEnded@CChaosCastle@@QAEHH@Z 004317c0 f   ChaosCastle.obj
 0001:00030820       ?CheckCanStartPlay@CChaosCastle@@QAE_NH@Z 00431820 f   ChaosCastle.obj
 0001:00030870       ?BlowObjsFromPoint@CChaosCastle@@QAEHHHAAH0@Z 00431870 f   ChaosCastle.obj
 0001:00030b20       ?CheckUserInDieTile@CChaosCastle@@QAEXH@Z 00431b20 f   ChaosCastle.obj
 0001:00030cf0       ?ProcessTrapStatus@CChaosCastle@@QAEXH@Z 00431cf0 f   ChaosCastle.obj
 0001:00030db0       ?SetState_PlayEnd@CChaosCastle@@IAEXH@Z 00431db0 f   ChaosCastle.obj
 0001:00030e10       ?SearchNBlowObjs@CChaosCastle@@QAEXHHH@Z 00431e10 f   ChaosCastle.obj
 0001:00030fd0       ?_Erase@?$_Tree@V?$_Tmap_traits@HU_MONSTER_ITEM_DROP@@U?$less@H@std@@V?$allocator@U?$pair@$$CBHU_MONSTER_ITEM_DROP@@@std@@@3@$0A@@std@@@std@@IAEXPAU_Node@?$_Tree_nod@V?$_Tmap_traits@HU_MONSTER_ITEM_DROP@@U?$less@H@std@@V?$allocator@U?$pair@$$CBHU_MONSTER_ITEM_DROP@@@std@@@3@$0A@@std@@@2@@Z 00431fd0 f i ChaosCastle.obj
 0001:00031010       ?erase@?$_Tree@V?$_Tmap_traits@HU_MONSTER_ITEM_DROP@@U?$less@H@std@@V?$allocator@U?$pair@$$CBHU_MONSTER_ITEM_DROP@@@std@@@3@$0A@@std@@@std@@QAE?AV?$_Tree_iterator@V?$_Tree_val@V?$_Tmap_traits@HU_MONSTER_ITEM_DROP@@U?$less@H@std@@V?$allocator@U?$pair@$$CBHU_MONSTER_ITEM_DROP@@@std@@@3@$0A@@std@@@std@@@2@V?$_Tree_const_iterator@V?$_Tree_val@V?$_Tmap_traits@HU_MONSTER_ITEM_DROP@@U?$less@H@std@@V?$allocator@U?$pair@$$CBHU_MONSTER_ITEM_DROP@@@std@@@3@$0A@@std@@@std@@@2@@Z 00432010 f i ChaosCastle.obj
 0001:00031260       ?_Insert@?$_Tree@V?$_Tmap_traits@HU_MONSTER_ITEM_DROP@@U?$less@H@std@@V?$allocator@U?$pair@$$CBHU_MONSTER_ITEM_DROP@@@std@@@3@$0A@@std@@@std@@IAE?AV?$_Tree_iterator@V?$_Tree_val@V?$_Tmap_traits@HU_MONSTER_ITEM_DROP@@U?$less@H@std@@V?$allocator@U?$pair@$$CBHU_MONSTER_ITEM_DROP@@@std@@@3@$0A@@std@@@std@@@2@_NPAU_Node@?$_Tree_nod@V?$_Tmap_traits@HU_MONSTER_ITEM_DROP@@U?$less@H@std@@V?$allocator@U?$pair@$$CBHU_MONSTER_ITEM_DROP@@@std@@@3@$0A@@std@@@2@1@Z 00432260 f i ChaosCastle.obj
 0001:00031490       ?SetState@CChaosCastle@@QAEXHH@Z 00432490 f   ChaosCastle.obj
 0001:00031500       ?GetRemainTime@CChaosCastle@@QAEHH@Z 00432500 f   ChaosCastle.obj
 0001:00031680       ?clear@?$_Tree@V?$_Tmap_traits@HU_MONSTER_ITEM_DROP@@U?$less@H@std@@V?$allocator@U?$pair@$$CBHU_MONSTER_ITEM_DROP@@@std@@@3@$0A@@std@@@std@@QAEXXZ 00432680 f i ChaosCastle.obj
 0001:000316d0       ?erase@?$_Tree@V?$_Tmap_traits@HU_MONSTER_ITEM_DROP@@U?$less@H@std@@V?$allocator@U?$pair@$$CBHU_MONSTER_ITEM_DROP@@@std@@@3@$0A@@std@@@std@@QAE?AV?$_Tree_iterator@V?$_Tree_val@V?$_Tmap_traits@HU_MONSTER_ITEM_DROP@@U?$less@H@std@@V?$allocator@U?$pair@$$CBHU_MONSTER_ITEM_DROP@@@std@@@3@$0A@@std@@@std@@@2@V?$_Tree_const_iterator@V?$_Tree_val@V?$_Tmap_traits@HU_MONSTER_ITEM_DROP@@U?$less@H@std@@V?$allocator@U?$pair@$$CBHU_MONSTER_ITEM_DROP@@@std@@@3@$0A@@std@@@std@@@2@0@Z 004326d0 f i ChaosCastle.obj
 0001:00031770       ?_Linsert@?$_Tree@V?$_Tmap_traits@HU_MONSTER_ITEM_DROP@@U?$less@H@std@@V?$allocator@U?$pair@$$CBHU_MONSTER_ITEM_DROP@@@std@@@3@$0A@@std@@@std@@QAE?AU?$pair@V?$_Tree_iterator@V?$_Tree_val@V?$_Tmap_traits@HU_MONSTER_ITEM_DROP@@U?$less@H@std@@V?$allocator@U?$pair@$$CBHU_MONSTER_ITEM_DROP@@@std@@@3@$0A@@std@@@std@@@std@@_N@2@PAU_Node@?$_Tree_nod@V?$_Tmap_traits@HU_MONSTER_ITEM_DROP@@U?$less@H@std@@V?$allocator@U?$pair@$$CBHU_MONSTER_ITEM_DROP@@@std@@@3@$0A@@std@@@2@_N@Z 00432770 f i ChaosCastle.obj
 0001:00031850       ??$_Buynode@U?$pair@HU_MONSTER_ITEM_DROP@@@std@@@?$_Tree_val@V?$_Tmap_traits@HU_MONSTER_ITEM_DROP@@U?$less@H@std@@V?$allocator@U?$pair@$$CBHU_MONSTER_ITEM_DROP@@@std@@@3@$0A@@std@@@std@@QAEPAU_Node@?$_Tree_nod@V?$_Tmap_traits@HU_MONSTER_ITEM_DROP@@U?$less@H@std@@V?$allocator@U?$pair@$$CBHU_MONSTER_ITEM_DROP@@@std@@@3@$0A@@std@@@1@$$QAU?$pair@HU_MONSTER_ITEM_DROP@@@1@@Z 00432850 f i ChaosCastle.obj
 0001:000318d0       ?Clear@_CHAOSCASTLE_DATA@@QAEXXZ 004328d0 f i ChaosCastle.obj
 0001:00031970       ?Init@CChaosCastle@@QAEX_N@Z 00432970 f   ChaosCastle.obj
 0001:00031b00       ?CheckSync@CChaosCastle@@IAEXH@Z 00432b00 f   ChaosCastle.obj
 0001:00031d40       ?ProcState_Closed@CChaosCastle@@IAEXH@Z 00432d40 f   ChaosCastle.obj
 0001:00031f30       ?ProcState_PlayEnd@CChaosCastle@@IAEXH@Z 00432f30 f   ChaosCastle.obj
 0001:00031fc0       ?ClearChaosCastleData@CChaosCastle@@IAEXH@Z 00432fc0 f   ChaosCastle.obj
 0001:000322a0       ?find@?$_Tree@V?$_Tmap_traits@HU_MONSTER_ITEM_DROP@@U?$less@H@std@@V?$allocator@U?$pair@$$CBHU_MONSTER_ITEM_DROP@@@std@@@3@$0A@@std@@@std@@QAE?AV?$_Tree_iterator@V?$_Tree_val@V?$_Tmap_traits@HU_MONSTER_ITEM_DROP@@U?$less@H@std@@V?$allocator@U?$pair@$$CBHU_MONSTER_ITEM_DROP@@@std@@@3@$0A@@std@@@std@@@2@ABH@Z 004332a0 f i ChaosCastle.obj
 0001:00032310       ?SetState_Closed@CChaosCastle@@IAEXH@Z 00433310 f   ChaosCastle.obj
 0001:000323e0       ?SetState_Playing@CChaosCastle@@IAEXH@Z 004333e0 f   ChaosCastle.obj
 0001:00032470       ?SetItemsToMonster@CChaosCastle@@QAEXH@Z 00433470 f   ChaosCastle.obj
 0001:000326f0       ?SearchNDropMonsterItem@CChaosCastle@@QAEXHHH@Z 004336f0 f   ChaosCastle.obj
 0001:00032830       ??0_CHAOSCASTLE_DATA@@QAE@XZ 00433830 f i ChaosCastle.obj
 0001:000328d0       ??1_CHAOSCASTLE_DATA@@QAE@XZ 004338d0 f i ChaosCastle.obj
 0001:00032940       ??1CChaosCastle@@UAE@XZ    00433940 f   ChaosCastle.obj
 0001:000329c0       ??0CChaosCastle@@QAE@XZ    004339c0 f   ChaosCastle.obj
 0001:00032ad0       ??_ECChaosCastle@@UAEPAXI@Z 00433ad0 f i ChaosCastle.obj
 0001:00032ad0       ??_GCChaosCastle@@UAEPAXI@Z 00433ad0 f i ChaosCastle.obj
 0001:00032b00       ?Load@CChaosCastle@@QAEXPAD@Z 00433b00 f   ChaosCastle.obj
 0001:000330e0       ?PullObjInnerPlace@CChaosCastle@@QAEXHH@Z 004340e0 f   ChaosCastle.obj
 0001:00033530       ?CheckMonsterInDieTile@CChaosCastle@@QAEXH@Z 00434530 f   ChaosCastle.obj
 0001:000338e0       ?ProcState_Playing@CChaosCastle@@IAEXH@Z 004348e0 f   ChaosCastle.obj
 0001:00033de0       ?Run@CChaosCastle@@QAEXXZ  00434de0 f   ChaosCastle.obj
 0001:00034140       ?Init@CheatGuard@@QAEXXZ   00435140 f   CheatGuard.obj
 0001:00034170       ?ReadXOR@CheatGuard@@QAEXPAD@Z 00435170 f   CheatGuard.obj
 0001:00034220       ?ReadMain@CheatGuard@@QAEXPAD@Z 00435220 f   CheatGuard.obj
 0001:00034280       ?Load@CheatGuard@@QAEXXZ   00435280 f   CheatGuard.obj
 0001:000342c0       ?Disconnect@CheatGuard@@QAEXH@Z 004352c0 f   CheatGuard.obj
 0001:000342f0       ?GenerateFileName@CheatGuard@@QAEXPAD@Z 004352f0 f   CheatGuard.obj
 0001:00034340       ?SendCheckRequest@CheatGuard@@QAEXH@Z 00435340 f   CheatGuard.obj
 0001:00034400       ??$sprintf_s@$0BCM@@@YAHAAY0BCM@DPBDZZ 00435400 f i CheatGuard.obj
 0001:00034420       ??0CheatGuard@@QAE@XZ      00435420 f   CheatGuard.obj
 0001:00034430       ?WriteLog@CheatGuard@@QAAXPADZZ 00435430 f   CheatGuard.obj
 0001:00034500       ?GetCheckResult@CheatGuard@@QAEXPAUCHEATGUARD_ANS_CHECK@@H@Z 00435500 f   CheatGuard.obj
 0001:00034690       ??0CHackToolBlock@@QAE@XZ  00435690 f   HackToolBlock.obj
 0001:000346a0       ??1CHackToolBlock@@UAE@XZ  004356a0 f   HackToolBlock.obj
 0001:000346b0       ??_ECHackToolBlock@@UAEPAXI@Z 004356b0 f i HackToolBlock.obj
 0001:000346b0       ??_GCHackToolBlock@@UAEPAXI@Z 004356b0 f i HackToolBlock.obj
 0001:000346e0       ??1CHacktoolBlockEx@@UAE@XZ 004356e0 f   HacktoolBlockEx.obj
 0001:000346f0       ?LoadScript@CHacktoolBlockEx@@QAEXPAD@Z 004356f0 f   HacktoolBlockEx.obj
 0001:00034770       ?AddHacktoolData@CHacktoolBlockEx@@QAE_NGPADJE@Z 00435770 f   HacktoolBlockEx.obj
 0001:000347d0       ?SearchHacktoolData@CHacktoolBlockEx@@QAEPAUHACKTOOL_DATA@@G@Z 004357d0 f   HacktoolBlockEx.obj
 0001:00034810       ?SetHacktoolUseDisadvantage@CHacktoolBlockEx@@QAE_NPAUOBJECTSTRUCT@@E@Z 00435810 f   HacktoolBlockEx.obj
 0001:00034880       ?SetUseForceMove2Town@CHacktoolBlockEx@@QAEXPAUOBJECTSTRUCT@@@Z 00435880 f   HacktoolBlockEx.obj
 0001:00034ac0       ?CheckHacktoolUseConnectedUser@CHacktoolBlockEx@@QAEXPAUOBJECTSTRUCT@@@Z 00435ac0 f   HacktoolBlockEx.obj
 0001:00034b20       ?CheckHacktoolUse@CHacktoolBlockEx@@QAEXXZ 00435b20 f   HacktoolBlockEx.obj
 0001:00034c20       ?Clear@HACKTOOL_DATA@@QAEXXZ 00435c20 f   HacktoolBlockEx.obj
 0001:00034c40       ?Set@HACKTOOL_USE_INFO@@QAEXEEG@Z 00435c40 f   HacktoolBlockEx.obj
 0001:00034c60       ??_ECHacktoolBlockEx@@UAEPAXI@Z 00435c60 f i HacktoolBlockEx.obj
 0001:00034c60       ??_GCHacktoolBlockEx@@UAEPAXI@Z 00435c60 f i HacktoolBlockEx.obj
 0001:00034c90       ?Initialize@CHacktoolBlockEx@@QAEXXZ 00435c90 f   HacktoolBlockEx.obj
 0001:00034cb0       ?RemoveHacktoolData@CHacktoolBlockEx@@QAEXGPAD@Z 00435cb0 f   HacktoolBlockEx.obj
 0001:00034d40       ?OnRequestHacktoolStatistics@CHacktoolBlockEx@@QAEXPAUPMSG_HACKTOOL_CHECK_USE_STATISTICS_REQ@@@Z 00435d40 f   HacktoolBlockEx.obj
 0001:00034eb0       ?OnRequestHacktoolBlockRemove@CHacktoolBlockEx@@QAEXPAUPMSG_HACKTOOL_BLOCK_REMOVE_REQ@@@Z 00435eb0 f   HacktoolBlockEx.obj
 0001:00034ed0       ?OnRequestUserHacktoolUseInfo@CHacktoolBlockEx@@QAEXPAUOBJECTSTRUCT@@KE@Z 00435ed0 f   HacktoolBlockEx.obj
 0001:00035050       ??0CHacktoolBlockEx@@QAE@XZ 00436050 f   HacktoolBlockEx.obj
 0001:00035070       ?Init@License@@QAEXXZ      00436070 f   License.obj
 0001:00035090       ?_Chassign@?$basic_string@DU?$char_traits@D@std@@V?$allocator@D@2@@std@@QAEXIID@Z 00436090 f i License.obj
 0001:000350d0       ??0License@@QAE@XZ         004360d0 f   License.obj
 0001:000350e0       ?append@?$basic_string@DU?$char_traits@D@std@@V?$allocator@D@2@@std@@QAEAAV12@ID@Z 004360e0 f i License.obj
 0001:00035480       ?Init@MixOption@@QAEXXZ    00436480 f   MixOption.obj
 0001:000354a0       ?ReadData@MixOption@@QAEXPAD@Z 004364a0 f   MixOption.obj
 0001:000355b0       ?Load@MixOption@@QAEXXZ    004365b0 f   MixOption.obj
 0001:000355d0       ?GetMoney@MixOption@@QAEHPAUOBJECTSTRUCT@@H@Z 004365d0 f   MixOption.obj
 0001:00035620       ?GetSuccessRate@MixOption@@QAEHPAUOBJECTSTRUCT@@H@Z 00436620 f   MixOption.obj
 0001:00035670       ?GetOption@MixOption@@QAEXPAUOBJECTSTRUCT@@H@Z 00436670 f   MixOption.obj
 0001:000356b0       ??0MixOption@@QAE@XZ       004366b0 f   MixOption.obj
 0001:000359b0       ?Init@NewsBoard@@QAEXXZ    004369b0 f   NewsBoard.obj
 0001:000359e0       ?ReadListData@NewsBoard@@QAEXPAD@Z 004369e0 f   NewsBoard.obj
 0001:00035b40       ?ReadMainData@NewsBoard@@QAEXPAD@Z 00436b40 f   NewsBoard.obj
 0001:00035b70       ?Load@NewsBoard@@QAEXXZ    00436b70 f   NewsBoard.obj
 0001:00035bb0       ?OpenMain@NewsBoard@@QAEXPAUOBJECTSTRUCT@@@Z 00436bb0 f   NewsBoard.obj
 0001:00035cb0       ?OpenItem@NewsBoard@@QAEXPAUOBJECTSTRUCT@@PAUNEWS_REQ_NEWS@@@Z 00436cb0 f   NewsBoard.obj
 0001:00035dc0       ??0NewsBoard@@QAE@XZ       00436dc0 f   NewsBoard.obj
 0001:00035dd0       ?Init@OfflineAttack@@QAEXXZ 00436dd0 f   OfflineAttack.obj
 0001:00035e10       ??0OfflineAttack@@QAE@XZ   00436e10 f   OfflineAttack.obj
 0001:00035e20       ??1CDoppelgangerMonsterHerd@@UAE@XZ 00436e20 f i Doppelganger.obj
 0001:00035e30       ?Start@CDoppelgangerMonsterHerd@@UAEHXZ 00436e30 f i Doppelganger.obj
 0001:00035e30       ?Start@CXMasMonsterHerd@@UAEHXZ 00436e30 f i XMasAttackEvent.obj
 0001:00035e40       ?MonsterHerdItemDrop@CDoppelgangerMonsterHerd@@UAEHPAUOBJECTSTRUCT@@@Z 00436e40 f i Doppelganger.obj
 0001:00035e40       ?temp@QuestExpLuaBind@@QAEHPAUlua_State@@@Z 00436e40 f i QuestExpLuaBind.obj
 0001:00035e40       ?FDWRITE_MsgDataSend@CwsGameServer@@QAEHI@Z 00436e40 f i wsGameServer.obj
 0001:00035e40       ?DataRecv@CwsGameServer@@QAEHI@Z 00436e40 f i wsGameServer.obj
 0001:00035e40       ?MonsterHerdItemDrop@MonsterHerd@@UAEHPAUOBJECTSTRUCT@@@Z 00436e40 f i MonsterHerd.obj
 0001:00035e50       ??_GCDoppelgangerMonsterHerd@@UAEPAXI@Z 00436e50 f i Doppelganger.obj
 0001:00035e50       ??_ECDoppelgangerMonsterHerd@@UAEPAXI@Z 00436e50 f i Doppelganger.obj
 0001:00035e80       ??_ECDoppelgangerLua@@UAEPAXI@Z 00436e80 f i Doppelganger.obj
 0001:00035e80       ??_GCDoppelgangerLua@@UAEPAXI@Z 00436e80 f i Doppelganger.obj
 0001:00035eb0       ??0CDoppelgangerMonsterHerd@@QAE@XZ 00436eb0 f   Doppelganger.obj
 0001:00035ee0       ?MonsterAttackAction@CDoppelgangerMonsterHerd@@UAEXPAUOBJECTSTRUCT@@0@Z 00436ee0 f   Doppelganger.obj
 0001:00035f30       ?GetRandomLocation@CDoppelgangerMonsterHerd@@UAEHAAE0@Z 00436f30 f   Doppelganger.obj
 0001:00036000       ?SetTotalInfo@CDoppelgangerMonsterHerd@@UAEHHHHH@Z 00437000 f   Doppelganger.obj
 0001:00036080       ?MoveHerd@CDoppelgangerMonsterHerd@@UAEHXZ 00437080 f   Doppelganger.obj
 0001:00036120       ?IsActive@CDoppelgangerMonsterHerd@@QAEHXZ 00437120 f   Doppelganger.obj
 0001:00036120       ?GetGemDropPenaltiyRate@CCrywolfSync@@QAEHXZ 00437120 f   CrywolfSync.obj
 0001:00036130       ?SetActive@CDoppelgangerMonsterHerd@@QAEX_N@Z 00437130 f   Doppelganger.obj
 0001:00036140       ??0CDoppelganger@@QAE@XZ   00437140 f   Doppelganger.obj
 0001:00036240       ??1CDoppelganger@@QAE@XZ   00437240 f   Doppelganger.obj
 0001:00036300       ?DoppelgangerInfoLoad@CDoppelganger@@QAEXXZ 00437300 f   Doppelganger.obj
 0001:000363c0       ?GetDoppelgangerState@CDoppelganger@@QAEEXZ 004373c0 f   Doppelganger.obj
 0001:000363d0       ?PickupMarkOfDimensionItem@CDoppelganger@@QAEHPAUOBJECTSTRUCT@@PAVCMapItem@@H@Z 004373d0 f   Doppelganger.obj
 0001:000366f0       ?CalUserLevel@CDoppelganger@@QAEXXZ 004376f0 f   Doppelganger.obj
 0001:000368a0       ?ClearUserData@CDoppelganger@@QAEXXZ 004378a0 f   Doppelganger.obj
 0001:00036920       ?GetUserMaxLevel@CDoppelganger@@QAEHXZ 00437920 f   Doppelganger.obj
 0001:00036930       ?GetUserCount@CDoppelganger@@QAEHXZ 00437930 f   Doppelganger.obj
 0001:00036940       ?GetStartUserCount@CDoppelganger@@QAEHXZ 00437940 f   Doppelganger.obj
 0001:00036950       ?SendNoticeMessage@CDoppelganger@@QAEXPAD@Z 00437950 f   Doppelganger.obj
 0001:000369e0       ?SendDoppelgangerState@CDoppelganger@@QAEXD@Z 004379e0 f   Doppelganger.obj
 0001:00036a60       ?PlatformLugardAct@CDoppelganger@@QAEXPAUOBJECTSTRUCT@@0@Z 00437a60 f   Doppelganger.obj
 0001:00036bf0       ?OpenTreasureBox@CDoppelganger@@QAE_NXZ 00437bf0 f   Doppelganger.obj
 0001:00036c30       ?OpenLastTreasureBox@CDoppelganger@@QAE_NXZ 00437c30 f   Doppelganger.obj
 0001:00036c70       ?GetRandomValue@CDoppelganger@@QAEHH@Z 00437c70 f   Doppelganger.obj
 0001:00036ca0       ?SetHerdStartPosInfo@CDoppelganger@@QAEXHHH@Z 00437ca0 f   Doppelganger.obj
 0001:00036ce0       ?SetHerdEndPosInfo@CDoppelganger@@QAEXHH@Z 00437ce0 f   Doppelganger.obj
 0001:00036d00       ?GetKillerState@CDoppelganger@@QAEEXZ 00437d00 f   Doppelganger.obj
 0001:00036d10       ?GetKillerHp@CDoppelganger@@QAEHXZ 00437d10 f   Doppelganger.obj
 0001:00036d20       ?SetKillerHp@CDoppelganger@@QAEXH@Z 00437d20 f   Doppelganger.obj
 0001:00036d30       ?GetAngerKillerState@CDoppelganger@@QAEEXZ 00437d30 f   Doppelganger.obj
 0001:00036d40       ?GetAngerKillerHp@CDoppelganger@@QAEHXZ 00437d40 f   Doppelganger.obj
 0001:00036d50       ?SetAngerKillerHp@CDoppelganger@@QAEXH@Z 00437d50 f   Doppelganger.obj
 0001:00036d60       ?AddMonsterNormal@CDoppelganger@@QAEXHHH@Z 00437d60 f   Doppelganger.obj
 0001:00036d70       ?SetIceWorkerRegen@CDoppelganger@@QAEXE@Z 00437d70 f   Doppelganger.obj
 0001:00036e60       ?AddIceWorkerIndex@CDoppelganger@@QAEXH@Z 00437e60 f   Doppelganger.obj
 0001:00036e90       ?AddLarvaIndex@CDoppelganger@@QAEXH@Z 00437e90 f   Doppelganger.obj
 0001:00036ec0       ?DelLarvaAll@CDoppelganger@@QAEXXZ 00437ec0 f   Doppelganger.obj
 0001:00036ef0       ?MonsterHerdStart@CDoppelganger@@QAEXH@Z 00437ef0 f   Doppelganger.obj
 0001:00036f20       ?GetDoppelgangerPosIndex@CDoppelganger@@QAEHEE@Z 00437f20 f   Doppelganger.obj
 0001:00036f40       ?SendMonsterGoalCount@CDoppelganger@@QAEXXZ 00437f40 f   Doppelganger.obj
 0001:00036fc0       ?SendDoppelgangerMonserPos@CDoppelganger@@QAEXXZ 00437fc0 f   Doppelganger.obj
 0001:00037040       ?SendDoppelgangerUserPos@CDoppelganger@@QAEXXZ 00438040 f   Doppelganger.obj
 0001:000371f0       ?SelfExplosion@CDoppelganger@@QAEXHPAVCMagicInf@@H@Z 004381f0 f   Doppelganger.obj
 0001:00037360       ?AngerKillerAttack@CDoppelganger@@QAEXPAUOBJECTSTRUCT@@@Z 00438360 f   Doppelganger.obj
 0001:00037490       ?SendDoppelgangerResult@CDoppelganger@@QAEXPAUOBJECTSTRUCT@@E@Z 00438490 f   Doppelganger.obj
 0001:00037510       ?SendDoppelgangerResultAll@CDoppelganger@@QAEXXZ 00438510 f   Doppelganger.obj
 0001:000375f0       ?MoveDoppelgangerMonsterProc@CDoppelganger@@QAEXXZ 004385f0 f   Doppelganger.obj
 0001:000378d0       ?GetRandomLocation@CDoppelganger@@QAE_NAAE0@Z 004388d0 f   Doppelganger.obj
 0001:000379a0       ?GetRandomLocation@CDoppelganger@@QAE_NAAE0H@Z 004389a0 f   Doppelganger.obj
 0001:000379f0       ?AddMiddleTreasureBox@CDoppelganger@@QAEHHEE@Z 004389f0 f   Doppelganger.obj
 0001:00037be0       ?AddLastTreasureBox@CDoppelganger@@QAE_NEE@Z 00438be0 f   Doppelganger.obj
 0001:00037df0       ?AddMonsterLarva@CDoppelganger@@QAEHHEEHHHHH@Z 00438df0 f   Doppelganger.obj
 0001:00037ff0       ?DelTreasureBox@CDoppelganger@@QAEXHH@Z 00438ff0 f   Doppelganger.obj
 0001:00038060       ?CheckMapTile@CDoppelganger@@QAEHHEE@Z 00439060 f   Doppelganger.obj
 0001:00038080       ?SendMapTileInfo@CDoppelganger@@QAEXPAUOBJECTSTRUCT@@D@Z 00439080 f   Doppelganger.obj
 0001:00038120       ?SendMapTileInfoAll@CDoppelganger@@QAEXE@Z 00439120 f   Doppelganger.obj
 0001:00038180       ?GetDefaultMonsterInfo@CDoppelganger@@QAEPAUMONSTER_ATTRIBUTE@@H@Z 00439180 f   Doppelganger.obj
 0001:000381d0       ?GetDefaultMonsterLevel@CDoppelganger@@QAEHH@Z 004391d0 f   Doppelganger.obj
 0001:00038200       ?GetDefaultMonsterHp@CDoppelganger@@QAEHH@Z 00439200 f   Doppelganger.obj
 0001:00038230       ?GetDefaultMonsterAttackMax@CDoppelganger@@QAEHH@Z 00439230 f   Doppelganger.obj
 0001:00038260       ?GetDefaultMonsterAttackMin@CDoppelganger@@QAEHH@Z 00439260 f   Doppelganger.obj
 0001:00038290       ?GetDefaultMonsterDefense@CDoppelganger@@QAEHH@Z 00439290 f   Doppelganger.obj
 0001:000382c0       ?GetMonsterLevelWeight@CDoppelganger@@QAEMXZ 004392c0 f   Doppelganger.obj
 0001:000382d0       ?GetMonsterHpWeight@CDoppelganger@@QAEMXZ 004392d0 f   Doppelganger.obj
 0001:000382e0       ?GetMonsterAttackWeight@CDoppelganger@@QAEMXZ 004392e0 f   Doppelganger.obj
 0001:000382f0       ?GetMonsterDefenseWeight@CDoppelganger@@QAEMXZ 004392f0 f   Doppelganger.obj
 0001:00038300       ?GetMissionResult@CDoppelganger@@QAEHXZ 00439300 f   Doppelganger.obj
 0001:00038310       ?SetMiddleBossIndex@CDoppelganger@@QAEXHH@Z 00439310 f   Doppelganger.obj
 0001:00038360       ?SetMiddleBossKill@CDoppelganger@@QAEXHH@Z 00439360 f   Doppelganger.obj
 0001:000383d0       ?SendDoppelgangerTimerMsg@CDoppelganger@@QAEXH@Z 004393d0 f   Doppelganger.obj
 0001:00038450       ?ChangeUserIndex@CDoppelganger@@QAEHHH@Z 00439450 f   Doppelganger.obj
 0001:000384c0       ?SendDoppelgangerStateToSpecificUser@CDoppelganger@@QAEXHD@Z 004394c0 f   Doppelganger.obj
 0001:00038570       ?GetPlayUserCountRightNow@CDoppelganger@@QAEHXZ 00439570 f   Doppelganger.obj
 0001:00038660       ?gc_obj@?$Luna@VCDoppelgangerLua@@@@SAHPAUlua_State@@@Z 00439660 f i Doppelganger.obj
 0001:00038690       ?thunk@?$Luna@VCDoppelgangerLua@@@@SAHPAUlua_State@@@Z 00439690 f i Doppelganger.obj
 0001:000386f0       ?MonsterBaseAct@CDoppelgangerMonsterHerd@@UAEXPAUOBJECTSTRUCT@@@Z 004396f0 f   Doppelganger.obj
 0001:00038aa0       ?SetDoppelgangerStateNone@CDoppelganger@@QAEXXZ 00439aa0 f   Doppelganger.obj
 0001:00038b80       ?SetDoppelgangerStateReady@CDoppelganger@@QAEXXZ 00439b80 f   Doppelganger.obj
 0001:00038cd0       ?SetDoppelgangerStateEnd@CDoppelganger@@QAEXXZ 00439cd0 f   Doppelganger.obj
 0001:00038db0       ?AddDoppelgangerUser@CDoppelganger@@QAE_NH@Z 00439db0 f   Doppelganger.obj
 0001:00038fd0       ?DelDoppelgangerUser@CDoppelganger@@QAEXH@Z 00439fd0 f   Doppelganger.obj
 0001:00039080       ?SetUserAverageLevel@CDoppelganger@@QAEXXZ 0043a080 f   Doppelganger.obj
 0001:00039180       ?MiddleTreasureAct@CDoppelganger@@QAEXPAUOBJECTSTRUCT@@0@Z 0043a180 f   Doppelganger.obj
 0001:000394b0       ?LastTreasureAct@CDoppelganger@@QAEXPAUOBJECTSTRUCT@@0@Z 0043a4b0 f   Doppelganger.obj
 0001:000395f0       ?GetMonseterHerdIndex@CDoppelganger@@QAEHXZ 0043a5f0 f   Doppelganger.obj
 0001:00039640       ?CheckIceWorker@CDoppelganger@@QAE_NXZ 0043a640 f   Doppelganger.obj
 0001:00039770       ?AddMiddleTreasureBoxAll@CDoppelganger@@QAE_NEE@Z 0043a770 f   Doppelganger.obj
 0001:00039890       ?inject@?$Luna@VCDoppelgangerLua@@@@SAHPAUlua_State@@PAVCDoppelgangerLua@@@Z 0043a890 f i Doppelganger.obj
 0001:00039940       ?SetDoppelgangerStatePlaying@CDoppelganger@@QAEXXZ 0043a940 f   Doppelganger.obj
 0001:00039af0       ?EnterDoppelgangerEvent@CDoppelganger@@QAE_NHE@Z 0043aaf0 f   Doppelganger.obj
 0001:00039d70       ?LeaveDoppelgangerEvent@CDoppelganger@@QAE_NH@Z 0043ad70 f   Doppelganger.obj
 0001:00039db0       ?DelIceWorkerIndex@CDoppelganger@@QAEXH@Z 0043adb0 f   Doppelganger.obj
 0001:00039df0       ?constructor@?$Luna@VCDoppelgangerLua@@@@SAHPAUlua_State@@@Z 0043adf0 f i Doppelganger.obj
 0001:00039e30       ?SetDoppelgangerState@CDoppelganger@@QAEXE@Z 0043ae30 f   Doppelganger.obj
 0001:00039e90       ?ProcDoppelgangerState_None@CDoppelganger@@QAEXH@Z 0043ae90 f   Doppelganger.obj
 0001:00039ee0       ?ProcDoppelgangerState_Ready@CDoppelganger@@QAEXH@Z 0043aee0 f   Doppelganger.obj
 0001:00039f50       ?ProcDoppelgangerState_End@CDoppelganger@@QAEXH@Z 0043af50 f   Doppelganger.obj
 0001:0003a170       ?CheckDoppelgangerMosterPos@CDoppelganger@@QAEXPAUOBJECTSTRUCT@@@Z 0043b170 f   Doppelganger.obj
 0001:0003a300       ?Register@?$Luna@VCDoppelgangerLua@@@@SAXPAUlua_State@@@Z 0043b300 f i Doppelganger.obj
 0001:0003a360       ?_Insert@?$_Tree@V?$_Tmap_traits@HU_tagWaiting@@U?$less@H@std@@V?$allocator@U?$pair@$$CBHU_tagWaiting@@@std@@@3@$0A@@std@@@std@@IAE?AV?$_Tree_iterator@V?$_Tree_val@V?$_Tmap_traits@HU_tagWaiting@@U?$less@H@std@@V?$allocator@U?$pair@$$CBHU_tagWaiting@@@std@@@3@$0A@@std@@@std@@@2@_NPAU_Node@?$_Tree_nod@V?$_Tmap_traits@HU_tagWaiting@@U?$less@H@std@@V?$allocator@U?$pair@$$CBHU_tagWaiting@@@std@@@3@$0A@@std@@@2@1@Z 0043b360 f i NewPVP.obj
 0001:0003a360       ?_Insert@?$_Tree@V?$_Tmap_traits@HU_MONSTER_HERD_DATA@@U?$less@H@std@@V?$allocator@U?$pair@$$CBHU_MONSTER_HERD_DATA@@@std@@@3@$0A@@std@@@std@@IAE?AV?$_Tree_iterator@V?$_Tree_val@V?$_Tmap_traits@HU_MONSTER_HERD_DATA@@U?$less@H@std@@V?$allocator@U?$pair@$$CBHU_MONSTER_HERD_DATA@@@std@@@3@$0A@@std@@@std@@@2@_NPAU_Node@?$_Tree_nod@V?$_Tmap_traits@HU_MONSTER_HERD_DATA@@U?$less@H@std@@V?$allocator@U?$pair@$$CBHU_MONSTER_HERD_DATA@@@std@@@3@$0A@@std@@@2@1@Z 0043b360 f i Doppelganger.obj
 0001:0003a590       ??$_Cons_val@V?$allocator@U?$pair@$$CBHU_MONSTER_HERD_DATA@@@std@@@std@@U?$pair@$$CBHU_MONSTER_HERD_DATA@@@2@U?$pair@HU_MONSTER_HERD_DATA@@@2@@std@@YAXAAV?$allocator@U?$pair@$$CBHU_MONSTER_HERD_DATA@@@std@@@0@PAU?$pair@$$CBHU_MONSTER_HERD_DATA@@@0@$$QAU?$pair@HU_MONSTER_HERD_DATA@@@0@@Z 0043b590 f i Doppelganger.obj
 0001:0003a590       ??$_Cons_val@V?$allocator@U?$pair@$$CBHU_tagWaiting@@@std@@@std@@U?$pair@$$CBHU_tagWaiting@@@2@U?$pair@HU_tagWaiting@@@2@@std@@YAXAAV?$allocator@U?$pair@$$CBHU_tagWaiting@@@std@@@0@PAU?$pair@$$CBHU_tagWaiting@@@0@$$QAU?$pair@HU_tagWaiting@@@0@@Z 0043b590 f i NewPVP.obj
 0001:0003a5c0       ?DoppelgangerProcessInit@CDoppelganger@@QAEXXZ 0043b5c0 f   Doppelganger.obj
 0001:0003a680       ?_Linsert@?$_Tree@V?$_Tmap_traits@HU_MONSTER_HERD_DATA@@U?$less@H@std@@V?$allocator@U?$pair@$$CBHU_MONSTER_HERD_DATA@@@std@@@3@$0A@@std@@@std@@QAE?AU?$pair@V?$_Tree_iterator@V?$_Tree_val@V?$_Tmap_traits@HU_MONSTER_HERD_DATA@@U?$less@H@std@@V?$allocator@U?$pair@$$CBHU_MONSTER_HERD_DATA@@@std@@@3@$0A@@std@@@std@@@std@@_N@2@PAU_Node@?$_Tree_nod@V?$_Tmap_traits@HU_MONSTER_HERD_DATA@@U?$less@H@std@@V?$allocator@U?$pair@$$CBHU_MONSTER_HERD_DATA@@@std@@@3@$0A@@std@@@2@_N@Z 0043b680 f i Doppelganger.obj
 0001:0003a680       ?_Linsert@?$_Tree@V?$_Tmap_traits@HU_tagWaiting@@U?$less@H@std@@V?$allocator@U?$pair@$$CBHU_tagWaiting@@@std@@@3@$0A@@std@@@std@@QAE?AU?$pair@V?$_Tree_iterator@V?$_Tree_val@V?$_Tmap_traits@HU_tagWaiting@@U?$less@H@std@@V?$allocator@U?$pair@$$CBHU_tagWaiting@@@std@@@3@$0A@@std@@@std@@@std@@_N@2@PAU_Node@?$_Tree_nod@V?$_Tmap_traits@HU_tagWaiting@@U?$less@H@std@@V?$allocator@U?$pair@$$CBHU_tagWaiting@@@std@@@3@$0A@@std@@@2@_N@Z 0043b680 f i NewPVP.obj
 0001:0003a760       ??$_Buynode@U?$pair@HU_MONSTER_HERD_DATA@@@std@@@?$_Tree_val@V?$_Tmap_traits@HU_MONSTER_HERD_DATA@@U?$less@H@std@@V?$allocator@U?$pair@$$CBHU_MONSTER_HERD_DATA@@@std@@@3@$0A@@std@@@std@@QAEPAU_Node@?$_Tree_nod@V?$_Tmap_traits@HU_MONSTER_HERD_DATA@@U?$less@H@std@@V?$allocator@U?$pair@$$CBHU_MONSTER_HERD_DATA@@@std@@@3@$0A@@std@@@1@$$QAU?$pair@HU_MONSTER_HERD_DATA@@@1@@Z 0043b760 f i Doppelganger.obj
 0001:0003a760       ??$_Buynode@U?$pair@HU_tagWaiting@@@std@@@?$_Tree_val@V?$_Tmap_traits@HU_tagWaiting@@U?$less@H@std@@V?$allocator@U?$pair@$$CBHU_tagWaiting@@@std@@@3@$0A@@std@@@std@@QAEPAU_Node@?$_Tree_nod@V?$_Tmap_traits@HU_tagWaiting@@U?$less@H@std@@V?$allocator@U?$pair@$$CBHU_tagWaiting@@@std@@@3@$0A@@std@@@1@$$QAU?$pair@HU_tagWaiting@@@1@@Z 0043b760 f i NewPVP.obj
 0001:0003a7e0       ?ArrangeMonsterHerd@CDoppelgangerMonsterHerd@@QAEXXZ 0043b7e0 f   Doppelganger.obj
 0001:0003a880       ?ArrangeMonsterHerd@CDoppelganger@@QAEXXZ 0043b880 f   Doppelganger.obj
 0001:0003aa00       ?AddMonsterEX@CDoppelgangerMonsterHerd@@QAEHHHHHHHH@Z 0043ba00 f   Doppelganger.obj
 0001:0003acb0       ?ProcDoppelgangerState_Playing@CDoppelganger@@QAEXH@Z 0043bcb0 f   Doppelganger.obj
 0001:0003ae30       ?AddMonsterHerd@CDoppelganger@@QAEXHHH@Z 0043be30 f   Doppelganger.obj
 0001:0003b0b0       ?ProcDoppelganger@CDoppelganger@@QAEXH@Z 0043c0b0 f   Doppelganger.obj
 0001:0003b440       ?GetMonsterLevelWeight@CDoppelgangerEventInfo@@QAEMXZ 0043c440 f   DoppelgangerEventInfo.obj
 0001:0003b450       ?GetMonsterHpWeight@CDoppelgangerEventInfo@@QAEMXZ 0043c450 f   DoppelgangerEventInfo.obj
 0001:0003b460       ?GetMonsterAttackWeight@CDoppelgangerEventInfo@@QAEMXZ 0043c460 f   DoppelgangerEventInfo.obj
 0001:0003b470       ?GetMonsterDefenseWeight@CDoppelgangerEventInfo@@QAEMXZ 0043c470 f   DoppelgangerEventInfo.obj
 0001:0003b480       ?GetMiddleItemDropCnt@CDoppelgangerEventInfo@@QAEHXZ 0043c480 f   DoppelgangerEventInfo.obj
 0001:0003b490       ?GetMiddleItemBagIndex@CDoppelgangerEventInfo@@QAEHH@Z 0043c490 f   DoppelgangerEventInfo.obj
 0001:0003b4a0       ?GetMiddleItemDropRate@CDoppelgangerEventInfo@@QAEHH@Z 0043c4a0 f   DoppelgangerEventInfo.obj
 0001:0003b4b0       ?GetLastItemDropCnt@CDoppelgangerEventInfo@@QAEHXZ 0043c4b0 f   DoppelgangerEventInfo.obj
 0001:0003b4c0       ?GetLastItemBagIndex@CDoppelgangerEventInfo@@QAEHH@Z 0043c4c0 f   DoppelgangerEventInfo.obj
 0001:0003b4e0       ?GetLastItemDropRate@CDoppelgangerEventInfo@@QAEHH@Z 0043c4e0 f   DoppelgangerEventInfo.obj
 0001:0003b500       ?_Max@?$_Tree_val@V?$_Tmap_traits@HUDOPPELGANGER_EVENT_INFO@@U?$less@H@std@@V?$allocator@U?$pair@$$CBHUDOPPELGANGER_EVENT_INFO@@@std@@@3@$0A@@std@@@std@@SAPAU_Node@?$_Tree_nod@V?$_Tmap_traits@HUDOPPELGANGER_EVENT_INFO@@U?$less@H@std@@V?$allocator@U?$pair@$$CBHUDOPPELGANGER_EVENT_INFO@@@std@@@3@$0A@@std@@@2@PAU342@@Z 0043c500 f i DoppelgangerEventInfo.obj
 0001:0003b530       ?_Min@?$_Tree_val@V?$_Tmap_traits@HUDOPPELGANGER_EVENT_INFO@@U?$less@H@std@@V?$allocator@U?$pair@$$CBHUDOPPELGANGER_EVENT_INFO@@@std@@@3@$0A@@std@@@std@@SAPAU_Node@?$_Tree_nod@V?$_Tmap_traits@HUDOPPELGANGER_EVENT_INFO@@U?$less@H@std@@V?$allocator@U?$pair@$$CBHUDOPPELGANGER_EVENT_INFO@@@std@@@3@$0A@@std@@@2@PAU342@@Z 0043c530 f i DoppelgangerEventInfo.obj
 0001:0003b550       ??E?$_Tree_unchecked_const_iterator@V?$_Tree_val@V?$_Tmap_traits@HUDOPPELGANGER_EVENT_INFO@@U?$less@H@std@@V?$allocator@U?$pair@$$CBHUDOPPELGANGER_EVENT_INFO@@@std@@@3@$0A@@std@@@std@@U_Iterator_base0@2@@std@@QAEAAV01@XZ 0043c550 f i DoppelgangerEventInfo.obj
 0001:0003b5b0       ??F?$_Tree_unchecked_const_iterator@V?$_Tree_val@V?$_Tmap_traits@HUDOPPELGANGER_EVENT_INFO@@U?$less@H@std@@V?$allocator@U?$pair@$$CBHUDOPPELGANGER_EVENT_INFO@@@std@@@3@$0A@@std@@@std@@U_Iterator_base0@2@@std@@QAEAAV01@XZ 0043c5b0 f i DoppelgangerEventInfo.obj
 0001:0003b630       ?_Lrotate@?$_Tree@V?$_Tmap_traits@HUDOPPELGANGER_EVENT_INFO@@U?$less@H@std@@V?$allocator@U?$pair@$$CBHUDOPPELGANGER_EVENT_INFO@@@std@@@3@$0A@@std@@@std@@IAEXPAU_Node@?$_Tree_nod@V?$_Tmap_traits@HUDOPPELGANGER_EVENT_INFO@@U?$less@H@std@@V?$allocator@U?$pair@$$CBHUDOPPELGANGER_EVENT_INFO@@@std@@@3@$0A@@std@@@2@@Z 0043c630 f i DoppelgangerEventInfo.obj
 0001:0003b690       ?_Rrotate@?$_Tree@V?$_Tmap_traits@HUDOPPELGANGER_EVENT_INFO@@U?$less@H@std@@V?$allocator@U?$pair@$$CBHUDOPPELGANGER_EVENT_INFO@@@std@@@3@$0A@@std@@@std@@IAEXPAU_Node@?$_Tree_nod@V?$_Tmap_traits@HUDOPPELGANGER_EVENT_INFO@@U?$less@H@std@@V?$allocator@U?$pair@$$CBHUDOPPELGANGER_EVENT_INFO@@@std@@@3@$0A@@std@@@2@@Z 0043c690 f i DoppelgangerEventInfo.obj
 0001:0003b6f0       ?_Erase@?$_Tree@V?$_Tmap_traits@HUDOPPELGANGER_EVENT_INFO@@U?$less@H@std@@V?$allocator@U?$pair@$$CBHUDOPPELGANGER_EVENT_INFO@@@std@@@3@$0A@@std@@@std@@IAEXPAU_Node@?$_Tree_nod@V?$_Tmap_traits@HUDOPPELGANGER_EVENT_INFO@@U?$less@H@std@@V?$allocator@U?$pair@$$CBHUDOPPELGANGER_EVENT_INFO@@@std@@@3@$0A@@std@@@2@@Z 0043c6f0 f i DoppelgangerEventInfo.obj
 0001:0003b730       ?erase@?$_Tree@V?$_Tmap_traits@HUDOPPELGANGER_EVENT_INFO@@U?$less@H@std@@V?$allocator@U?$pair@$$CBHUDOPPELGANGER_EVENT_INFO@@@std@@@3@$0A@@std@@@std@@QAE?AV?$_Tree_iterator@V?$_Tree_val@V?$_Tmap_traits@HUDOPPELGANGER_EVENT_INFO@@U?$less@H@std@@V?$allocator@U?$pair@$$CBHUDOPPELGANGER_EVENT_INFO@@@std@@@3@$0A@@std@@@std@@@2@V?$_Tree_const_iterator@V?$_Tree_val@V?$_Tmap_traits@HUDOPPELGANGER_EVENT_INFO@@U?$less@H@std@@V?$allocator@U?$pair@$$CBHUDOPPELGANGER_EVENT_INFO@@@std@@@3@$0A@@std@@@std@@@2@@Z 0043c730 f i DoppelgangerEventInfo.obj
 0001:0003ba10       ?_Insert@?$_Tree@V?$_Tmap_traits@HUDOPPELGANGER_EVENT_INFO@@U?$less@H@std@@V?$allocator@U?$pair@$$CBHUDOPPELGANGER_EVENT_INFO@@@std@@@3@$0A@@std@@@std@@IAE?AV?$_Tree_iterator@V?$_Tree_val@V?$_Tmap_traits@HUDOPPELGANGER_EVENT_INFO@@U?$less@H@std@@V?$allocator@U?$pair@$$CBHUDOPPELGANGER_EVENT_INFO@@@std@@@3@$0A@@std@@@std@@@2@_NPAU_Node@?$_Tree_nod@V?$_Tmap_traits@HUDOPPELGANGER_EVENT_INFO@@U?$less@H@std@@V?$allocator@U?$pair@$$CBHUDOPPELGANGER_EVENT_INFO@@@std@@@3@$0A@@std@@@2@1@Z 0043ca10 f i DoppelgangerEventInfo.obj
 0001:0003bc20       ??$_Cons_val@V?$allocator@U?$pair@$$CBHUDOPPELGANGER_EVENT_INFO@@@std@@@std@@U?$pair@$$CBHUDOPPELGANGER_EVENT_INFO@@@2@U?$pair@HUDOPPELGANGER_EVENT_INFO@@@2@@std@@YAXAAV?$allocator@U?$pair@$$CBHUDOPPELGANGER_EVENT_INFO@@@std@@@0@PAU?$pair@$$CBHUDOPPELGANGER_EVENT_INFO@@@0@$$QAU?$pair@HUDOPPELGANGER_EVENT_INFO@@@0@@Z 0043cc20 f i DoppelgangerEventInfo.obj
 0001:0003bc50       ?clear@?$_Tree@V?$_Tmap_traits@HUDOPPELGANGER_EVENT_INFO@@U?$less@H@std@@V?$allocator@U?$pair@$$CBHUDOPPELGANGER_EVENT_INFO@@@std@@@3@$0A@@std@@@std@@QAEXXZ 0043cc50 f i DoppelgangerEventInfo.obj
 0001:0003bcb0       ?erase@?$_Tree@V?$_Tmap_traits@HUDOPPELGANGER_EVENT_INFO@@U?$less@H@std@@V?$allocator@U?$pair@$$CBHUDOPPELGANGER_EVENT_INFO@@@std@@@3@$0A@@std@@@std@@QAE?AV?$_Tree_iterator@V?$_Tree_val@V?$_Tmap_traits@HUDOPPELGANGER_EVENT_INFO@@U?$less@H@std@@V?$allocator@U?$pair@$$CBHUDOPPELGANGER_EVENT_INFO@@@std@@@3@$0A@@std@@@std@@@2@V?$_Tree_const_iterator@V?$_Tree_val@V?$_Tmap_traits@HUDOPPELGANGER_EVENT_INFO@@U?$less@H@std@@V?$allocator@U?$pair@$$CBHUDOPPELGANGER_EVENT_INFO@@@std@@@3@$0A@@std@@@std@@@2@0@Z 0043ccb0 f i DoppelgangerEventInfo.obj
 0001:0003bd70       ?_Linsert@?$_Tree@V?$_Tmap_traits@HUDOPPELGANGER_EVENT_INFO@@U?$less@H@std@@V?$allocator@U?$pair@$$CBHUDOPPELGANGER_EVENT_INFO@@@std@@@3@$0A@@std@@@std@@QAE?AU?$pair@V?$_Tree_iterator@V?$_Tree_val@V?$_Tmap_traits@HUDOPPELGANGER_EVENT_INFO@@U?$less@H@std@@V?$allocator@U?$pair@$$CBHUDOPPELGANGER_EVENT_INFO@@@std@@@3@$0A@@std@@@std@@@std@@_N@2@PAU_Node@?$_Tree_nod@V?$_Tmap_traits@HUDOPPELGANGER_EVENT_INFO@@U?$less@H@std@@V?$allocator@U?$pair@$$CBHUDOPPELGANGER_EVENT_INFO@@@std@@@3@$0A@@std@@@2@_N@Z 0043cd70 f i DoppelgangerEventInfo.obj
 0001:0003be50       ??$_Buynode@U?$pair@HUDOPPELGANGER_EVENT_INFO@@@std@@@?$_Tree_val@V?$_Tmap_traits@HUDOPPELGANGER_EVENT_INFO@@U?$less@H@std@@V?$allocator@U?$pair@$$CBHUDOPPELGANGER_EVENT_INFO@@@std@@@3@$0A@@std@@@std@@QAEPAU_Node@?$_Tree_nod@V?$_Tmap_traits@HUDOPPELGANGER_EVENT_INFO@@U?$less@H@std@@V?$allocator@U?$pair@$$CBHUDOPPELGANGER_EVENT_INFO@@@std@@@3@$0A@@std@@@1@$$QAU?$pair@HUDOPPELGANGER_EVENT_INFO@@@1@@Z 0043ce50 f i DoppelgangerEventInfo.obj
 0001:0003bed0       ?find@?$_Tree@V?$_Tmap_traits@HUDOPPELGANGER_EVENT_INFO@@U?$less@H@std@@V?$allocator@U?$pair@$$CBHUDOPPELGANGER_EVENT_INFO@@@std@@@3@$0A@@std@@@std@@QAE?AV?$_Tree_iterator@V?$_Tree_val@V?$_Tmap_traits@HUDOPPELGANGER_EVENT_INFO@@U?$less@H@std@@V?$allocator@U?$pair@$$CBHUDOPPELGANGER_EVENT_INFO@@@std@@@3@$0A@@std@@@std@@@2@ABH@Z 0043ced0 f i DoppelgangerEventInfo.obj
 0001:0003bf40       ?LoadDopplegangereventinfo@CDoppelgangerEventInfo@@QAEXXZ 0043cf40 f   DoppelgangerEventInfo.obj
 0001:0003c380       ?GetDoppelgangerEventInfo@CDoppelgangerEventInfo@@QAEPAUDOPPELGANGER_EVENT_INFO@@H@Z 0043d380 f   DoppelgangerEventInfo.obj
 0001:0003c3d0       ?SetDoppelgangerInfo@CDoppelgangerEventInfo@@QAE_NHH@Z 0043d3d0 f   DoppelgangerEventInfo.obj
 0001:0003c410       ??1CDoppelgangerEventInfo@@UAE@XZ 0043d410 f   DoppelgangerEventInfo.obj
 0001:0003c480       ??0CDoppelgangerEventInfo@@QAE@XZ 0043d480 f   DoppelgangerEventInfo.obj
 0001:0003c500       ??_GCDoppelgangerEventInfo@@UAEPAXI@Z 0043d500 f i DoppelgangerEventInfo.obj
 0001:0003c500       ??_ECDoppelgangerEventInfo@@UAEPAXI@Z 0043d500 f i DoppelgangerEventInfo.obj
 0001:0003c870       ?DoppelgangerItemDrop@CDoppelgangerItemBag@@QAE_NPAUOBJECTSTRUCT@@HHE@Z 0043d870 f   DoppelgangerItemBag.obj
 0001:0003cd70       ?allocate@?$allocator@UDOPPELGANGER_DROP_ITEM_GROUP_INFO@@@std@@QAEPAUDOPPELGANGER_DROP_ITEM_GROUP_INFO@@I@Z 0043dd70 f i DoppelgangerItemBag.obj
 0001:0003cdd0       ??$_Uninit_move@PAUCASTLEDEEP_EVENTTIME@@PAU1@V?$allocator@UCASTLEDEEP_EVENTTIME@@@std@@U1@@std@@YAPAUCASTLEDEEP_EVENTTIME@@PAU1@00AAV?$allocator@UCASTLEDEEP_EVENTTIME@@@0@0U_Nonscalar_ptr_iterator_tag@0@@Z 0043ddd0 f i CastleDeepEvent.obj
 0001:0003cdd0       ??$_Uninit_move@PAUtagPOINT@@PAU1@V?$allocator@UtagPOINT@@@std@@U1@@std@@YAPAUtagPOINT@@PAU1@00AAV?$allocator@UtagPOINT@@@0@0U_Nonscalar_ptr_iterator_tag@0@@Z 0043ddd0 f i ChaosCastle.obj
 0001:0003cdd0       ??$_Uninit_move@PAU_stMonsterIndexInfo@@PAU1@V?$allocator@U_stMonsterIndexInfo@@@std@@U1@@std@@YAPAU_stMonsterIndexInfo@@PAU1@00AAV?$allocator@U_stMonsterIndexInfo@@@0@0U_Nonscalar_ptr_iterator_tag@0@@Z 0043ddd0 f i ImperialGuardian.obj
 0001:0003cdd0       ??$_Uninit_move@PAUXMASMONSTER_EVENT_TIME@@PAU1@V?$allocator@UXMASMONSTER_EVENT_TIME@@@std@@U1@@std@@YAPAUXMASMONSTER_EVENT_TIME@@PAU1@00AAV?$allocator@UXMASMONSTER_EVENT_TIME@@@0@0U_Nonscalar_ptr_iterator_tag@0@@Z 0043ddd0 f i XMasAttackEvent.obj
 0001:0003cdd0       ??$_Uninit_move@PAVCItemBagAttrEx@@PAV1@V?$allocator@VCItemBagAttrEx@@@std@@V1@@std@@YAPAVCItemBagAttrEx@@PAV1@00AAV?$allocator@VCItemBagAttrEx@@@0@0U_Nonscalar_ptr_iterator_tag@0@@Z 0043ddd0 f i DoppelgangerItemBag.obj
 0001:0003cdd0       ??$_Uninit_move@PAURINGMONSTER_EVENT_TIME@@PAU1@V?$allocator@URINGMONSTER_EVENT_TIME@@@std@@U1@@std@@YAPAURINGMONSTER_EVENT_TIME@@PAU1@00AAV?$allocator@URINGMONSTER_EVENT_TIME@@@0@0U_Nonscalar_ptr_iterator_tag@0@@Z 0043ddd0 f i RingAttackEvent.obj
 0001:0003cdd0       ??$_Uninit_move@PAUCASTLEDEEP_SPAWNTIME@@PAU1@V?$allocator@UCASTLEDEEP_SPAWNTIME@@@std@@U1@@std@@YAPAUCASTLEDEEP_SPAWNTIME@@PAU1@00AAV?$allocator@UCASTLEDEEP_SPAWNTIME@@@0@0U_Nonscalar_ptr_iterator_tag@0@@Z 0043ddd0 f i CastleDeepEvent.obj
 0001:0003cdd0       ??$_Uninit_move@PAUCHAOSCASTLE_START_TIME@@PAU1@V?$allocator@UCHAOSCASTLE_START_TIME@@@std@@U1@@std@@YAPAUCHAOSCASTLE_START_TIME@@PAU1@00AAV?$allocator@UCHAOSCASTLE_START_TIME@@@0@0U_Nonscalar_ptr_iterator_tag@0@@Z 0043ddd0 f i ChaosCastle.obj
 0001:0003ce10       ??1DOPPELGANGER_DROP_ITEM_GROUP_INFO@@QAE@XZ 0043de10 f i DoppelgangerItemBag.obj
 0001:0003ce40       ??$_Cons_val@V?$allocator@UDOPPELGANGER_DROP_ITEM_GROUP_INFO@@@std@@UDOPPELGANGER_DROP_ITEM_GROUP_INFO@@U3@@std@@YAXAAV?$allocator@UDOPPELGANGER_DROP_ITEM_GROUP_INFO@@@0@PAUDOPPELGANGER_DROP_ITEM_GROUP_INFO@@$$QAU2@@Z 0043de40 f i DoppelgangerItemBag.obj
 0001:0003ce40       ??$_Cons_val@V?$allocator@UDOPPELGANGER_DROP_ITEM_GROUP_INFO@@@std@@UDOPPELGANGER_DROP_ITEM_GROUP_INFO@@AAU3@@std@@YAXAAV?$allocator@UDOPPELGANGER_DROP_ITEM_GROUP_INFO@@@0@PAUDOPPELGANGER_DROP_ITEM_GROUP_INFO@@AAU2@@Z 0043de40 f i DoppelgangerItemBag.obj
 0001:0003ceb0       ??$_Cons_val@V?$allocator@UDOPPELGANGER_DROP_ITEM_GROUP_INFO@@@std@@UDOPPELGANGER_DROP_ITEM_GROUP_INFO@@ABU3@@std@@YAXAAV?$allocator@UDOPPELGANGER_DROP_ITEM_GROUP_INFO@@@0@PAUDOPPELGANGER_DROP_ITEM_GROUP_INFO@@ABU2@@Z 0043deb0 f i DoppelgangerItemBag.obj
 0001:0003cf30       ??$_Dest_val@V?$allocator@UDOPPELGANGER_DROP_ITEM_GROUP_INFO@@@std@@UDOPPELGANGER_DROP_ITEM_GROUP_INFO@@@std@@YAXAAV?$allocator@UDOPPELGANGER_DROP_ITEM_GROUP_INFO@@@0@PAUDOPPELGANGER_DROP_ITEM_GROUP_INFO@@@Z 0043df30 f i DoppelgangerItemBag.obj
 0001:0003cf60       ??$_Uninit_move@PAUDOPPELGANGER_DROP_ITEM_GROUP_INFO@@PAU1@V?$allocator@UDOPPELGANGER_DROP_ITEM_GROUP_INFO@@@std@@U1@@std@@YAPAUDOPPELGANGER_DROP_ITEM_GROUP_INFO@@PAU1@00AAV?$allocator@UDOPPELGANGER_DROP_ITEM_GROUP_INFO@@@0@0U_Nonscalar_ptr_iterator_tag@0@@Z 0043df60 f i DoppelgangerItemBag.obj
 0001:0003d000       ?_Destroy@?$vector@UDOPPELGANGER_DROP_ITEM_GROUP_INFO@@V?$allocator@UDOPPELGANGER_DROP_ITEM_GROUP_INFO@@@std@@@std@@IAEXPAUDOPPELGANGER_DROP_ITEM_GROUP_INFO@@0@Z 0043e000 f i DoppelgangerItemBag.obj
 0001:0003d030       ?reserve@?$vector@UDOPPELGANGER_DROP_ITEM_GROUP_INFO@@V?$allocator@UDOPPELGANGER_DROP_ITEM_GROUP_INFO@@@std@@@std@@QAEXI@Z 0043e030 f i DoppelgangerItemBag.obj
 0001:0003d130       ??0CDoppelgangerItemBag@@QAE@XZ 0043e130 f   DoppelgangerItemBag.obj
 0001:0003d150       ??1CDoppelgangerItemBag@@UAE@XZ 0043e150 f   DoppelgangerItemBag.obj
 0001:0003d1a0       ??_GCDoppelgangerItemBag@@UAEPAXI@Z 0043e1a0 f i DoppelgangerItemBag.obj
 0001:0003d1a0       ??_ECDoppelgangerItemBag@@UAEPAXI@Z 0043e1a0 f i DoppelgangerItemBag.obj
 0001:0003d1d0       ?LoadDoppelgangerItemBag@CDoppelgangerItemBag@@QAEXXZ 0043e1d0 f   DoppelgangerItemBag.obj
 0001:0003d940       ??1CDoppelgangerLua@@UAE@XZ 0043e940 f   DoppelgangerLua.obj
 0001:0003d950       ?LuaGetMinUserLevel@CDoppelgangerLua@@QAEHPAUlua_State@@@Z 0043e950 f   DoppelgangerLua.obj
 0001:0003d950       ?LuaGetMaxUserLevel@CDoppelgangerLua@@QAEHPAUlua_State@@@Z 0043e950 f   DoppelgangerLua.obj
 0001:0003d990       ?LuaGetUserCount@CDoppelgangerLua@@QAEHPAUlua_State@@@Z 0043e990 f   DoppelgangerLua.obj
 0001:0003d9d0       ?LuaSetReadyTime@CDoppelgangerLua@@QAEHPAUlua_State@@@Z 0043e9d0 f   DoppelgangerLua.obj
 0001:0003da00       ?LuaSetPlayTime@CDoppelgangerLua@@QAEHPAUlua_State@@@Z 0043ea00 f   DoppelgangerLua.obj
 0001:0003da30       ?LuaSetEndTime@CDoppelgangerLua@@QAEHPAUlua_State@@@Z 0043ea30 f   DoppelgangerLua.obj
 0001:0003da60       ?LuaGetLocalTime@CDoppelgangerLua@@QAEHPAUlua_State@@@Z 0043ea60 f   DoppelgangerLua.obj
 0001:0003da90       ?LuaGetStateTime@CDoppelgangerLua@@QAEHPAUlua_State@@@Z 0043ea90 f   DoppelgangerLua.obj
 0001:0003dac0       ?LuaSetHerdStartPosInfo@CDoppelgangerLua@@QAEHPAUlua_State@@@Z 0043eac0 f   DoppelgangerLua.obj
 0001:0003db10       ?LuaSetHerdEndPosInfo@CDoppelgangerLua@@QAEHPAUlua_State@@@Z 0043eb10 f   DoppelgangerLua.obj
 0001:0003db50       ?LuaAddMonsterHerd@CDoppelgangerLua@@QAEHPAUlua_State@@@Z 0043eb50 f   DoppelgangerLua.obj
 0001:0003dba0       ?LuaAddMonsterNormal@CDoppelgangerLua@@QAEHPAUlua_State@@@Z 0043eba0 f   DoppelgangerLua.obj
 0001:0003dbf0       ?LuaIceworkerRegen@CDoppelgangerLua@@QAEHPAUlua_State@@@Z 0043ebf0 f   DoppelgangerLua.obj
 0001:0003dc20       ?LuaGetMonsterHerdIndex@CDoppelgangerLua@@QAEHPAUlua_State@@@Z 0043ec20 f   DoppelgangerLua.obj
 0001:0003dc60       ?LuaIncMonsterHerdIndex@CDoppelgangerLua@@QAEHPAUlua_State@@@Z 0043ec60 f   DoppelgangerLua.obj
 0001:0003dc70       ?LuaMonsterHerdStart@CDoppelgangerLua@@QAEHPAUlua_State@@@Z 0043ec70 f   DoppelgangerLua.obj
 0001:0003dca0       ?LuaGetMapNumber@CDoppelgangerLua@@QAEHPAUlua_State@@@Z 0043eca0 f   DoppelgangerLua.obj
 0001:0003dcd0       ?LuaGetRandomValue@CDoppelgangerLua@@QAEHPAUlua_State@@@Z 0043ecd0 f   DoppelgangerLua.obj
 0001:0003dd20       ?LuaSetAddHerdMonsterTime@CDoppelgangerLua@@QAEHPAUlua_State@@@Z 0043ed20 f   DoppelgangerLua.obj
 0001:0003dd50       ?LuaGetAddHerdMonsterTime@CDoppelgangerLua@@QAEHPAUlua_State@@@Z 0043ed50 f   DoppelgangerLua.obj
 0001:0003dd80       ?LuaSetAddBossMonsterTime@CDoppelgangerLua@@QAEHPAUlua_State@@@Z 0043ed80 f   DoppelgangerLua.obj
 0001:0003ddb0       ?LuaGetAddBossMonsterTime@CDoppelgangerLua@@QAEHPAUlua_State@@@Z 0043edb0 f   DoppelgangerLua.obj
 0001:0003dde0       ?LuaGetBossRegenOrder@CDoppelgangerLua@@QAEHPAUlua_State@@@Z 0043ede0 f   DoppelgangerLua.obj
 0001:0003de10       ?LuaSetBossRegenOrder@CDoppelgangerLua@@QAEHPAUlua_State@@@Z 0043ee10 f   DoppelgangerLua.obj
 0001:0003de40       ?LuaGetBossMonsterState@CDoppelgangerLua@@QAEHPAUlua_State@@@Z 0043ee40 f   DoppelgangerLua.obj
 0001:0003de80       ?LuaSetBossMonsterState@CDoppelgangerLua@@QAEHPAUlua_State@@@Z 0043ee80 f   DoppelgangerLua.obj
 0001:0003deb0       ?LuaGetLastBossMonsterState@CDoppelgangerLua@@QAEHPAUlua_State@@@Z 0043eeb0 f   DoppelgangerLua.obj
 0001:0003def0       ?LuaSetLastBossMonsterState@CDoppelgangerLua@@QAEHPAUlua_State@@@Z 0043eef0 f   DoppelgangerLua.obj
 0001:0003e260       ??0CDoppelgangerPosInfo@@QAE@XZ 0043f260 f   DoppelgangerPosInfo.obj
 0001:0003e270       ??1CDoppelgangerPosInfo@@UAE@XZ 0043f270 f   DoppelgangerPosInfo.obj
 0001:0003e280       ?LoadDoppelgangerPosInfo@CDoppelgangerPosInfo@@QAEXXZ 0043f280 f   DoppelgangerPosInfo.obj
 0001:0003ea30       ?GetCenterPosition@CDoppelgangerPosInfo@@QAEXHHAAE0@Z 0043fa30 f   DoppelgangerPosInfo.obj
 0001:0003ea80       ?GetPosIndex@CDoppelgangerPosInfo@@QAEHHEE@Z 0043fa80 f   DoppelgangerPosInfo.obj
 0001:0003ead0       ?GetStartMapAttr@CDoppelgangerPosInfo@@QAEXHAAE000@Z 0043fad0 f   DoppelgangerPosInfo.obj
 0001:0003eb10       ?CheckStartMapTile@CDoppelgangerPosInfo@@QAE_NHEE@Z 0043fb10 f   DoppelgangerPosInfo.obj
 0001:0003eb40       ??_GCDoppelgangerPosInfo@@UAEPAXI@Z 0043fb40 f i DoppelgangerPosInfo.obj
 0001:0003eb40       ??_ECDoppelgangerPosInfo@@UAEPAXI@Z 0043fb40 f i DoppelgangerPosInfo.obj
 0001:0003eeb0       ?GetLevelIndex@CEventDungeonItemBag@@QAEHHH@Z 0043feb0 f   EventDungeonItemBag.obj
 0001:0003eef0       ?GetDropZen@CEventDungeonItemBag@@QAEHHH@Z 0043fef0 f   EventDungeonItemBag.obj
 0001:0003ef20       ?GetDropItemCount@CEventDungeonItemBag@@QAEHHH@Z 0043ff20 f   EventDungeonItemBag.obj
 0001:0003ef50       ?GetLevel@CEventDungeonItemBag@@QAEHHH@Z 0043ff50 f   EventDungeonItemBag.obj
 0001:0003ef80       ?CreateNormalItem@CEventDungeonItemBag@@QAEHHVCEventItemBagAttr@@@Z 0043ff80 f   EventDungeonItemBag.obj
 0001:0003f1f0       ?CreateSetItem@CEventDungeonItemBag@@QAEHHVCEventItemBagAttr@@@Z 004401f0 f   EventDungeonItemBag.obj
 0001:0003f3b0       ?GetRegItemCount@CEventDungeonItemBag@@QAEHHH@Z 004403b0 f   EventDungeonItemBag.obj
 0001:0003f3e0       ?DropEventItem@CEventDungeonItemBag@@QAEHHHH@Z 004403e0 f   EventDungeonItemBag.obj
 0001:0003f5f0       ??$_Cons_val@V?$allocator@UEVENT_ID_TIME@@@std@@UEVENT_ID_TIME@@AAU3@@std@@YAXAAV?$allocator@UEVENT_ID_TIME@@@0@PAUEVENT_ID_TIME@@AAU2@@Z 004405f0 f i EventManagement.obj
 0001:0003f5f0       ??$_Cons_val@V?$allocator@VCEventItemBagAttr@@@std@@VCEventItemBagAttr@@ABV3@@std@@YAXAAV?$allocator@VCEventItemBagAttr@@@0@PAVCEventItemBagAttr@@ABV2@@Z 004405f0 f i EventDungeonItemBag.obj
 0001:0003f5f0       ??$_Cons_val@V?$allocator@UEVENT_ID_TIME@@@std@@UEVENT_ID_TIME@@ABU3@@std@@YAXAAV?$allocator@UEVENT_ID_TIME@@@0@PAUEVENT_ID_TIME@@ABU2@@Z 004405f0 f i EventManagement.obj
 0001:0003f5f0       ??$_Cons_val@V?$allocator@UEVENT_ID_TIME@@@std@@UEVENT_ID_TIME@@U3@@std@@YAXAAV?$allocator@UEVENT_ID_TIME@@@0@PAUEVENT_ID_TIME@@$$QAU2@@Z 004405f0 f i EventManagement.obj
 0001:0003f5f0       ??$_Cons_val@V?$allocator@VCEventItemBagAttr@@@std@@VCEventItemBagAttr@@V3@@std@@YAXAAV?$allocator@VCEventItemBagAttr@@@0@PAVCEventItemBagAttr@@$$QAV2@@Z 004405f0 f i EventDungeonItemBag.obj
 0001:0003f5f0       ??$_Cons_val@V?$allocator@VCEventItemBagAttr@@@std@@VCEventItemBagAttr@@AAV3@@std@@YAXAAV?$allocator@VCEventItemBagAttr@@@0@PAVCEventItemBagAttr@@AAV2@@Z 004405f0 f i EventDungeonItemBag.obj
 0001:0003f620       ?_Reserve@?$vector@VCEventItemBagAttr@@V?$allocator@VCEventItemBagAttr@@@std@@@std@@IAEXI@Z 00440620 f i EventDungeonItemBag.obj
 0001:0003f680       ??0_stEventDungeonItemInfo@@QAE@XZ 00440680 f i EventDungeonItemBag.obj
 0001:0003f6b0       ??1_stEventDungeonItemInfo@@QAE@XZ 004406b0 f i EventDungeonItemBag.obj
 0001:0003f6e0       ??1CEventDungeonItemBag@@UAE@XZ 004406e0 f   EventDungeonItemBag.obj
 0001:0003f700       ?push_back@?$vector@VCEventItemBagAttr@@V?$allocator@VCEventItemBagAttr@@@std@@@std@@QAEXABVCEventItemBagAttr@@@Z 00440700 f i EventDungeonItemBag.obj
 0001:0003f770       ??0CEventDungeonItemBag@@QAE@XZ 00440770 f   EventDungeonItemBag.obj
 0001:0003f7a0       ??_ECEventDungeonItemBag@@UAEPAXI@Z 004407a0 f i EventDungeonItemBag.obj
 0001:0003f7a0       ??_GCEventDungeonItemBag@@UAEPAXI@Z 004407a0 f i EventDungeonItemBag.obj
 0001:0003f7d0       ?LoadScript@CEventDungeonItemBag@@QAEXPBD@Z 004407d0 f   EventDungeonItemBag.obj
 0001:0003fd00       ??1classdef@@UAE@XZ        00440d00 f   classdef.obj
 0001:0003fd10       ?SetEquipment@classdef@@QAEXH@Z 00440d10 f   classdef.obj
 0001:0003ff20       ?GetDefPoint@classdef@@QAEHH@Z 00440f20 f   classdef.obj
 0001:0003ff60       ??0classdef@@QAE@XZ        00440f60 f   classdef.obj
 0001:0003ffa0       ??_Gclassdef@@UAEPAXI@Z    00440fa0 f i classdef.obj
 0001:0003ffa0       ??_Eclassdef@@UAEPAXI@Z    00440fa0 f i classdef.obj
 0001:0003ffd0       ?SetCharacter@classdef@@QAEXHHHHHMMMMMMH@Z 00440fd0 f   classdef.obj
 0001:00040050       ?Init@classdef@@QAEXXZ     00441050 f   classdef.obj
 0001:00040240       ?Init@CLoginCount@@QAEXXZ  00441240 f   CLoginCount.obj
 0001:00040250       ??0CLoginCount@@QAE@XZ     00441250 f   CLoginCount.obj
 0001:00040260       ??0CComboAttack@@QAE@XZ    00441260 f   ComboAttack.obj
 0001:00040270       ??1CComboAttack@@UAE@XZ    00441270 f   ComboAttack.obj
 0001:00040280       ?GetSkillPos@CComboAttack@@AAEHH@Z 00441280 f   ComboAttack.obj
 0001:00040460       ?CheckCombo@CComboAttack@@QAEHHH@Z 00441460 f   ComboAttack.obj
 0001:00040590       ??_GCComboAttack@@UAEPAXI@Z 00441590 f i ComboAttack.obj
 0001:00040590       ??_ECComboAttack@@UAEPAXI@Z 00441590 f i ComboAttack.obj
 0001:000408b0       ?UpdateVipStatus@CConMember@@QAEXXZ 004418b0 f   ConMember.obj
 0001:000408e0       ?RemoveVipStatus@CConMember@@QAEXXZ 004418e0 f   ConMember.obj
 0001:00040910       ?CheckVipStatus@CConMember@@QAEXPADH@Z 00441910 f   ConMember.obj
 0001:00040970       ?_Max@?$_Tree_val@V?$_Tmap_traits@V?$basic_string@DU?$char_traits@D@std@@V?$allocator@D@2@@std@@PAU_GUILD_INFO_STRUCT@@U?$less@V?$basic_string@DU?$char_traits@D@std@@V?$allocator@D@2@@std@@@2@V?$allocator@U?$pair@$$CBV?$basic_string@DU?$char_traits@D@std@@V?$allocator@D@2@@std@@PAU_GUILD_INFO_STRUCT@@@std@@@2@$0A@@std@@@std@@SAPAU_Node@?$_Tree_nod@V?$_Tmap_traits@V?$basic_string@DU?$char_traits@D@std@@V?$allocator@D@2@@std@@PAU_GUILD_INFO_STRUCT@@U?$less@V?$basic_string@DU?$char_traits@D@std@@V?$allocator@D@2@@std@@@2@V?$allocator@U?$pair@$$CBV?$basic_string@DU?$char_traits@D@std@@V?$allocator@D@2@@std@@PAU_GUILD_INFO_STRUCT@@@std@@@2@$0A@@std@@@2@PAU342@@Z 00441970 f i GuildClass.obj
 0001:00040970       ?_Max@?$_Tree_val@V?$_Tmap_traits@V?$basic_string@DU?$char_traits@D@std@@V?$allocator@D@2@@std@@HU?$less@V?$basic_string@DU?$char_traits@D@std@@V?$allocator@D@2@@std@@@2@V?$allocator@U?$pair@$$CBV?$basic_string@DU?$char_traits@D@std@@V?$allocator@D@2@@std@@H@std@@@2@$0A@@std@@@std@@SAPAU_Node@?$_Tree_nod@V?$_Tmap_traits@V?$basic_string@DU?$char_traits@D@std@@V?$allocator@D@2@@std@@HU?$less@V?$basic_string@DU?$char_traits@D@std@@V?$allocator@D@2@@std@@@2@V?$allocator@U?$pair@$$CBV?$basic_string@DU?$char_traits@D@std@@V?$allocator@D@2@@std@@H@std@@@2@$0A@@std@@@2@PAU342@@Z 00441970 f i ConMember.obj
 0001:00040990       ?_Min@?$_Tree_val@V?$_Tmap_traits@V?$basic_string@DU?$char_traits@D@std@@V?$allocator@D@2@@std@@PAU_GUILD_INFO_STRUCT@@U?$less@V?$basic_string@DU?$char_traits@D@std@@V?$allocator@D@2@@std@@@2@V?$allocator@U?$pair@$$CBV?$basic_string@DU?$char_traits@D@std@@V?$allocator@D@2@@std@@PAU_GUILD_INFO_STRUCT@@@std@@@2@$0A@@std@@@std@@SAPAU_Node@?$_Tree_nod@V?$_Tmap_traits@V?$basic_string@DU?$char_traits@D@std@@V?$allocator@D@2@@std@@PAU_GUILD_INFO_STRUCT@@U?$less@V?$basic_string@DU?$char_traits@D@std@@V?$allocator@D@2@@std@@@2@V?$allocator@U?$pair@$$CBV?$basic_string@DU?$char_traits@D@std@@V?$allocator@D@2@@std@@PAU_GUILD_INFO_STRUCT@@@std@@@2@$0A@@std@@@2@PAU342@@Z 00441990 f i GuildClass.obj
 0001:00040990       ?_Min@?$_Tree_val@V?$_Tmap_traits@V?$basic_string@DU?$char_traits@D@std@@V?$allocator@D@2@@std@@HU?$less@V?$basic_string@DU?$char_traits@D@std@@V?$allocator@D@2@@std@@@2@V?$allocator@U?$pair@$$CBV?$basic_string@DU?$char_traits@D@std@@V?$allocator@D@2@@std@@H@std@@@2@$0A@@std@@@std@@SAPAU_Node@?$_Tree_nod@V?$_Tmap_traits@V?$basic_string@DU?$char_traits@D@std@@V?$allocator@D@2@@std@@HU?$less@V?$basic_string@DU?$char_traits@D@std@@V?$allocator@D@2@@std@@@2@V?$allocator@U?$pair@$$CBV?$basic_string@DU?$char_traits@D@std@@V?$allocator@D@2@@std@@H@std@@@2@$0A@@std@@@2@PAU342@@Z 00441990 f i ConMember.obj
 0001:000409b0       ?_Incref@facet@locale@std@@QAEXXZ 004419b0 f i ConMember.obj
 0001:000409e0       ?_Decref@facet@locale@std@@QAEPAV123@XZ 004419e0 f i ConMember.obj
 0001:00040a20       ??1facet@locale@std@@UAE@XZ 00441a20 f i ConMember.obj
 0001:00040a30       ??1locale@std@@QAE@XZ      00441a30 f i ConMember.obj
 0001:00040a80       ?NpcDeviasGuard@@YA_NPAUOBJECTSTRUCT@@0@Z 00441a80 f i NpcTalk.obj
 0001:00040a80       ?do_always_noconv@codecvt_base@std@@MBE_NXZ 00441a80 f i ConMember.obj
 0001:00040a90       ?do_max_length@codecvt_base@std@@MBEHXZ 00441a90 f i ConMember.obj
 0001:00040a90       ?Begin@CMiniDump@@SAHXZ    00441a90 f i MiniDump.obj
 0001:00040a90       ?do_encoding@codecvt_base@std@@MBEHXZ 00441a90 f i ConMember.obj
 0001:00040aa0       ?getloc@ios_base@std@@QBE?AVlocale@2@XZ 00441aa0 f i ConMember.obj
 0001:00040ae0       ??_G?$basic_ios@DU?$char_traits@D@std@@@std@@UAEPAXI@Z 00441ae0 f i ConMember.obj
 0001:00040ae0       ??_Eios_base@std@@UAEPAXI@Z 00441ae0 f i ConMember.obj
 0001:00040ae0       ??_E?$basic_ios@DU?$char_traits@D@std@@@std@@UAEPAXI@Z 00441ae0 f i ConMember.obj
 0001:00040ae0       ??_Gios_base@std@@UAEPAXI@Z 00441ae0 f i ConMember.obj
 0001:00040b10       ??1?$basic_ios@DU?$char_traits@D@std@@@std@@UAE@XZ 00441b10 f i ConMember.obj
 0001:00040b20       ??1?$basic_istream@DU?$char_traits@D@std@@@std@@UAE@XZ 00441b20 f i ConMember.obj
 0001:00040b30       ?_Pnavail@?$basic_streambuf@DU?$char_traits@D@std@@@std@@IBE_JXZ 00441b30 f i ConMember.obj
 0001:00040b50       ??1_Sentry_base@?$basic_ostream@DU?$char_traits@D@std@@@std@@QAE@XZ 00441b50 f i ConMember.obj
 0001:00040b70       ??1?$basic_iostream@DU?$char_traits@D@std@@@std@@UAE@XZ 00441b70 f i ConMember.obj
 0001:00040ba0       ?_Reset_back@?$basic_filebuf@DU?$char_traits@D@std@@@std@@AAEXXZ 00441ba0 f i ConMember.obj
 0001:00040bd0       ?getloc@?$basic_streambuf@DU?$char_traits@D@std@@@std@@QBE?AVlocale@2@XZ 00441bd0 f i ConMember.obj
 0001:00040c10       ?_Init@?$basic_streambuf@DU?$char_traits@D@std@@@std@@IAEXXZ 00441c10 f i ConMember.obj
 0001:00040c70       ?do_in@?$codecvt@DDH@std@@MBEHAAHPBD1AAPBDPAD3AAPAD@Z 00441c70 f i ConMember.obj
 0001:00040c70       ?do_out@?$codecvt@DDH@std@@MBEHAAHPBD1AAPBDPAD3AAPAD@Z 00441c70 f i ConMember.obj
 0001:00040c90       ?do_unshift@?$codecvt@DDH@std@@MBEHAAHPAD1AAPAD@Z 00441c90 f i ConMember.obj
 0001:00040cb0       ?do_length@?$codecvt@DDH@std@@MBEHABHPBD1I@Z 00441cb0 f i ConMember.obj
 0001:00040cd0       ??_E?$codecvt@DDH@std@@MAEPAXI@Z 00441cd0 f i ConMember.obj
 0001:00040cd0       ??_Efacet@locale@std@@UAEPAXI@Z 00441cd0 f i ConMember.obj
 0001:00040cd0       ??_G?$codecvt@DDH@std@@MAEPAXI@Z 00441cd0 f i ConMember.obj
 0001:00040cd0       ??_Gfacet@locale@std@@UAEPAXI@Z 00441cd0 f i ConMember.obj
 0001:00040d00       ?do_tolower@?$ctype@D@std@@MBEDD@Z 00441d00 f i ConMember.obj
 0001:00040d20       ?do_tolower@?$ctype@D@std@@MBEPBDPADPBD@Z 00441d20 f i ConMember.obj
 0001:00040d50       ?do_toupper@?$ctype@D@std@@MBEDD@Z 00441d50 f i ConMember.obj
 0001:00040d70       ?do_toupper@?$ctype@D@std@@MBEPBDPADPBD@Z 00441d70 f i ConMember.obj
 0001:00040da0       ?do_widen@?$ctype@D@std@@MBEDD@Z 00441da0 f i ConMember.obj
 0001:00040db0       ?do_widen@?$ctype@D@std@@MBEPBDPBD0PAD@Z 00441db0 f i ConMember.obj
 0001:00040de0       ?do_narrow@?$ctype@D@std@@MBEDDD@Z 00441de0 f i ConMember.obj
 0001:00040df0       ?do_narrow@?$ctype@D@std@@MBEPBDPBD0DPAD@Z 00441df0 f i ConMember.obj
 0001:00040e20       ??_G?$ctype@D@std@@MAEPAXI@Z 00441e20 f i ConMember.obj
 0001:00040e20       ??_E?$ctype@D@std@@MAEPAXI@Z 00441e20 f i ConMember.obj
 0001:00040e70       ??_Eruntime_error@std@@UAEPAXI@Z 00441e70 f i ConMember.obj
 0001:00040e70       ??_Efailure@ios_base@std@@UAEPAXI@Z 00441e70 f i ConMember.obj
 0001:00040e70       ??_Gsystem_error@std@@UAEPAXI@Z 00441e70 f i ConMember.obj
 0001:00040e70       ??_Esystem_error@std@@UAEPAXI@Z 00441e70 f i ConMember.obj
 0001:00040e70       ??_Gfailure@ios_base@std@@UAEPAXI@Z 00441e70 f i ConMember.obj
 0001:00040e70       ??_Gruntime_error@std@@UAEPAXI@Z 00441e70 f i ConMember.obj
 0001:00040ea0       ??1runtime_error@std@@UAE@XZ 00441ea0 f i ConMember.obj
 0001:00040ea0       ??1failure@ios_base@std@@UAE@XZ 00441ea0 f i ConMember.obj
 0001:00040eb0       ?clear@ios_base@std@@QAEXH_N@Z 00441eb0 f i ConMember.obj
 0001:00040f90       ??0runtime_error@std@@QAE@ABV01@@Z 00441f90 f i ConMember.obj
 0001:00040fb0       ??0system_error@std@@QAE@ABV01@@Z 00441fb0 f i ConMember.obj
 0001:00040fe0       ?_Init@ios_base@std@@IAEXXZ 00441fe0 f i ConMember.obj
 0001:00041070       ??0failure@ios_base@std@@QAE@ABV012@@Z 00442070 f i ConMember.obj
 0001:000410a0       ??1?$_Yarn@D@std@@QAE@XZ   004420a0 f i ConMember.obj
 0001:000410c0       ??1?$basic_streambuf@DU?$char_traits@D@std@@@std@@UAE@XZ 004420c0 f i ConMember.obj
 0001:00041140       ?_Lock@?$basic_streambuf@DU?$char_traits@D@std@@@std@@UAEXXZ 00442140 f i ConMember.obj
 0001:00041150       ?_Unlock@?$basic_streambuf@DU?$char_traits@D@std@@@std@@UAEXXZ 00442150 f i ConMember.obj
 0001:00041160       ?overflow@?$basic_streambuf@DU?$char_traits@D@std@@@std@@MAEHH@Z 00442160 f i ConMember.obj
 0001:00041160       ?pbackfail@?$basic_streambuf@DU?$char_traits@D@std@@@std@@MAEHH@Z 00442160 f i ConMember.obj
 0001:00041170       ?showmanyc@?$basic_streambuf@DU?$char_traits@D@std@@@std@@MAE_JXZ 00442170 f i ConMember.obj
 0001:00041180       ?underflow@?$basic_streambuf@DU?$char_traits@D@std@@@std@@MAEHXZ 00442180 f i ConMember.obj
 0001:00041190       ?setbuf@?$basic_streambuf@DU?$char_traits@D@std@@@std@@MAEPAV12@PAD_J@Z 00442190 f i ConMember.obj
 0001:000411a0       ?_Gnavail@?$basic_streambuf@DU?$char_traits@D@std@@@std@@IBE_JXZ 004421a0 f i ConMember.obj
 0001:000411c0       ?uflow@?$basic_streambuf@DU?$char_traits@D@std@@@std@@MAEHXZ 004421c0 f i ConMember.obj
 0001:000411f0       ?xsgetn@?$basic_streambuf@DU?$char_traits@D@std@@@std@@MAE_JPAD_J@Z 004421f0 f i ConMember.obj
 0001:000412c0       ?xsputn@?$basic_streambuf@DU?$char_traits@D@std@@@std@@MAE_JPBD_J@Z 004422c0 f i ConMember.obj
 0001:00041390       ?seekoff@?$basic_streambuf@DU?$char_traits@D@std@@@std@@MAE?AV?$fpos@H@2@_JHH@Z 00442390 f i ConMember.obj
 0001:000413c0       ?seekpos@?$basic_streambuf@DU?$char_traits@D@std@@@std@@MAE?AV?$fpos@H@2@V32@H@Z 004423c0 f i ConMember.obj
 0001:000413f0       ??_G?$basic_ostream@DU?$char_traits@D@std@@@std@@UAEPAXI@Z 004423f0 f i ConMember.obj
 0001:000413f0       ??_E?$basic_ostream@DU?$char_traits@D@std@@@std@@UAEPAXI@Z 004423f0 f i ConMember.obj
 0001:00041430       ??_E?$basic_istream@DU?$char_traits@D@std@@@std@@UAEPAXI@Z 00442430 f i ConMember.obj
 0001:00041430       ??_G?$basic_istream@DU?$char_traits@D@std@@@std@@UAEPAXI@Z 00442430 f i ConMember.obj
 0001:00041470       ??_G?$basic_streambuf@DU?$char_traits@D@std@@@std@@UAEPAXI@Z 00442470 f i ConMember.obj
 0001:00041470       ??_E?$basic_streambuf@DU?$char_traits@D@std@@@std@@UAEPAXI@Z 00442470 f i ConMember.obj
 0001:000414a0       ??_G?$basic_iostream@DU?$char_traits@D@std@@@std@@UAEPAXI@Z 004424a0 f i ConMember.obj
 0001:000414a0       ??_E?$basic_iostream@DU?$char_traits@D@std@@@std@@UAEPAXI@Z 004424a0 f i ConMember.obj
 0001:00041500       ?_Init@?$basic_filebuf@DU?$char_traits@D@std@@@std@@IAEXPAU_iobuf@@W4_Initfl@12@@Z 00442500 f i ConMember.obj
 0001:000415a0       ??0?$basic_streambuf@DU?$char_traits@D@std@@@std@@IAE@XZ 004425a0 f i ConMember.obj
 0001:00041690       ??0_Locinfo@std@@QAE@PBD@Z 00442690 f i ConMember.obj
 0001:00041740       ??1_Locinfo@std@@QAE@XZ    00442740 f i ConMember.obj
 0001:000417f0       ?_Getcat@?$ctype@D@std@@SAIPAPBVfacet@locale@2@PBV42@@Z 004427f0 f i ConMember.obj
 0001:000418d0       ??$use_facet@V?$ctype@D@std@@@std@@YAABV?$ctype@D@0@ABVlocale@0@@Z 004428d0 f i ConMember.obj
 0001:00041a10       ??$_Fputc@D@std@@YA_NDPAU_iobuf@@@Z 00442a10 f i ConMember.obj
 0001:00041a30       ?_Lock@?$basic_filebuf@DU?$char_traits@D@std@@@std@@UAEXXZ 00442a30 f i ConMember.obj
 0001:00041a40       ?_Unlock@?$basic_filebuf@DU?$char_traits@D@std@@@std@@UAEXXZ 00442a40 f i ConMember.obj
 0001:00041a50       ?underflow@?$basic_filebuf@DU?$char_traits@D@std@@@std@@MAEHXZ 00442a50 f i ConMember.obj
 0001:00041aa0       ?sync@?$basic_filebuf@DU?$char_traits@D@std@@@std@@MAEHXZ 00442aa0 f i ConMember.obj
 0001:00041ad0       ?_Set_back@?$basic_filebuf@DU?$char_traits@D@std@@@std@@AAEXXZ 00442ad0 f i ConMember.obj
 0001:00041b10       ?pbackfail@?$basic_filebuf@DU?$char_traits@D@std@@@std@@MAEHH@Z 00442b10 f i ConMember.obj
 0001:00041ba0       ?setbuf@?$basic_filebuf@DU?$char_traits@D@std@@@std@@MAEPAV?$basic_streambuf@DU?$char_traits@D@std@@@2@PAD_J@Z 00442ba0 f i ConMember.obj
 0001:00041c00       ?widen@?$basic_ios@DU?$char_traits@D@std@@@std@@QBEDD@Z 00442c00 f i ConMember.obj
 0001:00041cb0       ?_Getcat@?$codecvt@DDH@std@@SAIPAPBVfacet@locale@2@PBV42@@Z 00442cb0 f i ConMember.obj
 0001:00041d60       ?flush@?$basic_ostream@DU?$char_traits@D@std@@@std@@QAEAAV12@XZ 00442d60 f i ConMember.obj
 0001:00041db0       ?_Osfx@?$basic_ostream@DU?$char_traits@D@std@@@std@@QAEXXZ 00442db0 f i ConMember.obj
 0001:00041e10       ??$use_facet@V?$codecvt@DDH@std@@@std@@YAABV?$codecvt@DDH@0@ABVlocale@0@@Z 00442e10 f i ConMember.obj
 0001:00041f50       ??1sentry@?$basic_ostream@DU?$char_traits@D@std@@@std@@QAE@XZ 00442f50 f i ConMember.obj
 0001:00041fc0       ?uflow@?$basic_filebuf@DU?$char_traits@D@std@@@std@@MAEHXZ 00442fc0 f i ConMember.obj
 0001:000421b0       ?imbue@?$basic_filebuf@DU?$char_traits@D@std@@@std@@MAEXABVlocale@2@@Z 004431b0 f i ConMember.obj
 0001:000421f0       ?open@?$basic_filebuf@DU?$char_traits@D@std@@@std@@QAEPAV12@PBDHH@Z 004431f0 f i ConMember.obj
 0001:000422d0       ?_Endwrite@?$basic_filebuf@DU?$char_traits@D@std@@@std@@IAE_NXZ 004432d0 f i ConMember.obj
 0001:00042410       ??$?6U?$char_traits@D@std@@@std@@YAAAV?$basic_ostream@DU?$char_traits@D@std@@@0@AAV10@PBD@Z 00443410 f i ConMember.obj
 0001:000426d0       ?find@?$_Tree@V?$_Tmap_traits@V?$basic_string@DU?$char_traits@D@std@@V?$allocator@D@2@@std@@HU?$less@V?$basic_string@DU?$char_traits@D@std@@V?$allocator@D@2@@std@@@2@V?$allocator@U?$pair@$$CBV?$basic_string@DU?$char_traits@D@std@@V?$allocator@D@2@@std@@H@std@@@2@$0A@@std@@@std@@QAE?AV?$_Tree_iterator@V?$_Tree_val@V?$_Tmap_traits@V?$basic_string@DU?$char_traits@D@std@@V?$allocator@D@2@@std@@HU?$less@V?$basic_string@DU?$char_traits@D@std@@V?$allocator@D@2@@std@@@2@V?$allocator@U?$pair@$$CBV?$basic_string@DU?$char_traits@D@std@@V?$allocator@D@2@@std@@H@std@@@2@$0A@@std@@@std@@@2@ABV?$basic_string@DU?$char_traits@D@std@@V?$allocator@D@2@@2@@Z 004436d0 f i ConMember.obj
 0001:00042740       ?overflow@?$basic_filebuf@DU?$char_traits@D@std@@@std@@MAEHH@Z 00443740 f i ConMember.obj
 0001:00042930       ?seekoff@?$basic_filebuf@DU?$char_traits@D@std@@@std@@MAE?AV?$fpos@H@2@_JHH@Z 00443930 f i ConMember.obj
 0001:00042a20       ?seekpos@?$basic_filebuf@DU?$char_traits@D@std@@@std@@MAE?AV?$fpos@H@2@V32@H@Z 00443a20 f i ConMember.obj
 0001:00042b00       ?close@?$basic_filebuf@DU?$char_traits@D@std@@@std@@QAEPAV12@XZ 00443b00 f i ConMember.obj
 0001:00042b90       ??1?$basic_filebuf@DU?$char_traits@D@std@@@std@@UAE@XZ 00443b90 f i ConMember.obj
 0001:00042c20       ??_E?$basic_filebuf@DU?$char_traits@D@std@@@std@@UAEPAXI@Z 00443c20 f i ConMember.obj
 0001:00042c20       ??_G?$basic_filebuf@DU?$char_traits@D@std@@@std@@UAEPAXI@Z 00443c20 f i ConMember.obj
 0001:00042cc0       ?IsMember@CConMember@@QAEHPAD@Z 00443cc0 f   ConMember.obj
 0001:00042db0       ??0?$basic_fstream@DU?$char_traits@D@std@@@std@@QAE@PBDHH@Z 00443db0 f i ConMember.obj
 0001:00042f40       ??1?$basic_fstream@DU?$char_traits@D@std@@@std@@UAE@XZ 00443f40 f i ConMember.obj
 0001:00043010       ??_D?$basic_fstream@DU?$char_traits@D@std@@@std@@QAEXXZ 00444010 f i ConMember.obj
 0001:00043030       ??_E?$basic_fstream@DU?$char_traits@D@std@@@std@@UAEPAXI@Z 00444030 f i ConMember.obj
 0001:00043030       ??_G?$basic_fstream@DU?$char_traits@D@std@@@std@@UAEPAXI@Z 00444030 f i ConMember.obj
 0001:00043070       ??$_Dest_val@V?$allocator@U?$pair@$$CBV?$basic_string@DU?$char_traits@D@std@@V?$allocator@D@2@@std@@PAU_GUILD_INFO_STRUCT@@@std@@@std@@U?$pair@$$CBV?$basic_string@DU?$char_traits@D@std@@V?$allocator@D@2@@std@@PAU_GUILD_INFO_STRUCT@@@2@@std@@YAXAAV?$allocator@U?$pair@$$CBV?$basic_string@DU?$char_traits@D@std@@V?$allocator@D@2@@std@@PAU_GUILD_INFO_STRUCT@@@std@@@0@PAU?$pair@$$CBV?$basic_string@DU?$char_traits@D@std@@V?$allocator@D@2@@std@@PAU_GUILD_INFO_STRUCT@@@0@@Z 00444070 f i GuildClass.obj
 0001:00043070       ??$_Dest_val@V?$allocator@U?$pair@$$CBV?$basic_string@DU?$char_traits@D@std@@V?$allocator@D@2@@std@@H@std@@@std@@U?$pair@$$CBV?$basic_string@DU?$char_traits@D@std@@V?$allocator@D@2@@std@@H@2@@std@@YAXAAV?$allocator@U?$pair@$$CBV?$basic_string@DU?$char_traits@D@std@@V?$allocator@D@2@@std@@H@std@@@0@PAU?$pair@$$CBV?$basic_string@DU?$char_traits@D@std@@V?$allocator@D@2@@std@@H@0@@Z 00444070 f i ConMember.obj
 0001:000430a0       ?InsertUser@CConMember@@QAEXPAD@Z 004440a0 f   ConMember.obj
 0001:000431f0       ?_Erase@?$_Tree@V?$_Tmap_traits@V?$basic_string@DU?$char_traits@D@std@@V?$allocator@D@2@@std@@HU?$less@V?$basic_string@DU?$char_traits@D@std@@V?$allocator@D@2@@std@@@2@V?$allocator@U?$pair@$$CBV?$basic_string@DU?$char_traits@D@std@@V?$allocator@D@2@@std@@H@std@@@2@$0A@@std@@@std@@IAEXPAU_Node@?$_Tree_nod@V?$_Tmap_traits@V?$basic_string@DU?$char_traits@D@std@@V?$allocator@D@2@@std@@HU?$less@V?$basic_string@DU?$char_traits@D@std@@V?$allocator@D@2@@std@@@2@V?$allocator@U?$pair@$$CBV?$basic_string@DU?$char_traits@D@std@@V?$allocator@D@2@@std@@H@std@@@2@$0A@@std@@@2@@Z 004441f0 f i ConMember.obj
 0001:000431f0       ?_Erase@?$_Tree@V?$_Tmap_traits@V?$basic_string@DU?$char_traits@D@std@@V?$allocator@D@2@@std@@PAU_GUILD_INFO_STRUCT@@U?$less@V?$basic_string@DU?$char_traits@D@std@@V?$allocator@D@2@@std@@@2@V?$allocator@U?$pair@$$CBV?$basic_string@DU?$char_traits@D@std@@V?$allocator@D@2@@std@@PAU_GUILD_INFO_STRUCT@@@std@@@2@$0A@@std@@@std@@IAEXPAU_Node@?$_Tree_nod@V?$_Tmap_traits@V?$basic_string@DU?$char_traits@D@std@@V?$allocator@D@2@@std@@PAU_GUILD_INFO_STRUCT@@U?$less@V?$basic_string@DU?$char_traits@D@std@@V?$allocator@D@2@@std@@@2@V?$allocator@U?$pair@$$CBV?$basic_string@DU?$char_traits@D@std@@V?$allocator@D@2@@std@@PAU_GUILD_INFO_STRUCT@@@std@@@2@$0A@@std@@@2@@Z 004441f0 f i GuildClass.obj
 0001:00043240       ?erase@?$_Tree@V?$_Tmap_traits@V?$basic_string@DU?$char_traits@D@std@@V?$allocator@D@2@@std@@HU?$less@V?$basic_string@DU?$char_traits@D@std@@V?$allocator@D@2@@std@@@2@V?$allocator@U?$pair@$$CBV?$basic_string@DU?$char_traits@D@std@@V?$allocator@D@2@@std@@H@std@@@2@$0A@@std@@@std@@QAE?AV?$_Tree_iterator@V?$_Tree_val@V?$_Tmap_traits@V?$basic_string@DU?$char_traits@D@std@@V?$allocator@D@2@@std@@HU?$less@V?$basic_string@DU?$char_traits@D@std@@V?$allocator@D@2@@std@@@2@V?$allocator@U?$pair@$$CBV?$basic_string@DU?$char_traits@D@std@@V?$allocator@D@2@@std@@H@std@@@2@$0A@@std@@@std@@@2@V?$_Tree_const_iterator@V?$_Tree_val@V?$_Tmap_traits@V?$basic_string@DU?$char_traits@D@std@@V?$allocator@D@2@@std@@HU?$less@V?$basic_string@DU?$char_traits@D@std@@V?$allocator@D@2@@std@@@2@V?$allocator@U?$pair@$$CBV?$basic_string@DU?$char_traits@D@std@@V?$allocator@D@2@@std@@H@std@@@2@$0A@@std@@@std@@@2@@Z 00444240 f i ConMember.obj
 0001:00043240       ?erase@?$_Tree@V?$_Tmap_traits@V?$basic_string@DU?$char_traits@D@std@@V?$allocator@D@2@@std@@PAU_GUILD_INFO_STRUCT@@U?$less@V?$basic_string@DU?$char_traits@D@std@@V?$allocator@D@2@@std@@@2@V?$allocator@U?$pair@$$CBV?$basic_string@DU?$char_traits@D@std@@V?$allocator@D@2@@std@@PAU_GUILD_INFO_STRUCT@@@std@@@2@$0A@@std@@@std@@QAE?AV?$_Tree_iterator@V?$_Tree_val@V?$_Tmap_traits@V?$basic_string@DU?$char_traits@D@std@@V?$allocator@D@2@@std@@PAU_GUILD_INFO_STRUCT@@U?$less@V?$basic_string@DU?$char_traits@D@std@@V?$allocator@D@2@@std@@@2@V?$allocator@U?$pair@$$CBV?$basic_string@DU?$char_traits@D@std@@V?$allocator@D@2@@std@@PAU_GUILD_INFO_STRUCT@@@std@@@2@$0A@@std@@@std@@@2@V?$_Tree_const_iterator@V?$_Tree_val@V?$_Tmap_traits@V?$basic_string@DU?$char_traits@D@std@@V?$allocator@D@2@@std@@PAU_GUILD_INFO_STRUCT@@U?$less@V?$basic_string@DU?$char_traits@D@std@@V?$allocator@D@2@@std@@@2@V?$allocator@U?$pair@$$CBV?$basic_string@DU?$char_traits@D@std@@V?$allocator@D@2@@std@@PAU_GUILD_INFO_STRUCT@@@std@@@2@$0A@@std@@@std@@@2@@Z 00444240 f i GuildClass.obj
 0001:000434a0       ?_Linsert@?$_Tree@V?$_Tmap_traits@V?$basic_string@DU?$char_traits@D@std@@V?$allocator@D@2@@std@@HU?$less@V?$basic_string@DU?$char_traits@D@std@@V?$allocator@D@2@@std@@@2@V?$allocator@U?$pair@$$CBV?$basic_string@DU?$char_traits@D@std@@V?$allocator@D@2@@std@@H@std@@@2@$0A@@std@@@std@@QAE?AU?$pair@V?$_Tree_iterator@V?$_Tree_val@V?$_Tmap_traits@V?$basic_string@DU?$char_traits@D@std@@V?$allocator@D@2@@std@@HU?$less@V?$basic_string@DU?$char_traits@D@std@@V?$allocator@D@2@@std@@@2@V?$allocator@U?$pair@$$CBV?$basic_string@DU?$char_traits@D@std@@V?$allocator@D@2@@std@@H@std@@@2@$0A@@std@@@std@@@std@@_N@2@PAU_Node@?$_Tree_nod@V?$_Tmap_traits@V?$basic_string@DU?$char_traits@D@std@@V?$allocator@D@2@@std@@HU?$less@V?$basic_string@DU?$char_traits@D@std@@V?$allocator@D@2@@std@@@2@V?$allocator@U?$pair@$$CBV?$basic_string@DU?$char_traits@D@std@@V?$allocator@D@2@@std@@H@std@@@2@$0A@@std@@@2@_N@Z 004444a0 f i ConMember.obj
 0001:000434a0       ?_Linsert@?$_Tree@V?$_Tmap_traits@V?$basic_string@DU?$char_traits@D@std@@V?$allocator@D@2@@std@@PAU_GUILD_INFO_STRUCT@@U?$less@V?$basic_string@DU?$char_traits@D@std@@V?$allocator@D@2@@std@@@2@V?$allocator@U?$pair@$$CBV?$basic_string@DU?$char_traits@D@std@@V?$allocator@D@2@@std@@PAU_GUILD_INFO_STRUCT@@@std@@@2@$0A@@std@@@std@@QAE?AU?$pair@V?$_Tree_iterator@V?$_Tree_val@V?$_Tmap_traits@V?$basic_string@DU?$char_traits@D@std@@V?$allocator@D@2@@std@@PAU_GUILD_INFO_STRUCT@@U?$less@V?$basic_string@DU?$char_traits@D@std@@V?$allocator@D@2@@std@@@2@V?$allocator@U?$pair@$$CBV?$basic_string@DU?$char_traits@D@std@@V?$allocator@D@2@@std@@PAU_GUILD_INFO_STRUCT@@@std@@@2@$0A@@std@@@std@@@std@@_N@2@PAU_Node@?$_Tree_nod@V?$_Tmap_traits@V?$basic_string@DU?$char_traits@D@std@@V?$allocator@D@2@@std@@PAU_GUILD_INFO_STRUCT@@U?$less@V?$basic_string@DU?$char_traits@D@std@@V?$allocator@D@2@@std@@@2@V?$allocator@U?$pair@$$CBV?$basic_string@DU?$char_traits@D@std@@V?$allocator@D@2@@std@@PAU_GUILD_INFO_STRUCT@@@std@@@2@$0A@@std@@@2@_N@Z 004444a0 f i GuildClass.obj
 0001:00043650       ?erase@?$_Tree@V?$_Tmap_traits@V?$basic_string@DU?$char_traits@D@std@@V?$allocator@D@2@@std@@HU?$less@V?$basic_string@DU?$char_traits@D@std@@V?$allocator@D@2@@std@@@2@V?$allocator@U?$pair@$$CBV?$basic_string@DU?$char_traits@D@std@@V?$allocator@D@2@@std@@H@std@@@2@$0A@@std@@@std@@QAE?AV?$_Tree_iterator@V?$_Tree_val@V?$_Tmap_traits@V?$basic_string@DU?$char_traits@D@std@@V?$allocator@D@2@@std@@HU?$less@V?$basic_string@DU?$char_traits@D@std@@V?$allocator@D@2@@std@@@2@V?$allocator@U?$pair@$$CBV?$basic_string@DU?$char_traits@D@std@@V?$allocator@D@2@@std@@H@std@@@2@$0A@@std@@@std@@@2@V?$_Tree_const_iterator@V?$_Tree_val@V?$_Tmap_traits@V?$basic_string@DU?$char_traits@D@std@@V?$allocator@D@2@@std@@HU?$less@V?$basic_string@DU?$char_traits@D@std@@V?$allocator@D@2@@std@@@2@V?$allocator@U?$pair@$$CBV?$basic_string@DU?$char_traits@D@std@@V?$allocator@D@2@@std@@H@std@@@2@$0A@@std@@@std@@@2@0@Z 00444650 f i ConMember.obj
 0001:00043650       ?erase@?$_Tree@V?$_Tmap_traits@V?$basic_string@DU?$char_traits@D@std@@V?$allocator@D@2@@std@@PAU_GUILD_INFO_STRUCT@@U?$less@V?$basic_string@DU?$char_traits@D@std@@V?$allocator@D@2@@std@@@2@V?$allocator@U?$pair@$$CBV?$basic_string@DU?$char_traits@D@std@@V?$allocator@D@2@@std@@PAU_GUILD_INFO_STRUCT@@@std@@@2@$0A@@std@@@std@@QAE?AV?$_Tree_iterator@V?$_Tree_val@V?$_Tmap_traits@V?$basic_string@DU?$char_traits@D@std@@V?$allocator@D@2@@std@@PAU_GUILD_INFO_STRUCT@@U?$less@V?$basic_string@DU?$char_traits@D@std@@V?$allocator@D@2@@std@@@2@V?$allocator@U?$pair@$$CBV?$basic_string@DU?$char_traits@D@std@@V?$allocator@D@2@@std@@PAU_GUILD_INFO_STRUCT@@@std@@@2@$0A@@std@@@std@@@2@V?$_Tree_const_iterator@V?$_Tree_val@V?$_Tmap_traits@V?$basic_string@DU?$char_traits@D@std@@V?$allocator@D@2@@std@@PAU_GUILD_INFO_STRUCT@@U?$less@V?$basic_string@DU?$char_traits@D@std@@V?$allocator@D@2@@std@@@2@V?$allocator@U?$pair@$$CBV?$basic_string@DU?$char_traits@D@std@@V?$allocator@D@2@@std@@PAU_GUILD_INFO_STRUCT@@@std@@@2@$0A@@std@@@std@@@2@0@Z 00444650 f i GuildClass.obj
 0001:00043710       ?Init@CConMember@@QAEXXZ   00444710 f   ConMember.obj
 0001:00043740       ??$_Cons_val@V?$allocator@U?$pair@$$CBV?$basic_string@DU?$char_traits@D@std@@V?$allocator@D@2@@std@@H@std@@@std@@U?$pair@$$CBV?$basic_string@DU?$char_traits@D@std@@V?$allocator@D@2@@std@@H@2@U?$pair@V?$basic_string@DU?$char_traits@D@std@@V?$allocator@D@2@@std@@H@2@@std@@YAXAAV?$allocator@U?$pair@$$CBV?$basic_string@DU?$char_traits@D@std@@V?$allocator@D@2@@std@@H@std@@@0@PAU?$pair@$$CBV?$basic_string@DU?$char_traits@D@std@@V?$allocator@D@2@@std@@H@0@$$QAU?$pair@V?$basic_string@DU?$char_traits@D@std@@V?$allocator@D@2@@std@@H@0@@Z 00444740 f i ConMember.obj
 0001:000437b0       ??$_Buynode@U?$pair@V?$basic_string@DU?$char_traits@D@std@@V?$allocator@D@2@@std@@H@std@@@?$_Tree_val@V?$_Tmap_traits@V?$basic_string@DU?$char_traits@D@std@@V?$allocator@D@2@@std@@HU?$less@V?$basic_string@DU?$char_traits@D@std@@V?$allocator@D@2@@std@@@2@V?$allocator@U?$pair@$$CBV?$basic_string@DU?$char_traits@D@std@@V?$allocator@D@2@@std@@H@std@@@2@$0A@@std@@@std@@QAEPAU_Node@?$_Tree_nod@V?$_Tmap_traits@V?$basic_string@DU?$char_traits@D@std@@V?$allocator@D@2@@std@@HU?$less@V?$basic_string@DU?$char_traits@D@std@@V?$allocator@D@2@@std@@@2@V?$allocator@U?$pair@$$CBV?$basic_string@DU?$char_traits@D@std@@V?$allocator@D@2@@std@@H@std@@@2@$0A@@std@@@1@$$QAU?$pair@V?$basic_string@DU?$char_traits@D@std@@V?$allocator@D@2@@std@@H@1@@Z 004447b0 f i ConMember.obj
 0001:00043870       ??1CConMember@@UAE@XZ      00444870 f   ConMember.obj
 0001:000438e0       ??0CConMember@@QAE@XZ      004448e0 f   ConMember.obj
 0001:00043960       ??_ECConMember@@UAEPAXI@Z  00444960 f i ConMember.obj
 0001:00043960       ??_GCConMember@@UAEPAXI@Z  00444960 f i ConMember.obj
 0001:00043990       ?Load@CConMember@@QAEXPAD@Z 00444990 f   ConMember.obj
 0001:00043b30       ?AddObj@CCrywolfObjInfo@@QAEHH@Z 00444b30 f i Crywolf.obj
 0001:00043e50       ??1CCrywolf@@UAE@XZ        00444e50 f   Crywolf.obj
 0001:00043e70       ?LoadCrywolfMapAttr@CCrywolf@@QAEXPADH@Z 00444e70 f   Crywolf.obj
 0001:00043ea0       ?SetCrywolfMapAttr@CCrywolf@@QAEXH@Z 00444ea0 f   Crywolf.obj
 0001:00043f00       ?SetCrywolfCommonNPC@CCrywolf@@QAEXH@Z 00444f00 f   Crywolf.obj
 0001:00043f90       ?RemoveCrywolfCommonMonster@CCrywolf@@QAEXXZ 00444f90 f   Crywolf.obj
 0001:00043fe0       ?CreateCrywolfCommonMonster@CCrywolf@@QAEXXZ 00444fe0 f   Crywolf.obj
 0001:000440b0       ?ChangeAI@CCrywolf@@QAEXH@Z 004450b0 f   Crywolf.obj
 0001:000440f0       ?TurnUpBoss@CCrywolf@@QAEXXZ 004450f0 f   Crywolf.obj
 0001:00044130       ?SetState_NONE@CCrywolf@@QAEXXZ 00445130 f   Crywolf.obj
 0001:00044170       ?SetState_NOTIFY_1@CCrywolf@@QAEXXZ 00445170 f   Crywolf.obj
 0001:000441d0       ?SetState_NOTIFY_2@CCrywolf@@QAEXXZ 004451d0 f   Crywolf.obj
 0001:00044250       ?SetState_START@CCrywolf@@QAEXXZ 00445250 f   Crywolf.obj
 0001:000443e0       ?ProcState_NOTIFY_1@CCrywolf@@QAEXXZ 004453e0 f   Crywolf.obj
 0001:00044430       ?ProcState_NOTIFY_2@CCrywolf@@QAEXXZ 00445430 f   Crywolf.obj
 0001:00044510       ?NotifyCrywolfCurrentState@CCrywolf@@QAEXXZ 00445510 f   Crywolf.obj
 0001:00044580       ?NotifyCrywolfStateLeftTime@CCrywolf@@QAEXXZ 00445580 f   Crywolf.obj
 0001:000446c0       ?NotifyCrywolfStatueAndAltarInfo@CCrywolf@@QAEXXZ 004456c0 f   Crywolf.obj
 0001:00044860       ?NotifyCrywolfBossMonsterInfo@CCrywolf@@QAEXXZ 00445860 f   Crywolf.obj
 0001:00044960       ?CrywolfServerGroupSync@CCrywolf@@QAEXXZ 00445960 f   Crywolf.obj
 0001:00044990       ?CrywolfInfoDBSave@CCrywolf@@QAEXXZ 00445990 f   Crywolf.obj
 0001:000449d0       ?CrywolfInfoDBLoad@CCrywolf@@QAEXXZ 004459d0 f   Crywolf.obj
 0001:00044a00       ?ApplyCrywolfDBInfo@CCrywolf@@QAEXHH@Z 00445a00 f   Crywolf.obj
 0001:00044a40       ?MakeRewardForAltarElf@CCrywolf@@QAEXH@Z 00445a40 f   Crywolf.obj
 0001:00044ab0       ?MakeRewardForHeroListTop5@CCrywolf@@QAEXH@Z 00445ab0 f   Crywolf.obj
 0001:00044b20       ?CalcGettingScore@CCrywolf@@QAEHHHH@Z 00445b20 f   Crywolf.obj
 0001:00044c30       ?CalcGettingRewardExp@CCrywolf@@QAEHHH@Z 00445c30 f   Crywolf.obj
 0001:00044cd0       ?CalcGettingRank@CCrywolf@@QAEHH@Z 00445cd0 f   Crywolf.obj
 0001:00044d10       ?GiveRewardExp@CCrywolf@@QAEXHH@Z 00445d10 f   Crywolf.obj
 0001:00044de0       ?ResetAllUserMVPScore@CCrywolf@@QAEXXZ 00445de0 f   Crywolf.obj
 0001:00044ee0       ?CrywolfNpcAct@CCrywolf@@QAEXH@Z 00445ee0 f   Crywolf.obj
 0001:00044f20       ?CrywolfSecondAct@CCrywolf@@QAEXXZ 00445f20 f   Crywolf.obj
 0001:00044f40       ?_Min@?$_Tree_val@V?$_Tset_traits@PAUOBJECTSTRUCT@@VCCrywolfScoreSort@@V?$allocator@PAUOBJECTSTRUCT@@@std@@$0A@@std@@@std@@SAPAU_Node@?$_Tree_nod@V?$_Tset_traits@PAUOBJECTSTRUCT@@VCCrywolfScoreSort@@V?$allocator@PAUOBJECTSTRUCT@@@std@@$0A@@std@@@2@PAU342@@Z 00445f40 f i Crywolf.obj
 0001:00044f60       ?_Rrotate@?$_Tree@V?$_Tset_traits@PAUOBJECTSTRUCT@@VCCrywolfScoreSort@@V?$allocator@PAUOBJECTSTRUCT@@@std@@$0A@@std@@@std@@IAEXPAU_Node@?$_Tree_nod@V?$_Tset_traits@PAUOBJECTSTRUCT@@VCCrywolfScoreSort@@V?$allocator@PAUOBJECTSTRUCT@@@std@@$0A@@std@@@2@@Z 00445f60 f i Crywolf.obj
 0001:00044fc0       ?_Max@?$_Tree_val@V?$_Tset_traits@PAUOBJECTSTRUCT@@VCCrywolfScoreSort@@V?$allocator@PAUOBJECTSTRUCT@@@std@@$0A@@std@@@std@@SAPAU_Node@?$_Tree_nod@V?$_Tset_traits@PAUOBJECTSTRUCT@@VCCrywolfScoreSort@@V?$allocator@PAUOBJECTSTRUCT@@@std@@$0A@@std@@@2@PAU342@@Z 00445fc0 f i Crywolf.obj
 0001:00044fe0       ??F?$_Tree_unchecked_const_iterator@V?$_Tree_val@V?$_Tset_traits@PAUOBJECTSTRUCT@@VCCrywolfScoreSort@@V?$allocator@PAUOBJECTSTRUCT@@@std@@$0A@@std@@@std@@U_Iterator_base0@2@@std@@QAEAAV01@XZ 00445fe0 f i Crywolf.obj
 0001:00045040       ??MCTime@ATL@@QBE_NV01@@Z  00446040 f i Crywolf.obj
 0001:00045070       ??OCTime@ATL@@QBE_NV01@@Z  00446070 f i Crywolf.obj
 0001:000450a0       ?GetDayOfWeek@CTime@ATL@@QBEHXZ 004460a0 f i Crywolf.obj
 0001:000450f0       ??0CCrywolf@@QAE@XZ        004460f0 f   Crywolf.obj
 0001:000453c0       ??_GCCrywolf@@UAEPAXI@Z    004463c0 f i Crywolf.obj
 0001:000453c0       ??_ECCrywolf@@UAEPAXI@Z    004463c0 f i Crywolf.obj
 0001:000453f0       ?SetState_READY@CCrywolf@@QAEXXZ 004463f0 f   Crywolf.obj
 0001:000454c0       ?ProcState_READY@CCrywolf@@QAEXXZ 004464c0 f   Crywolf.obj
 0001:000455a0       ?NotifyCrywolfPersonalRank@CCrywolf@@QAEXXZ 004465a0 f   Crywolf.obj
 0001:000456d0       ?CrywolfMonsterDieProc@CCrywolf@@QAEXHH@Z 004466d0 f   Crywolf.obj
 0001:00045830       ??E?$_Tree_unchecked_const_iterator@V?$_Tree_val@V?$_Tset_traits@PAUOBJECTSTRUCT@@VCCrywolfScoreSort@@V?$allocator@PAUOBJECTSTRUCT@@@std@@$0A@@std@@@std@@U_Iterator_base0@2@@std@@QAEAAV01@XZ 00446830 f i Crywolf.obj
 0001:00045880       ?_Lrotate@?$_Tree@V?$_Tset_traits@PAUOBJECTSTRUCT@@VCCrywolfScoreSort@@V?$allocator@PAUOBJECTSTRUCT@@@std@@$0A@@std@@@std@@IAEXPAU_Node@?$_Tree_nod@V?$_Tset_traits@PAUOBJECTSTRUCT@@VCCrywolfScoreSort@@V?$allocator@PAUOBJECTSTRUCT@@@std@@$0A@@std@@@2@@Z 00446880 f i Crywolf.obj
 0001:000458e0       ?CheckScheduleTime@CCrywolfStateTimeInfo@@QAEHXZ 004468e0 f i Crywolf.obj
 0001:00045c70       ?SetState_END@CCrywolf@@QAEXXZ 00446c70 f   Crywolf.obj
 0001:00045de0       ?_Insert@?$_Tree@V?$_Tset_traits@PAUOBJECTSTRUCT@@VCCrywolfScoreSort@@V?$allocator@PAUOBJECTSTRUCT@@@std@@$0A@@std@@@std@@IAE?AV?$_Tree_const_iterator@V?$_Tree_val@V?$_Tset_traits@PAUOBJECTSTRUCT@@VCCrywolfScoreSort@@V?$allocator@PAUOBJECTSTRUCT@@@std@@$0A@@std@@@std@@@2@_NPAU_Node@?$_Tree_nod@V?$_Tset_traits@PAUOBJECTSTRUCT@@VCCrywolfScoreSort@@V?$allocator@PAUOBJECTSTRUCT@@@std@@$0A@@std@@@2@1@Z 00446de0 f i Crywolf.obj
 0001:00046010       ?erase@?$_Tree@V?$_Tset_traits@PAUOBJECTSTRUCT@@VCCrywolfScoreSort@@V?$allocator@PAUOBJECTSTRUCT@@@std@@$0A@@std@@@std@@QAE?AV?$_Tree_const_iterator@V?$_Tree_val@V?$_Tset_traits@PAUOBJECTSTRUCT@@VCCrywolfScoreSort@@V?$allocator@PAUOBJECTSTRUCT@@@std@@$0A@@std@@@std@@@2@V32@@Z 00447010 f i Crywolf.obj
 0001:00046260       ?_Erase@?$_Tree@V?$_Tset_traits@PAUOBJECTSTRUCT@@VCCrywolfScoreSort@@V?$allocator@PAUOBJECTSTRUCT@@@std@@$0A@@std@@@std@@IAEXPAU_Node@?$_Tree_nod@V?$_Tset_traits@PAUOBJECTSTRUCT@@VCCrywolfScoreSort@@V?$allocator@PAUOBJECTSTRUCT@@@std@@$0A@@std@@@2@@Z 00447260 f i Crywolf.obj
 0001:000462a0       ?_Linsert@?$_Tree@V?$_Tset_traits@PAUOBJECTSTRUCT@@VCCrywolfScoreSort@@V?$allocator@PAUOBJECTSTRUCT@@@std@@$0A@@std@@@std@@QAE?AU?$pair@V?$_Tree_const_iterator@V?$_Tree_val@V?$_Tset_traits@PAUOBJECTSTRUCT@@VCCrywolfScoreSort@@V?$allocator@PAUOBJECTSTRUCT@@@std@@$0A@@std@@@std@@@std@@_N@2@PAU_Node@?$_Tree_nod@V?$_Tset_traits@PAUOBJECTSTRUCT@@VCCrywolfScoreSort@@V?$allocator@PAUOBJECTSTRUCT@@@std@@$0A@@std@@@2@_N@Z 004472a0 f i Crywolf.obj
 0001:00046400       ??$_Buynode@PAUOBJECTSTRUCT@@@?$_Tree_val@V?$_Tset_traits@PAUOBJECTSTRUCT@@VCCrywolfScoreSort@@V?$allocator@PAUOBJECTSTRUCT@@@std@@$0A@@std@@@std@@QAEPAU_Node@?$_Tree_nod@V?$_Tset_traits@PAUOBJECTSTRUCT@@VCCrywolfScoreSort@@V?$allocator@PAUOBJECTSTRUCT@@@std@@$0A@@std@@@1@$$QAPAUOBJECTSTRUCT@@@Z 00447400 f i Crywolf.obj
 0001:00046480       ?clear@?$_Tree@V?$_Tset_traits@PAUOBJECTSTRUCT@@VCCrywolfScoreSort@@V?$allocator@PAUOBJECTSTRUCT@@@std@@$0A@@std@@@std@@QAEXXZ 00447480 f i Crywolf.obj
 0001:000464d0       ?erase@?$_Tree@V?$_Tset_traits@PAUOBJECTSTRUCT@@VCCrywolfScoreSort@@V?$allocator@PAUOBJECTSTRUCT@@@std@@$0A@@std@@@std@@QAE?AV?$_Tree_const_iterator@V?$_Tree_val@V?$_Tset_traits@PAUOBJECTSTRUCT@@VCCrywolfScoreSort@@V?$allocator@PAUOBJECTSTRUCT@@@std@@$0A@@std@@@std@@@2@V32@0@Z 004474d0 f i Crywolf.obj
 0001:00046570       ??1?$set@PAUOBJECTSTRUCT@@VCCrywolfScoreSort@@V?$allocator@PAUOBJECTSTRUCT@@@std@@@std@@QAE@XZ 00447570 f i Crywolf.obj
 0001:000465d0       ?NotifyCrywolfHeroList@CCrywolf@@QAEXXZ 004475d0 f   Crywolf.obj
 0001:00046880       ?SetState_ENDCYCLE@CCrywolf@@QAEXXZ 00447880 f   Crywolf.obj
 0001:00046920       ?SetState@CCrywolf@@QAEXH@Z 00447920 f   Crywolf.obj
 0001:00046a00       ?SetNextState@CCrywolf@@QAEXH@Z 00447a00 f   Crywolf.obj
 0001:00046a20       ?ProcState_START@CCrywolf@@QAEXXZ 00447a20 f   Crywolf.obj
 0001:00046bb0       ?DelAllData@CCrywolf@@QAEXXZ 00447bb0 f   Crywolf.obj
 0001:00046e90       ?CheckStateTimeSync@CCrywolf@@QAEHXZ 00447e90 f   Crywolf.obj
 0001:00046f80       ?Run@CCrywolf@@QAEXXZ      00447f80 f   Crywolf.obj
 0001:00047000       ?LoadData@CCrywolf@@QAEHPAD@Z 00448000 f   Crywolf.obj
 0001:00047790       ??1CCrywolfAltar@@UAE@XZ   00448790 f   CrywolfAltar.obj
 0001:000477a0       ?GetAltarState@CCrywolfAltar@@QAEHH@Z 004487a0 f   CrywolfAltar.obj
 0001:00047800       ?GetAltarRemainContractCount@CCrywolfAltar@@QAEHH@Z 00448800 f   CrywolfAltar.obj
 0001:000478b0       ?GetAlatarNumber@CCrywolfAltar@@QAEHH@Z 004488b0 f   CrywolfAltar.obj
 0001:00047910       ?GetAltarUserIndex@CCrywolfAltar@@QAEHH@Z 00448910 f   CrywolfAltar.obj
 0001:00047970       ?SetAltarValidContract@CCrywolfAltar@@QAEXHH@Z 00448970 f   CrywolfAltar.obj
 0001:00047a50       ?CheckAltarValidContract@CCrywolfAltar@@QAEHH@Z 00448a50 f   CrywolfAltar.obj
 0001:00047a80       ?SetAltarUserIndex@CCrywolfAltar@@QAEHHHH@Z 00448a80 f   CrywolfAltar.obj
 0001:00047cb0       ?ResetAltarUserIndex@CCrywolfAltar@@QAEXHH@Z 00448cb0 f   CrywolfAltar.obj
 0001:00047da0       ?ResetAltar@CCrywolfAltar@@QAEXH@Z 00448da0 f   CrywolfAltar.obj
 0001:00047e00       ?SetAltarViewState@CCrywolfAltar@@QAEXHH@Z 00448e00 f   CrywolfAltar.obj
 0001:00047e50       ?GetContractedAltarCount@CCrywolfAltar@@QAEHXZ 00448e50 f   CrywolfAltar.obj
 0001:00047e80       ?GetPriestHPSum@CCrywolfAltar@@QAEHXZ 00448e80 f   CrywolfAltar.obj
 0001:00047ee0       ?GetPriestMaxHPSum@CCrywolfAltar@@QAEHXZ 00448ee0 f   CrywolfAltar.obj
 0001:00047f60       ?CrywolfAltarAct@CCrywolfAltar@@QAEXH@Z 00448f60 f   CrywolfAltar.obj
 0001:000480f0       ??0CCrywolfAltar@@QAE@XZ   004490f0 f   CrywolfAltar.obj
 0001:00048180       ??_ECCrywolfAltar@@UAEPAXI@Z 00449180 f i CrywolfAltar.obj
 0001:00048180       ??_GCCrywolfAltar@@UAEPAXI@Z 00449180 f i CrywolfAltar.obj
 0001:000481b0       ?SetAltarObjIndex@CCrywolfAltar@@QAEXHH@Z 004491b0 f   CrywolfAltar.obj
 0001:000481e0       ?SetAllAltarObjectIndex@CCrywolfAltar@@QAEXXZ 004491e0 f   CrywolfAltar.obj
 0001:00048240       ?ResetAllAltar@CCrywolfAltar@@QAEXXZ 00449240 f   CrywolfAltar.obj
 0001:00048280       ?SetAllAltarViewState@CCrywolfAltar@@QAEXH@Z 00449280 f   CrywolfAltar.obj
 0001:000482d0       ??0CCrywolfDarkElf@@QAE@XZ 004492d0 f   CrywolfDarkElf.obj
 0001:000482e0       ??1CCrywolfDarkElf@@UAE@XZ 004492e0 f   CrywolfDarkElf.obj
 0001:000482f0       ??_ECCrywolfDarkElf@@UAEPAXI@Z 004492f0 f i CrywolfDarkElf.obj
 0001:000482f0       ??_GCCrywolfDarkElf@@UAEPAXI@Z 004492f0 f i CrywolfDarkElf.obj
 0001:00048320       ??1CCrywolfStatue@@UAE@XZ  00449320 f   CrywolfStatue.obj
 0001:00048330       ?SetStatueViewState@CCrywolfStatue@@QAEXPAUOBJECTSTRUCT@@H@Z 00449330 f   CrywolfStatue.obj
 0001:000483f0       ?CrywolfStatueAct@CCrywolfStatue@@QAEXH@Z 004493f0 f   CrywolfStatue.obj
 0001:00048580       ??0CCrywolfStatue@@QAE@XZ  00449580 f   CrywolfStatue.obj
 0001:000485a0       ??_ECCrywolfStatue@@UAEPAXI@Z 004495a0 f i CrywolfStatue.obj
 0001:000485a0       ??_GCCrywolfStatue@@UAEPAXI@Z 004495a0 f i CrywolfStatue.obj
 0001:000485d0       ??0CCrywolfSync@@QAE@XZ    004495d0 f   CrywolfSync.obj
 0001:00048610       ??1CCrywolfSync@@UAE@XZ    00449610 f   CrywolfSync.obj
 0001:00048620       ?GetCrywolfState@CCrywolfSync@@QAEHXZ 00449620 f   CrywolfSync.obj
 0001:00048630       ?SetConnect@MyWinsockBase@@QAEXH@Z 00449630 f   MyWinsockBase.obj
 0001:00048630       ?SetOccupationState@CCrywolfSync@@QAEXH@Z 00449630 f   CrywolfSync.obj
 0001:00048640       ?SetCrywolfState@CCrywolfSync@@QAEXH@Z 00449640 f   CrywolfSync.obj
 0001:00048650       ?GetPlusChaosRate@CCrywolfSync@@QAEHXZ 00449650 f   CrywolfSync.obj
 0001:00048660       ?SetPlusChaosRate@CCrywolfSync@@QAEXH@Z 00449660 f   CrywolfSync.obj
 0001:00048670       ?SetGemDropPenaltiyRate@CCrywolfSync@@QAEXH@Z 00449670 f   CrywolfSync.obj
 0001:00048680       ?GetGettingExpPenaltyRate@CCrywolfSync@@QAEHXZ 00449680 f   CrywolfSync.obj
 0001:00048690       ?SetGettingExpPenaltyRate@CCrywolfSync@@QAEXH@Z 00449690 f   CrywolfSync.obj
 0001:000486a0       ?GetMonHPBenefitRate@CCrywolfSync@@QAEHXZ 004496a0 f   CrywolfSync.obj
 0001:000486b0       ?SetMonHPBenefitRate@CCrywolfSync@@QAEXH@Z 004496b0 f   CrywolfSync.obj
 0001:000486c0       ?GetKundunHPRefillState@CCrywolfSync@@QAEHXZ 004496c0 f   CrywolfSync.obj
 0001:000486d0       ?SetKundunHPRefillState@CCrywolfSync@@QAEXH@Z 004496d0 f   CrywolfSync.obj
 0001:000486e0       ??_GCCrywolfSync@@UAEPAXI@Z 004496e0 f i CrywolfSync.obj
 0001:000486e0       ??_ECCrywolfSync@@UAEPAXI@Z 004496e0 f i CrywolfSync.obj
 0001:00048710       ??0CCrywolfTanker@@QAE@XZ  00449710 f   CrywolfTanker.obj
 0001:00048720       ??1CCrywolfTanker@@UAE@XZ  00449720 f   CrywolfTanker.obj
 0001:00048730       ??_ECCrywolfTanker@@UAEPAXI@Z 00449730 f i CrywolfTanker.obj
 0001:00048730       ??_GCCrywolfTanker@@UAEPAXI@Z 00449730 f i CrywolfTanker.obj
 0001:00048760       ??0CCrywolfUtil@@QAE@XZ    00449760 f   CrywolfUtil.obj
 0001:00048770       ??1CCrywolfUtil@@UAE@XZ    00449770 f   CrywolfUtil.obj
 0001:00048780       ?SendMapServerGroupMsg@CCrywolfUtil@@QAAXPADZZ 00449780 f   CrywolfUtil.obj
 0001:00048800       ?SendCrywolfUserAnyData@CCrywolfUtil@@QAEXPAEH@Z 00449800 f   CrywolfUtil.obj
 0001:00048860       ?SendCrywolfUserAnyMsg@CCrywolfUtil@@QAAXHPADZZ 00449860 f   CrywolfUtil.obj
 0001:00048970       ?SendKanturuChattingMsg@CKanturuUtil@@QAAXHPADZZ 00449970 f   KanturuUtil.obj
 0001:00048970       ?SendCrywolfChattingMsg@CCrywolfUtil@@QAAXHPADZZ 00449970 f   CrywolfUtil.obj
 0001:00048990       ?CrywolfMVPLevelUp@CCrywolfUtil@@QAEHHH@Z 00449990 f   CrywolfUtil.obj
 0001:00048d50       ??_ECCrywolfUtil@@UAEPAXI@Z 00449d50 f i CrywolfUtil.obj
 0001:00048d50       ??_GCCrywolfUtil@@UAEPAXI@Z 00449d50 f i CrywolfUtil.obj
 0001:00048d80       ??0CWhatsUpDummyServer@@QAE@XZ 00449d80 f   CWhatsUpDummyServer.obj
 0001:00048dd0       ??1CWhatsUpDummyServer@@QAE@XZ 00449dd0 f   CWhatsUpDummyServer.obj
 0001:00048de0       ?ParentWndProc@CWhatsUpDummyServer@@SAJPAUHWND__@@IIJ@Z 00449de0 f   CWhatsUpDummyServer.obj
 0001:00048ec0       ?Start@CWhatsUpDummyServer@@QAEHPAUHWND__@@G@Z 00449ec0 f   CWhatsUpDummyServer.obj
 0001:00048ff0       ??1CDarkSpirit@@UAE@XZ     00449ff0 f   DarkSpirit.obj
 0001:00049000       ?Init@CDarkSpirit@@QAEXXZ  0044a000 f   DarkSpirit.obj
 0001:00049020       ?SendAttackMsg@CDarkSpirit@@QAEXHHHH@Z 0044a020 f   DarkSpirit.obj
 0001:00049150       ?SetTarget@CDarkSpirit@@QAEXH@Z 0044a150 f   DarkSpirit.obj
 0001:00049180       ?SetMode@CDarkSpirit@@QAEXW4ePetItem_Mode@1@H@Z 0044a180 f   DarkSpirit.obj
 0001:00049210       ?Set@CDarkSpirit@@QAEXHPAVCItem@@@Z 0044a210 f   DarkSpirit.obj
 0001:00049370       ?GetAttackDamage@CDarkSpirit@@QAEHPAUOBJECTSTRUCT@@HHH@Z 0044a370 f   DarkSpirit.obj
 0001:00049480       ?MissCheck@CDarkSpirit@@QAEHPAUOBJECTSTRUCT@@0HHAAH@Z 0044a480 f   DarkSpirit.obj
 0001:000495a0       ?MissCheckPvP@CDarkSpirit@@QAEHPAUOBJECTSTRUCT@@0HHAAH@Z 0044a5a0 f   DarkSpirit.obj
 0001:00049a20       ?ChangeCommand@CDarkSpirit@@QAEXHH@Z 0044aa20 f   DarkSpirit.obj
 0001:00049a80       ?SendLevelmsg@CDarkSpirit@@SAXHHHH@Z 0044aa80 f   DarkSpirit.obj
 0001:00049b30       ??0CDarkSpirit@@QAE@XZ     0044ab30 f   DarkSpirit.obj
 0001:00049b50       ??_GCDarkSpirit@@UAEPAXI@Z 0044ab50 f i DarkSpirit.obj
 0001:00049b50       ??_ECDarkSpirit@@UAEPAXI@Z 0044ab50 f i DarkSpirit.obj
 0001:00049b80       ?RangeAttack@CDarkSpirit@@QAEXHH@Z 0044ab80 f   DarkSpirit.obj
 0001:00049ca0       ?ReSetTarget@CDarkSpirit@@QAEXH@Z 0044aca0 f   DarkSpirit.obj
 0001:00049cf0       ?Attack@CDarkSpirit@@QAEHPAUOBJECTSTRUCT@@0PAVCMagicInf@@HH@Z 0044acf0 f   DarkSpirit.obj
 0001:0004ac40       ?ModeAttackRandom@CDarkSpirit@@QAEXXZ 0044bc40 f   DarkSpirit.obj
 0001:0004aef0       ?ModeAttackWithMaster@CDarkSpirit@@QAEXXZ 0044bef0 f   DarkSpirit.obj
 0001:0004b010       ?ModeAttakTarget@CDarkSpirit@@QAEXXZ 0044c010 f   DarkSpirit.obj
 0001:0004b090       ?Run@CDarkSpirit@@QAEXXZ   0044c090 f   DarkSpirit.obj
 0001:0004b180       ?Initialize@CDbSave@@QAEHXZ 0044c180 f   DbSave.obj
 0001:0004b210       ?End@CDbSave@@QAEXXZ       0044c210 f   DbSave.obj
 0001:0004b240       ?ThreadProc@CDbSave@@QAEKXZ 0044c240 f   DbSave.obj
 0001:0004b330       ??0CDbSave@@QAE@XZ         0044c330 f   DbSave.obj
 0001:0004b350       ?Feee@CDbSave@@QAEHXZ      0044c350 f   DbSave.obj
 0001:0004b3a0       ??1CDbSave@@UAE@XZ         0044c3a0 f   DbSave.obj
 0001:0004b3c0       ?Begin@CDbSave@@QAEHXZ     0044c3c0 f   DbSave.obj
 0001:0004b420       ??_ECDbSave@@UAEPAXI@Z     0044c420 f i DbSave.obj
 0001:0004b420       ??_GCDbSave@@UAEPAXI@Z     0044c420 f i DbSave.obj
 0001:0004b450       ??0DBSockMng@@QAE@XZ       0044c450 f   DBSockMng.obj
 0001:0004b490       ??1DBSockMng@@UAE@XZ       0044c490 f   DBSockMng.obj
 0001:0004b4b0       ?Connect@DBSockMng@@QAEXXZ 0044c4b0 f   DBSockMng.obj
 0001:0004b680       ?ActiveChange@DBSockMng@@QAEXXZ 0044c680 f   DBSockMng.obj
 0001:0004b6a0       ?Send@DBSockMng@@QAEHPADH@Z 0044c6a0 f   DBSockMng.obj
 0001:0004b710       ?Send@DBSockMng@@QAEHHPADH@Z 0044c710 f   DBSockMng.obj
 0001:0004b760       ?MsgProc@DBSockMng@@QAEHHIJ@Z 0044c760 f   DBSockMng.obj
 0001:0004b7d0       ??_EDBSockMng@@UAEPAXI@Z   0044c7d0 f i DBSockMng.obj
 0001:0004b7d0       ??_GDBSockMng@@UAEPAXI@Z   0044c7d0 f i DBSockMng.obj
 0001:0004baf0       ?DevilSquareProtocolCore@@YAXEPAEH@Z 0044caf0 f   DevilSquare.obj
 0001:0004bb30       ?DataSendRank@@YAXPADH@Z   0044cb30 f   DevilSquare.obj
 0001:0004bbc0       ?SetOpen@CDevilSquare@@AAEXXZ 0044cbc0 f   DevilSquare.obj
 0001:0004bc10       ?GetDevilSquareIndex@CDevilSquare@@QAEHH@Z 0044cc10 f   DevilSquare.obj
 0001:0004bd30       ?GetUserLevelToEnter@CDevilSquare@@QAEHHAAH@Z 0044cd30 f   DevilSquare.obj
 0001:0004be00       ?SetMonster@CDevilSquare@@QAEXXZ 0044ce00 f   DevilSquare.obj
 0001:0004bf10       ?ClearMonstr@CDevilSquare@@QAEXXZ 0044cf10 f   DevilSquare.obj
 0001:0004bf60       ?gDevilSquareMonsterRegen@CDevilSquare@@QAEXPAUOBJECTSTRUCT@@@Z 0044cf60 f   DevilSquare.obj
 0001:0004c080       ?SendEventStartMsg@CDevilSquare@@AAEXXZ 0044d080 f   DevilSquare.obj
 0001:0004c160       ?DieProcDevilSquare@CDevilSquare@@QAEXPAUOBJECTSTRUCT@@@Z 0044d160 f   DevilSquare.obj
 0001:0004c2f0       ?gObjMonsterExpSingle@CDevilSquare@@QAEHPAUOBJECTSTRUCT@@0HH@Z 0044d2f0 f   DevilSquare.obj
 0001:0004c500       ?gObjExpParty@CDevilSquare@@QAEXPAUOBJECTSTRUCT@@0HH@Z 0044d500 f   DevilSquare.obj
 0001:0004cac0       ?gObjMonsterScoreDivision@CDevilSquare@@QAEXPAUOBJECTSTRUCT@@0HH@Z 0044dac0 f   DevilSquare.obj
 0001:0004cb50       ?ItemClear@CDevilSquare@@AAEXXZ 0044db50 f   DevilSquare.obj
 0001:0004cb80       ?CalcScore@CDevilSquare@@QAEXXZ 0044db80 f   DevilSquare.obj
 0001:0004cc30       ?SendLiveCall@CDevilSquare@@AAEXXZ 0044dc30 f   DevilSquare.obj
 0001:0004cc60       ?gObjScoreClear@CDevilSquare@@AAEXXZ 0044dc60 f   DevilSquare.obj
 0001:0004ccd0       ?CheckInvalidUser@CDevilSquare@@AAEXXZ 0044dcd0 f   DevilSquare.obj
 0001:0004cd50       ?SetPlaying@CDevilSquare@@AAEXXZ 0044dd50 f   DevilSquare.obj
 0001:0004cdb0       ?CheckSync@CDevilSquare@@AAEXXZ 0044ddb0 f   DevilSquare.obj
 0001:0004cef0       ?CheckCloseTime@CDevilSquare@@QAEHXZ 0044def0 f   DevilSquare.obj
 0001:0004d020       ??1?$list@UDEVILSQUARE_START_TIME@@V?$allocator@UDEVILSQUARE_START_TIME@@@std@@@std@@QAE@XZ 0044e020 f i DevilSquare.obj
 0001:0004d060       ??0CDevilSquare@@QAE@XZ    0044e060 f   DevilSquare.obj
 0001:0004d240       ??1CDevilSquare@@UAE@XZ    0044e240 f   DevilSquare.obj
 0001:0004d2e0       ?Load@CDevilSquare@@QAEXPAD@Z 0044e2e0 f   DevilSquare.obj
 0001:0004d830       ?SetClose@CDevilSquare@@QAEXXZ 0044e830 f   DevilSquare.obj
 0001:0004d8c0       ??_ECDevilSquare@@UAEPAXI@Z 0044e8c0 f i DevilSquare.obj
 0001:0004d8c0       ??_GCDevilSquare@@UAEPAXI@Z 0044e8c0 f i DevilSquare.obj
 0001:0004d8f0       ?SetState@CDevilSquare@@QAEXW4eDevilSquareState@@@Z 0044e8f0 f   DevilSquare.obj
 0001:0004d920       ?ProcClose@CDevilSquare@@AAEXXZ 0044e920 f   DevilSquare.obj
 0001:0004dcd0       ?ProcOpen@CDevilSquare@@AAEXXZ 0044ecd0 f   DevilSquare.obj
 0001:0004df30       ?ProcPlaying@CDevilSquare@@AAEXXZ 0044ef30 f   DevilSquare.obj
 0001:0004e120       ?Run@CDevilSquare@@QAEHXZ  0044f120 f   DevilSquare.obj
 0001:0004e1a0       ?DevilSquareThreadFunc@@YGIPAX@Z 0044f1a0 f   DevilSquare.obj
 0001:0004e1b0       ?Init@CDevilSquare@@QAEXXZ 0044f1b0 f   DevilSquare.obj
 0001:0004e200       ?DevilSquareScoreSort@@YA_NABQAUOBJECTSTRUCT@@0@Z 0044f200 f   DevilSquareGround.obj
 0001:0004e240       ?Init@CDevilSquareGround@@QAEXH@Z 0044f240 f   DevilSquareGround.obj
 0001:0004e290       ?Clear@CDevilSquareGround@@QAEXXZ 0044f290 f   DevilSquareGround.obj
 0001:0004e2a0       ?Set@CDevilSquareGround@@QAEXGHH@Z 0044f2a0 f   DevilSquareGround.obj
 0001:0004e2f0       ?SetBoss@CDevilSquareGround@@QAEXGHHHHH@Z 0044f2f0 f   DevilSquareGround.obj
 0001:0004e370       ?SetBonus@CDevilSquareGround@@QAEXHHHEGE@Z 0044f370 f   DevilSquareGround.obj
 0001:0004e3c0       ?IncExp@CDevilSquareGround@@QAEXM@Z 0044f3c0 f   DevilSquareGround.obj
 0001:0004e3f0       ?IncObjCount@CDevilSquareGround@@QAEXXZ 0044f3f0 f   DevilSquareGround.obj
 0001:0004e400       ?GetObjCount@CDevilSquareGround@@QAEJXZ 0044f400 f   DevilSquareGround.obj
 0001:0004e410       ?RegenBossMonster@CDevilSquareGround@@QAEXH@Z 0044f410 f   DevilSquareGround.obj
 0001:0004e5f0       ?GetMonsterType@CDevilSquareGround@@QAEGH@Z 0044f5f0 f   DevilSquareGround.obj
 0001:0004e6e0       ?SendRankingInfo@CDevilSquareGround@@QAEXPAUOBJECTSTRUCT@@@Z 0044f6e0 f   DevilSquareGround.obj
 0001:0004e770       ??$_Push_heap@PAPAUOBJECTSTRUCT@@HPAU1@P6A_NABQAU1@0@Z@std@@YAXPAPAUOBJECTSTRUCT@@HH$$QAPAU1@P6A_NABQAU1@2@Z@Z 0044f770 f i DevilSquareGround.obj
 0001:0004e7e0       ??$_Adjust_heap@PAPAUOBJECTSTRUCT@@HPAU1@P6A_NABQAU1@0@Z@std@@YAXPAPAUOBJECTSTRUCT@@HH$$QAPAU1@P6A_NABQAU1@2@Z@Z 0044f7e0 f i DevilSquareGround.obj
 0001:0004e8a0       ??$_Cons_val@V?$allocator@H@std@@HABH@std@@YAXAAV?$allocator@H@0@PAHABH@Z 0044f8a0 f i CastleDeepEvent.obj
 0001:0004e8a0       ??$_Cons_val@V?$allocator@PAUOBJECTSTRUCT@@@std@@PAUOBJECTSTRUCT@@ABQAU3@@std@@YAXAAV?$allocator@PAUOBJECTSTRUCT@@@0@PAPAUOBJECTSTRUCT@@ABQAU2@@Z 0044f8a0 f i DevilSquareGround.obj
 0001:0004e8a0       ??$_Cons_val@V?$allocator@PAVCXMasMonsterHerd@@@std@@PAVCXMasMonsterHerd@@PAV3@@std@@YAXAAV?$allocator@PAVCXMasMonsterHerd@@@0@PAPAVCXMasMonsterHerd@@$$QAPAV2@@Z 0044f8a0 f i XMasAttackEvent.obj
 0001:0004e8a0       ??$_Cons_val@V?$allocator@PAU_MAPSVR_DATA@@@std@@PAU_MAPSVR_DATA@@ABQAU3@@std@@YAXAAV?$allocator@PAU_MAPSVR_DATA@@@0@PAPAU_MAPSVR_DATA@@ABQAU2@@Z 0044f8a0 f i MapServerManager.obj
 0001:0004e8a0       ??$_Cons_val@V?$allocator@PAUOBJECTSTRUCT@@@std@@PAUOBJECTSTRUCT@@PAU3@@std@@YAXAAV?$allocator@PAUOBJECTSTRUCT@@@0@PAPAUOBJECTSTRUCT@@$$QAPAU2@@Z 0044f8a0 f i Crywolf.obj
 0001:0004e8a0       ??$_Cons_val@V?$allocator@PAU_MAPSVR_DATA@@@std@@PAU_MAPSVR_DATA@@AAPAU3@@std@@YAXAAV?$allocator@PAU_MAPSVR_DATA@@@0@PAPAU_MAPSVR_DATA@@AAPAU2@@Z 0044f8a0 f i MapServerManager.obj
 0001:0004e8a0       ??$_Cons_val@V?$allocator@H@std@@HAAH@std@@YAXAAV?$allocator@H@0@PAHAAH@Z 0044f8a0 f i CastleDeepEvent.obj
 0001:0004e8a0       ??$_Cons_val@V?$allocator@UItemRank_List@@@std@@UItemRank_List@@AAU3@@std@@YAXAAV?$allocator@UItemRank_List@@@0@PAUItemRank_List@@AAU2@@Z 0044f8a0 f i ItemRank.obj
 0001:0004e8a0       ??$_Cons_val@V?$allocator@PAUOBJECTSTRUCT@@@std@@PAUOBJECTSTRUCT@@AAPAU3@@std@@YAXAAV?$allocator@PAUOBJECTSTRUCT@@@0@PAPAUOBJECTSTRUCT@@AAPAU2@@Z 0044f8a0 f i DevilSquareGround.obj
 0001:0004e8c0       ??$_Make_heap@PAPAUOBJECTSTRUCT@@HPAU1@P6A_NABQAU1@0@Z@std@@YAXPAPAUOBJECTSTRUCT@@0P6A_NABQAU1@1@ZPAH0@Z 0044f8c0 f i DevilSquareGround.obj
 0001:0004e970       ??$_Insertion_sort1@PAPAUOBJECTSTRUCT@@P6A_NABQAU1@0@ZPAU1@@std@@YAXPAPAUOBJECTSTRUCT@@0P6A_NABQAU1@1@Z0@Z 0044f970 f i DevilSquareGround.obj
 0001:0004ea20       ??$_Median@PAPAUOBJECTSTRUCT@@P6A_NABQAU1@0@Z@std@@YAXPAPAUOBJECTSTRUCT@@00P6A_NABQAU1@1@Z@Z 0044fa20 f i DevilSquareGround.obj
 0001:0004ebd0       ?SendScore@CDevilSquareGround@@QAEXXZ 0044fbd0 f   DevilSquareGround.obj
 0001:0004f0a0       ??$_Unguarded_partition@PAPAUOBJECTSTRUCT@@P6A_NABQAU1@0@Z@std@@YA?AU?$pair@PAPAUOBJECTSTRUCT@@PAPAU1@@0@PAPAUOBJECTSTRUCT@@0P6A_NABQAU2@1@Z@Z 004500a0 f i DevilSquareGround.obj
 0001:0004f240       ??$_Sort_heap@PAPAUOBJECTSTRUCT@@P6A_NABQAU1@0@Z@std@@YAXPAPAUOBJECTSTRUCT@@0P6A_NABQAU1@1@Z@Z 00450240 f i DevilSquareGround.obj
 0001:0004f2a0       ??0CDevilSquareGround@@QAE@XZ 004502a0 f   DevilSquareGround.obj
 0001:0004f2d0       ??1CDevilSquareGround@@UAE@XZ 004502d0 f   DevilSquareGround.obj
 0001:0004f400       ?ClearScore@CDevilSquareGround@@QAEXXZ 00450400 f   DevilSquareGround.obj
 0001:0004f440       ??_ECDevilSquareGround@@UAEPAXI@Z 00450440 f i DevilSquareGround.obj
 0001:0004f440       ??_GCDevilSquareGround@@UAEPAXI@Z 00450440 f i DevilSquareGround.obj
 0001:0004f470       ?InsertObj@CDevilSquareGround@@QAEXPAUOBJECTSTRUCT@@@Z 00450470 f   DevilSquareGround.obj
 0001:0004f4e0       ??$_Sort@PAPAUOBJECTSTRUCT@@HP6A_NABQAU1@0@Z@std@@YAXPAPAUOBJECTSTRUCT@@0HP6A_NABQAU1@1@Z@Z 004504e0 f i DevilSquareGround.obj
 0001:0004f5d0       ?SortScore@CDevilSquareGround@@QAEXXZ 004505d0 f   DevilSquareGround.obj
 0001:0004f600       ??0CDirPath@@QAE@XZ        00450600 f   DirPath.obj
 0001:0004f610       ??1CDirPath@@UAE@XZ        00450610 f   DirPath.obj
 0001:0004f620       ?SetFirstPath@CDirPath@@QAEXPAD@Z 00450620 f   DirPath.obj
 0001:0004f640       ?GetNewPath@CDirPath@@QAEPADPBD@Z 00450640 f   DirPath.obj
 0001:0004f690       ??_ECDirPath@@UAEPAXI@Z    00450690 f i DirPath.obj
 0001:0004f690       ??_GCDirPath@@UAEPAXI@Z    00450690 f i DirPath.obj
 0001:0004f6c0       ??1CDragonEvent@@UAE@XZ    004506c0 f   DragonEvent.obj
 0001:0004f6d0       ?Init@CDragonEvent@@QAEXXZ 004506d0 f   DragonEvent.obj
 0001:0004f6e0       ?Start@CDragonEvent@@QAEXXZ 004506e0 f   DragonEvent.obj
 0001:0004f870       ?End@CDragonEvent@@QAEXXZ  00450870 f   DragonEvent.obj
 0001:0004f8a0       ?DragonActive@CDragonEvent@@QAEXXZ 004508a0 f   DragonEvent.obj
 0001:0004fa50       ?Run@CDragonEvent@@QAEXXZ  00450a50 f   DragonEvent.obj
 0001:0004fad0       ?Start_Menual@CDragonEvent@@QAEXXZ 00450ad0 f   DragonEvent.obj
 0001:0004fb00       ??0CDragonEvent@@QAE@XZ    00450b00 f   DragonEvent.obj
 0001:0004fb10       ??_ECDragonEvent@@UAEPAXI@Z 00450b10 f i DragonEvent.obj
 0001:0004fb10       ??_GCDragonEvent@@UAEPAXI@Z 00450b10 f i DragonEvent.obj
 0001:0004fb40       ?DataServerLogin@@YAXH@Z   00450b40 f   DSProtocol.obj
 0001:0004fbb0       ?DataServerLoginResult@@YAXPAUSDHP_RESULT@@@Z 00450bb0 f   DSProtocol.obj
 0001:0004fc00       ?JGPGetCharList@@YAXPAE@Z  00450c00 f   DSProtocol.obj
 0001:00050930       ?GetVipStatusFromDB@@YAXF@Z 00451930 f   DSProtocol.obj
 0001:000509b0       ?GetVipTypeFromDB@@YAXF@Z  004519b0 f   DSProtocol.obj
 0001:00050a30       ?DataServerGetCharListRequest@@YAXF@Z 00451a30 f   DSProtocol.obj
 0001:00050b20       ?JGCharacterCreateRequest@@YAXPAUSDHP_CREATECHARRESULT@@@Z 00451b20 f   DSProtocol.obj
 0001:00050c30       ?JGCharacterCreateFailSend@@YAXHPAD@Z 00451c30 f   DSProtocol.obj
 0001:00050c90       ?JGCharDelRequest@@YAXPAUSDHP_CHARDELETERESULT@@@Z 00451c90 f   DSProtocol.obj
 0001:00050d40       ?GCItemListSend@@YAXH@Z    00451d40 f   DSProtocol.obj
 0001:00050ed0       ?GDGetWarehouseList@@YAXHPAD@Z 00451ed0 f   DSProtocol.obj
 0001:00050f50       ?GDGetWarehouseNoItem@@YAXPAUSDHP_GETWAREHOUSEDB_RESULT@@@Z 00451f50 f   DSProtocol.obj
 0001:000510a0       ?GDUserItemSave@@YAXPAUOBJECTSTRUCT@@@Z 004520a0 f   DSProtocol.obj
 0001:00051120       ?GDSetWarehouseMoney@@YAXH@Z 00452120 f   DSProtocol.obj
 0001:00051190       ?ItemSerialCreateSend@@YAXHEEEHEEEEEHEE@Z 00452190 f   DSProtocol.obj
 0001:00051320       ?PetItemSerialCreateSend@@YAXHEEEHEEEEEHEE@Z 00452320 f   DSProtocol.obj
 0001:000513d0       ?ItemSerialCreateRecv@@YAXPAUSDHP_ITEMCREATERECV@@@Z 004523d0 f   DSProtocol.obj
 0001:00052060       ?DGOptionDataSend@@YAXHPADPAEEEEEEEH@Z 00453060 f   DSProtocol.obj
 0001:00052100       ?DGOptionDataRecv@@YAXPAUSDHP_SKILLKEYDATA_SEND@@@Z 00453100 f   DSProtocol.obj
 0001:000521b0       ?gObjRequestPetItemInfo@@YAXHH@Z 004531b0 f   DSProtocol.obj
 0001:000523d0       ?DGRecvPetItemInfo@@YAXPAE@Z 004533d0 f   DSProtocol.obj
 0001:00052590       ?gObjSavePetItemInfo@@YAXHH@Z 00453590 f   DSProtocol.obj
 0001:00052830       ?GS_GDReqOwnerGuildMaster@@YAXHH@Z 00453830 f   DSProtocol.obj
 0001:00052890       ?GS_GDReqCastleNpcBuy@@YAXHHHHHHHHEEEH@Z 00453890 f   DSProtocol.obj
 0001:00052930       ?GS_GDReqCastleNpcRepair@@YAXHHHHH@Z 00453930 f   DSProtocol.obj
 0001:000529a0       ?GS_GDReqCastleNpcUpgrade@@YAXHHHHHHH@Z 004539a0 f   DSProtocol.obj
 0001:00052a20       ?GS_GDReqTaxInfo@@YAXHH@Z  00453a20 f   DSProtocol.obj
 0001:00052a80       ?GS_GDReqTaxRateChange@@YAXHHHH@Z 00453a80 f   DSProtocol.obj
 0001:00052af0       ?GS_GDReqCastleMoneyChange@@YAXHHH@Z 00453af0 f   DSProtocol.obj
 0001:00052b50       ?GS_GDReqSiegeDateChange@@YAXHHGEEGEE@Z 00453b50 f   DSProtocol.obj
 0001:00052bc0       ?GS_GDReqGuildMarkRegInfo@@YAXHH@Z 00453bc0 f   DSProtocol.obj
 0001:00052c40       ?GS_GDReqSiegeEndedChange@@YAXHH@Z 00453c40 f   DSProtocol.obj
 0001:00052c90       ?GS_GDReqCastleOwnerChange@@YAXHHPAD@Z 00453c90 f   DSProtocol.obj
 0001:00052cf0       ?GS_GDReqRegAttackGuild@@YAXHH@Z 00453cf0 f   DSProtocol.obj
 0001:00052d70       ?GS_GDReqRestartCastleState@@YAXH@Z 00453d70 f   DSProtocol.obj
 0001:00052da0       ?GS_GDReqMapSvrMsgMultiCast@@YAXHPAD@Z 00453da0 f   DSProtocol.obj
 0001:00052e20       ?GS_GDReqRegGuildMark@@YAXHHH@Z 00453e20 f   DSProtocol.obj
 0001:00052ea0       ?GS_GDReqGuildSetGiveUp@@YAXHHH@Z 00453ea0 f   DSProtocol.obj
 0001:00052f20       ?GS_GDReqNpcRemove@@YAXHHH@Z 00453f20 f   DSProtocol.obj
 0001:00052f70       ?GS_GDReqCastleStateSync@@YAXHHHHHPAD@Z 00453f70 f   DSProtocol.obj
 0001:00052fe0       ?GS_GDReqCastleTributeMoney@@YAXHH@Z 00453fe0 f   DSProtocol.obj
 0001:00053030       ?GS_GDReqResetCastleTaxInfo@@YAXH@Z 00454030 f   DSProtocol.obj
 0001:00053060       ?GS_GDReqResetSiegeGuildInfo@@YAXH@Z 00454060 f   DSProtocol.obj
 0001:00053090       ?GS_GDReqResetRegSiegeInfo@@YAXH@Z 00454090 f   DSProtocol.obj
 0001:000530c0       ?GS_GDReqCastleInitData@@YAXHH@Z 004540c0 f   DSProtocol.obj
 0001:00053110       ?GS_GDReqAllGuildMarkRegInfo@@YAXHH@Z 00454110 f   DSProtocol.obj
 0001:00053160       ?GS_GDReqCalcRegGuildList@@YAXH@Z 00454160 f   DSProtocol.obj
 0001:00053190       ?GS_GDReqCsLoadTotalGuildInfo@@YAXH@Z 00454190 f   DSProtocol.obj
 0001:000531c0       ?GS_DGAnsCastleTotalInfo@@YAXPAE@Z 004541c0 f   DSProtocol.obj
 0001:00053200       ?GS_DGAnsOwnerGuildMaster@@YAXPAE@Z 00454200 f   DSProtocol.obj
 0001:00053260       ?GS_DGAnsCastleNpcBuy@@YAXPAE@Z 00454260 f   DSProtocol.obj
 0001:000533a0       ?GS_DGAnsCastleNpcRepair@@YAXPAE@Z 004543a0 f   DSProtocol.obj
 0001:000534f0       ?GS_DGAnsCastleNpcUpgrade@@YAXPAE@Z 004544f0 f   DSProtocol.obj
 0001:000535c0       ?GS_DGAnsTaxInfo@@YAXPAE@Z 004545c0 f   DSProtocol.obj
 0001:00053640       ?GS_DGAnsTaxRateChange@@YAXPAE@Z 00454640 f   DSProtocol.obj
 0001:000536b0       ?GS_DGAnsCastleMoneyChange@@YAXPAE@Z 004546b0 f   DSProtocol.obj
 0001:000537e0       ?GS_DGAnsSiegeDateChange@@YAXPAE@Z 004547e0 f   DSProtocol.obj
 0001:00053820       ?GS_DGAnsGuildMarkRegInfo@@YAXPAE@Z 00454820 f   DSProtocol.obj
 0001:00053870       ?GS_DGAnsSiegeEndedChange@@YAXPAE@Z 00454870 f   DSProtocol.obj
 0001:000538b0       ?GS_DGAnsCastleOwnerChange@@YAXPAE@Z 004548b0 f   DSProtocol.obj
 0001:000538f0       ?GS_DGAnsRegAttackGuild@@YAXPAE@Z 004548f0 f   DSProtocol.obj
 0001:00053940       ?GS_DGAnsRestartCastleState@@YAXPAE@Z 00454940 f   DSProtocol.obj
 0001:00053990       ?GS_DGAnsMapSvrMsgMultiCast@@YAXPAE@Z 00454990 f   DSProtocol.obj
 0001:00053a80       ?GS_DGAnsRegGuildMark@@YAXPAE@Z 00454a80 f   DSProtocol.obj
 0001:00053ad0       ?GS_DGAnsGuildMarkReset@@YAXPAE@Z 00454ad0 f   DSProtocol.obj
 0001:00053b10       ?GS_DGAnsGuildSetGiveUp@@YAXPAE@Z 00454b10 f   DSProtocol.obj
 0001:00053b70       ?GS_DGAnsNpcRemove@@YAXPAE@Z 00454b70 f   DSProtocol.obj
 0001:00053bb0       ?GS_DGAnsCastleStateSync@@YAXPAE@Z 00454bb0 f   DSProtocol.obj
 0001:00053c10       ?GS_DGAnsCastleTributeMoney@@YAXPAE@Z 00454c10 f   DSProtocol.obj
 0001:00053c70       ?GS_DGAnsResetCastleTaxInfo@@YAXPAE@Z 00454c70 f   DSProtocol.obj
 0001:00053cc0       ?GS_DGAnsResetSiegeGuildInfo@@YAXPAE@Z 00454cc0 f   DSProtocol.obj
 0001:00053d00       ?GS_DGAnsResetRegSiegeInfo@@YAXPAE@Z 00454d00 f   DSProtocol.obj
 0001:00053d40       ?GS_DGAnsCastleInitData@@YAXPAE@Z 00454d40 f   DSProtocol.obj
 0001:00053e50       ?GS_DGAnsCastleNpcInfo@@YAXPAE@Z 00454e50 f   DSProtocol.obj
 0001:00053e90       ?GS_DGAnsAllGuildMarkRegInfo@@YAXPAE@Z 00454e90 f   DSProtocol.obj
 0001:00053fd0       ?GS_DGAnsFirstCreateNPC@@YAXPAE@Z 00454fd0 f   DSProtocol.obj
 0001:00054030       ?GS_DGAnsCalcREgGuildList@@YAXPAE@Z 00455030 f   DSProtocol.obj
 0001:000540a0       ?GS_DGAnsCsGulidUnionInfo@@YAXPAE@Z 004550a0 f   DSProtocol.obj
 0001:00054100       ?GS_DGAnsCsSaveTotalGuildInfo@@YAXPAE@Z 00455100 f   DSProtocol.obj
 0001:00054150       ?GS_DGAnsCsLoadTotalGuildInfo@@YAXPAE@Z 00455150 f   DSProtocol.obj
 0001:000541b0       ?GS_DGAnsCastleNpcUpdate@@YAXPAE@Z 004551b0 f   DSProtocol.obj
 0001:00054210       ?GDReqCrywolfSync@@YAXHHH@Z 00455210 f   DSProtocol.obj
 0001:00054260       ?DGAnsCrywolfSync@@YAXPAE@Z 00455260 f   DSProtocol.obj
 0001:000542d0       ?GDReqCrywolfInfoLoad@@YAXH@Z 004552d0 f   DSProtocol.obj
 0001:00054300       ?DGAnsCrywolfInfoLoad@@YAXPAE@Z 00455300 f   DSProtocol.obj
 0001:00054350       ?GDReqCrywolfInfoSave@@YAXHHH@Z 00455350 f   DSProtocol.obj
 0001:000543a0       ?DGChangeNameResult@@YAXPAUSDHP_CHANGENAME_RESULT@@@Z 004553a0 f   DSProtocol.obj
 0001:000544d0       ?DGSummonerStateUpdatedSend@@YAXPAUPMSG_ANS_SUMMONER_CREATE@@@Z 004554d0 f   DSProtocol.obj
 0001:000545b0       ?DGRageFighterStateUpdatedSend@@YAXPAUPMSG_ANS_SUMMONER_CREATE@@@Z 004555b0 f   DSProtocol.obj
 0001:00054690       ?GDSummonerStateUpdate@@YAXPAUOBJECTSTRUCT@@H@Z 00455690 f   DSProtocol.obj
 0001:00054700       ?DGSummonerStateRecv@@YAXPAUPMSG_ANS_SUMMONER_STATUS@@@Z 00455700 f   DSProtocol.obj
 0001:000547e0       ?GDRageFighterStateUpdate@@YAXPAUOBJECTSTRUCT@@H@Z 004557e0 f   DSProtocol.obj
 0001:00054850       ?DGRageFighterStateRecv@@YAXPAUPMSG_ANS_SUMMONER_STATUS@@@Z 00455850 f   DSProtocol.obj
 0001:00054930       ?GDUpdateExtendedInvenCount@@YAXPAUOBJECTSTRUCT@@EKH_N1@Z 00455930 f   DSProtocol.obj
 0001:000549b0       ?DGUpdateExtendedInvenCountResult@@YAXPAUSDHP_ANS_SET_EXTENDEDINVEN_COUNT@@@Z 004559b0 f   DSProtocol.obj
 0001:00054b20       ?GDUpdateExtendedWarehouseCount@@YAXPAUOBJECTSTRUCT@@EKH_N1@Z 00455b20 f   DSProtocol.obj
 0001:00054ba0       ?DGUpdateExtendedWarehouseResult@@YAXPAUSDHP_ANS_SET_EXTENDEDWAREHOUSE_COUNT@@@Z 00455ba0 f   DSProtocol.obj
 0001:00054d10       ?Instance@CTemporaryUserManager@@SAPAV1@XZ 00455d10 f i DSProtocol.obj
 0001:00054d60       ?JGGetCharacterInfo@@YAXPAUSDHP_DBCHAR_INFORESULT@@@Z 00455d60 f   DSProtocol.obj
 0001:000556d0       ?DGGetWarehouseList@@YAXPAUSDHP_GETWAREHOUSEDB_SAVE@@@Z 004566d0 f   DSProtocol.obj
 0001:00055dd0       ?GDSetWarehouseList@@YAXH@Z 00456dd0 f   DSProtocol.obj
 0001:00055ed0       ?GJSetCharacterInfo@@YAXPAUOBJECTSTRUCT@@HHE@Z 00456ed0 f   DSProtocol.obj
 0001:000562e0       ?DGMoveOtherServer@@YAXPAUSDHP_CHARACTER_TRANSFER_RESULT@@@Z 004572e0 f   DSProtocol.obj
 0001:000563f0       ?DataServerProtocolCore@@YAXEPAEH@Z 004573f0 f   DSProtocol.obj
 0001:00056f10       ?ExDataServerLogin@@YAXXZ  00457f10 f   EDSProtocol.obj
 0001:00056f70       ?GDCharClose@@YAXHPAD0@Z   00457f70 f   EDSProtocol.obj
 0001:00056ff0       ?ExDataServerLoginResult@@YAXPAUSDHP_RESULT@@@Z 00457ff0 f   EDSProtocol.obj
 0001:00057050       ?GDCharCloseRecv@@YAXPAUSDHP_USERCLOSE@@@Z 00458050 f   EDSProtocol.obj
 0001:000570c0       ?GDGuildCreateSend@@YAXHPAD0PAEH@Z 004580c0 f   EDSProtocol.obj
 0001:00057150       ?GDGuildCreateRecv@@YAXPAUSDHP_GUILDCREATE_RESULT@@@Z 00458150 f   EDSProtocol.obj
 0001:000573b0       ?GDGuildDestroySend@@YAXHPAD0@Z 004583b0 f   EDSProtocol.obj
 0001:00057420       ?GDGuildDestroyRecv@@YAXPAUSDHP_GUILDDESTROY_RESULT@@@Z 00458420 f   EDSProtocol.obj
 0001:00057670       ?GDGuildMemberAdd@@YAXHPAD0@Z 00458670 f   EDSProtocol.obj
 0001:000576e0       ?GDGuildMemberAddResult@@YAXPAUSDHP_GUILDMEMBERADD_RESULT@@@Z 004586e0 f   EDSProtocol.obj
 0001:00057840       ?GDGuildMemberDel@@YAXHPAD0@Z 00458840 f   EDSProtocol.obj
 0001:000578b0       ?GDGuildMemberDelResult@@YAXPAUSDHP_GUILDMEMBERDEL_RESULT@@@Z 004588b0 f   EDSProtocol.obj
 0001:00057b10       ?DGGuildMemberInfoRequest@@YAXH@Z 00458b10 f   EDSProtocol.obj
 0001:00057b80       ?DGGuildMemberInfo@@YAXPAUSDHP_GUILDMEMBER_INFO@@@Z 00458b80 f   EDSProtocol.obj
 0001:00057f90       ?DGGuildMasterListRecv@@YAXPAE@Z 00458f90 f   EDSProtocol.obj
 0001:000580d0       ?DGGuildScoreUpdate@@YAXPADH@Z 004590d0 f   EDSProtocol.obj
 0001:00058150       ?GDGuildScoreUpdateRecv@@YAXPAUSDHP_GUILDSCOREUPDATE@@@Z 00459150 f   EDSProtocol.obj
 0001:000581a0       ?GDGuildNoticeSave@@YAXPAD0@Z 004591a0 f   EDSProtocol.obj
 0001:00058220       ?DGGuildNoticeRecv@@YAXPAUSDHP_GUILDNOTICE@@@Z 00459220 f   EDSProtocol.obj
 0001:000582c0       ?DGGuildListRequest@@YAXXZ 004592c0 f   EDSProtocol.obj
 0001:000582f0       ?DGGuildList@@YAXPAUSDHP_GUILDCREATED@@@Z 004592f0 f   EDSProtocol.obj
 0001:000583a0       ?GuildListDlgProc@@YGHPAUHWND__@@IIJ@Z 004593a0 f   EDSProtocol.obj
 0001:000583e0       ?DGGuildListState@@YAXPAUSDHP_GUILDLISTSTATE@@@Z 004593e0 f   EDSProtocol.obj
 0001:000584c0       ?GDGuildServerGroupChattingSend@@YAXHPAUPMSG_CHATDATA@@@Z 004594c0 f   EDSProtocol.obj
 0001:00058540       ?DGGuildServerGroupChattingRecv@@YAXPAUEXSDHP_SERVERGROUP_GUILD_CHATTING_RECV@@@Z 00459540 f   EDSProtocol.obj
 0001:00058650       ?GDUnionServerGroupChattingSend@@YAXHPAUPMSG_CHATDATA@@@Z 00459650 f   EDSProtocol.obj
 0001:000586d0       ?DGUnionServerGroupChattingRecv@@YAXPAUEXSDHP_SERVERGROUP_UNION_CHATTING_RECV@@@Z 004596d0 f   EDSProtocol.obj
 0001:00058880       ?GDGuildReqAssignStatus@@YAXHHPADH@Z 00459880 f   EDSProtocol.obj
 0001:00058930       ?DGGuildAnsAssignStatus@@YAXPAUEXSDHP_GUILD_ASSIGN_STATUS_RESULT@@@Z 00459930 f   EDSProtocol.obj
 0001:00058be0       ?GDGuildReqAssignType@@YAXHH@Z 00459be0 f   EDSProtocol.obj
 0001:00058c60       ?DGGuildAnsAssignType@@YAXPAUEXSDHP_GUILD_ASSIGN_TYPE_RESULT@@@Z 00459c60 f   EDSProtocol.obj
 0001:00058e30       ?GDRelationShipReqJoin@@YAXHHH@Z 00459e30 f   EDSProtocol.obj
 0001:00058ee0       ?GDUnionBreakOff@@YAXHH@Z  00459ee0 f   EDSProtocol.obj
 0001:00058f70       ?GDRelationShipReqBreakOff@@YAXHHH@Z 00459f70 f   EDSProtocol.obj
 0001:00059010       ?DGRelationShipListRecv@@YAXPAUEXSDHP_UNION_RELATIONSHIP_LIST@@@Z 0045a010 f   EDSProtocol.obj
 0001:00059080       ?GDUnionListSend@@YAXHH@Z  0045a080 f   EDSProtocol.obj
 0001:000590e0       ?DGUnionListRecv@@YAXPAE@Z 0045a0e0 f   EDSProtocol.obj
 0001:00059240       ?GDRelationShipReqKickOutUnionMember@@YAXHPAD@Z 0045a240 f   EDSProtocol.obj
 0001:000592d0       ?FriendListRequest@@YAXH@Z 0045a2d0 f   EDSProtocol.obj
 0001:00059400       ?FriendListResult@@YAXPAE@Z 0045a400 f   EDSProtocol.obj
 0001:000595b0       ?WaitFriendListResult@@YAXPAUFHP_WAITFRIENDLIST_COUNT@@@Z 0045a5b0 f   EDSProtocol.obj
 0001:000596b0       ?FriendStateClientRecv@@YAXPAUPMSG_FRIEND_STATE_C@@H@Z 0045a6b0 f   EDSProtocol.obj
 0001:00059750       ?FriendStateRecv@@YAXPAUFHP_FRIEND_STATE@@@Z 0045a750 f   EDSProtocol.obj
 0001:00059840       ?FriendAddRequest@@YAXPAUPMSG_FRIEND_ADD_REQ@@H@Z 0045a840 f   EDSProtocol.obj
 0001:00059a20       ?FriendAddResult@@YAXPAUFHP_FRIEND_ADD_RESULT@@@Z 0045aa20 f   EDSProtocol.obj
 0001:00059b30       ?WaitFriendAddRequest@@YAXPAUPMSG_FRIEND_ADD_SIN_RESULT@@H@Z 0045ab30 f   EDSProtocol.obj
 0001:00059c40       ?WaitFriendAddResult@@YAXPAUFHP_WAITFRIEND_ADD_RESULT@@@Z 0045ac40 f   EDSProtocol.obj
 0001:00059d50       ?FriendDelRequest@@YAXPAUPMSG_FRIEND_DEL_REQ@@H@Z 0045ad50 f   EDSProtocol.obj
 0001:00059e50       ?FriendDelResult@@YAXPAUFHP_FRIEND_DEL_RESULT@@@Z 0045ae50 f   EDSProtocol.obj
 0001:00059f50       ?FriendChatRoomCreateReq@@YAXPAUPMSG_FRIEND_ROOMCREATE_REQ@@H@Z 0045af50 f   EDSProtocol.obj
 0001:0005a050       ?FriendChatRoomCreateResult@@YAXPAUFHP_FRIEND_CHATROOM_CREATE_RESULT@@@Z 0045b050 f   EDSProtocol.obj
 0001:0005a180       ?MngFriendMemoSend@@YAXPAUPMSG_JG_MEMO_SEND@@@Z 0045b180 f   EDSProtocol.obj
 0001:0005a300       ?WithdrawUserMoney@@YAHPADPAUOBJECTSTRUCT@@H@Z 0045b300 f   EDSProtocol.obj
 0001:0005a360       ?FriendMemoSendResult@@YAXPAUFHP_FRIEND_MEMO_SEND_RESULT@@@Z 0045b360 f   EDSProtocol.obj
 0001:0005a4c0       ?FriendMemoListReq@@YAXH@Z 0045b4c0 f   EDSProtocol.obj
 0001:0005a570       ?FriendMemoList@@YAXPAUFHP_FRIEND_MEMO_LIST@@@Z 0045b570 f   EDSProtocol.obj
 0001:0005a720       ?FriendMemoReadReq@@YAXPAUPMSG_FRIEND_READ_MEMO_REQ@@H@Z 0045b720 f   EDSProtocol.obj
 0001:0005a7f0       ?FriendMemoRead@@YAXPAUFHP_FRIEND_MEMO_RECV@@@Z 0045b7f0 f   EDSProtocol.obj
 0001:0005a980       ?SetTimeStamp@_GUILD_INFO_STRUCT@@QAEXXZ 0045b980 f   EDSProtocol.obj
 0001:0005a990       ?FriendMemoDelReq@@YAXPAUPMSG_FRIEND_MEMO_DEL_REQ@@H@Z 0045b990 f   EDSProtocol.obj
 0001:0005aa60       ?FriendMemoDelResult@@YAXPAUFHP_FRIEND_MEMO_DEL_RESULT@@@Z 0045ba60 f   EDSProtocol.obj
 0001:0005ab30       ?FriendRoomInvitationReq@@YAXPAUPMSG_ROOM_INVITATION@@H@Z 0045bb30 f   EDSProtocol.obj
 0001:0005ac10       ?FriendRoomInvitationRecv@@YAXPAUFHP_FRIEND_INVITATION_RET@@@Z 0045bc10 f   EDSProtocol.obj
 0001:0005ace0       ?DGRelationShipNotificationRecv@@YAXPAUEXSDHP_NOTIFICATION_RELATIONSHIP@@@Z 0045bce0 f   EDSProtocol.obj
 0001:0005adf0       ?FriendMemoSend@@YAXPAUPMSG_FRIEND_MEMO@@H@Z 0045bdf0 f   EDSProtocol.obj
 0001:0005b0c0       ?SetGuildUnion@_GUILD_INFO_STRUCT@@QAEXH@Z 0045c0c0 f   EDSProtocol.obj
 0001:0005b0e0       ?SetGuildRival@_GUILD_INFO_STRUCT@@QAEXH@Z 0045c0e0 f   EDSProtocol.obj
 0001:0005b100       ?DGRelationShipAnsJoin@@YAXPAUEXSDHP_RELATIONSHIP_JOIN_RESULT@@@Z 0045c100 f   EDSProtocol.obj
 0001:0005b400       ?DGUnionBreakOff@@YAXPAUEXSDHP_RELATIONSHIP_BREAKOFF_RESULT@@@Z 0045c400 f   EDSProtocol.obj
 0001:0005b610       ?DGRelationShipAnsBreakOff@@YAXPAUEXSDHP_RELATIONSHIP_BREAKOFF_RESULT@@@Z 0045c610 f   EDSProtocol.obj
 0001:0005b820       ?DGRelationShipAnsKickOutUnionMember@@YAXPAUEXSDHP_KICKOUT_UNIONMEMBER_RESULT@@@Z 0045c820 f   EDSProtocol.obj
 0001:0005ba10       ?ExDataServerProtocolCore@@YAXEPAEH@Z 0045ca10 f   EDSProtocol.obj
 0001:0005bd90       ??0CEledoradoEvent@@QAE@XZ 0045cd90 f   EledoradoEvent.obj
 0001:0005bde0       ??1CEledoradoEvent@@UAE@XZ 0045cde0 f   EledoradoEvent.obj
 0001:0005bdf0       ?SetEventState@CEledoradoEvent@@QAEXH@Z 0045cdf0 f   EledoradoEvent.obj
 0001:0005bdf0       ?SetRaklionEnable@CRaklion@@QAEXH@Z 0045cdf0 f   Raklion.obj
 0001:0005be00       ?RegenGoldGoblen@CEledoradoEvent@@QAEXXZ 0045ce00 f   EledoradoEvent.obj
 0001:0005bf50       ?RegenTitan@CEledoradoEvent@@QAEXXZ 0045cf50 f   EledoradoEvent.obj
 0001:0005c1f0       ?RegenDevilLizardKing@CEledoradoEvent@@QAEXXZ 0045d1f0 f   EledoradoEvent.obj
 0001:0005c3e0       ?RegenKantur@CEledoradoEvent@@QAEXXZ 0045d3e0 f   EledoradoEvent.obj
 0001:0005c600       ?CheckGoldDercon@CEledoradoEvent@@QAEXH@Z 0045d600 f   EledoradoEvent.obj
 0001:0005c690       ?RegenGoldenRabbit@CEledoradoEvent@@QAEXXZ 0045d690 f   EledoradoEvent.obj
 0001:0005c7f0       ?RegenGoldenDarkKnight@CEledoradoEvent@@QAEXXZ 0045d7f0 f   EledoradoEvent.obj
 0001:0005c950       ?RegenGoldenDevil@CEledoradoEvent@@QAEXXZ 0045d950 f   EledoradoEvent.obj
 0001:0005cab0       ?RegenGoldenMonster@CEledoradoEvent@@QAEXXZ 0045dab0 f   EledoradoEvent.obj
 0001:0005cc10       ?RegenGoldenCrust@CEledoradoEvent@@QAEXXZ 0045dc10 f   EledoradoEvent.obj
 0001:0005cd70       ?RegenGoldenSatiros@CEledoradoEvent@@QAEXXZ 0045dd70 f   EledoradoEvent.obj
 0001:0005ced0       ?RegenGoldenTwintail@CEledoradoEvent@@QAEXXZ 0045ded0 f   EledoradoEvent.obj
 0001:0005d030       ?RegenGoldenIronKnight@CEledoradoEvent@@QAEXXZ 0045e030 f   EledoradoEvent.obj
 0001:0005d190       ?RegenGoldenNeipin@CEledoradoEvent@@QAEXXZ 0045e190 f   EledoradoEvent.obj
 0001:0005d2f0       ?RegenGoldenGreatDragon@CEledoradoEvent@@QAEXXZ 0045e2f0 f   EledoradoEvent.obj
 0001:0005d480       ??_ECEledoradoEvent@@UAEPAXI@Z 0045e480 f i EledoradoEvent.obj
 0001:0005d480       ??_GCEledoradoEvent@@UAEPAXI@Z 0045e480 f i EledoradoEvent.obj
 0001:0005d4b0       ?RegenGoldDercon@CEledoradoEvent@@QAEXXZ 0045e4b0 f   EledoradoEvent.obj
 0001:0005d7f0       ?Start_Menual@CEledoradoEvent@@QAEXXZ 0045e7f0 f   EledoradoEvent.obj
 0001:0005d8b0       ?Run@CEledoradoEvent@@QAEXXZ 0045e8b0 f   EledoradoEvent.obj
 0001:0005db80       ?DataSendEventChip@@YAXPADH@Z 0045eb80 f   Event.obj
 0001:0005dc10       ?EledoradoBoxOpenEven@@YAXPAUOBJECTSTRUCT@@HHH@Z 0045ec10 f   Event.obj
 0001:0005dc90       ?EventChipOpenEven@@YAXPAUOBJECTSTRUCT@@@Z 0045ec90 f   Event.obj
 0001:0005e020       ?GoldMedalOpenEven@@YAXPAUOBJECTSTRUCT@@@Z 0045f020 f   Event.obj
 0001:0005e340       ?SilverMedalOpenEven@@YAXPAUOBJECTSTRUCT@@@Z 0045f340 f   Event.obj
 0001:0005e660       ?HeartOfLoveOpenEven@@YAXPAUOBJECTSTRUCT@@@Z 0045f660 f   Event.obj
 0001:0005e960       ?FireCrackerOpenEven@@YAXPAUOBJECTSTRUCT@@@Z 0045f960 f   Event.obj
 0001:0005ed10       ?StarOfXMasOpenEven@@YAXPAUOBJECTSTRUCT@@@Z 0045fd10 f   Event.obj
 0001:0005ed30       ?FriendShipItemBoxOpen@@YAXPAUOBJECTSTRUCT@@@Z 0045fd30 f   Event.obj
 0001:0005ef70       ?HiddenTreasureBoxItemBoxOpen@@YAXPAUOBJECTSTRUCT@@@Z 0045ff70 f   Event.obj
 0001:0005f240       ?RedRibbonBoxOpen@@YAXPAUOBJECTSTRUCT@@@Z 00460240 f   Event.obj
 0001:0005f260       ?GreenRibbonBoxOpen@@YAXPAUOBJECTSTRUCT@@@Z 00460260 f   Event.obj
 0001:0005f280       ?BlueRibbonBoxOpen@@YAXPAUOBJECTSTRUCT@@@Z 00460280 f   Event.obj
 0001:0005f2a0       ?PinkChocolateBoxOpen@@YAXPAUOBJECTSTRUCT@@@Z 004602a0 f   Event.obj
 0001:0005f2c0       ?RedChocolateBoxOpen@@YAXPAUOBJECTSTRUCT@@@Z 004602c0 f   Event.obj
 0001:0005f2e0       ?BlueChocolateBoxOpen@@YAXPAUOBJECTSTRUCT@@@Z 004602e0 f   Event.obj
 0001:0005f300       ?LightPurpleCandyBoxOpen@@YAXPAUOBJECTSTRUCT@@@Z 00460300 f   Event.obj
 0001:0005f320       ?VermilionCandyBoxOpen@@YAXPAUOBJECTSTRUCT@@@Z 00460320 f   Event.obj
 0001:0005f340       ?DeepBlueCandyBoxOpen@@YAXPAUOBJECTSTRUCT@@@Z 00460340 f   Event.obj
 0001:0005f360       ?KundunEventItemBoxOpen@@YAXPAUOBJECTSTRUCT@@EEE@Z 00460360 f   Event.obj
 0001:0005f390       ?HallowinDayEventItemBoxOpen@@YAXPAUOBJECTSTRUCT@@@Z 00460390 f   Event.obj
 0001:0005f3b0       ?ChristmasStarDrop@@YAXPAUOBJECTSTRUCT@@@Z 004603b0 f   Event.obj
 0001:0005f410       ?ChristmasFireCrackDrop@@YAXPAUOBJECTSTRUCT@@@Z 00460410 f   Event.obj
 0001:0005f470       ?CherryBlossomEventItemBoxOpen@@YAXPAUOBJECTSTRUCT@@EEE@Z 00460470 f   Event.obj
 0001:0005f4e0       ?CherryBlossomEventItemBoxAOpen@@YAHPAUOBJECTSTRUCT@@EEEPAH@Z 004604e0 f   Event.obj
 0001:0005f510       ?CherryBlossomEventItemBoxBOpen@@YAHPAUOBJECTSTRUCT@@EEEPAH@Z 00460510 f   Event.obj
 0001:0005f540       ?CherryBlossomEventItemBoxCOpen@@YAHPAUOBJECTSTRUCT@@EEEPAH@Z 00460540 f   Event.obj
 0001:0005f570       ?CastleHuntZoneBossRewardOpen@@YAXPAUOBJECTSTRUCT@@EEE@Z 00460570 f   Event.obj
 0001:0005f5a0       ?CrywolfDarkElfItemBagOpen@@YAXPAUOBJECTSTRUCT@@EEE@Z 004605a0 f   Event.obj
 0001:0005f5d0       ?CrywolfBossMonsterItemBagOpen@@YAXPAUOBJECTSTRUCT@@EEE@Z 004605d0 f   Event.obj
 0001:0005f600       ?RaklionBossMonsterItemBagOpen@@YAXPAUOBJECTSTRUCT@@EEE@Z 00460600 f   Event.obj
 0001:0005f630       ?LuckyCoint10ItemBagOpen@@YAXPAUOBJECTSTRUCT@@EEE@Z 00460630 f   Event.obj
 0001:0005f660       ?LuckyCoint20ItemBagOpen@@YAXPAUOBJECTSTRUCT@@EEE@Z 00460660 f   Event.obj
 0001:0005f690       ?LuckyCoint30ItemBagOpen@@YAXPAUOBJECTSTRUCT@@EEE@Z 00460690 f   Event.obj
 0001:0005f6c0       ?KanturuMayaHandItemBagOpen@@YAXPAUOBJECTSTRUCT@@EEE@Z 004606c0 f   Event.obj
 0001:0005f6f0       ?KanturuNightmareItemBagOpen@@YAXPAUOBJECTSTRUCT@@EEE@Z 004606f0 f   Event.obj
 0001:0005f720       ?LuckyBoxOpenEven@@YAXPAUOBJECTSTRUCT@@@Z 00460720 f   Event.obj
 0001:0005fa50       ?AttackEvent55BagOpen@@YAHPAUOBJECTSTRUCT@@@Z 00460a50 f   Event.obj
 0001:0005fc40       ?EGRecvEventChipInfo@@YAXPAUPMSG_ANS_VIEW_EC_MN@@@Z 00460c40 f   Event.obj
 0001:0005fcc0       ?EGResultRegEventChip@@YAXPAUPMSG_ANS_REGISTER_EVENTCHIP@@@Z 00460cc0 f   Event.obj
 0001:0005fd80       ?EGRecvRegMutoNum@@YAXPAUPMSG_ANS_REGISTER_MUTONUM@@@Z 00460d80 f   Event.obj
 0001:0005fe80       ?EGRecvChangeRena@@YAXPAUPMSG_ANS_RESET_EVENTCHIP@@@Z 00460e80 f   Event.obj
 0001:0005ff50       ?EGRecvStoneInfo@@YAXPAUPMSG_ANS_VIEW_STONES@@@Z 00460f50 f   Event.obj
 0001:00060030       ?EGRecvRegStone@@YAXPAUPMSG_ANS_REGISTER_STONES@@@Z 00461030 f   Event.obj
 0001:000600e0       ?EGRecvChangeStones@@YAXPAUPMSG_ANS_RESET_EVENTCHIP@@@Z 004610e0 f   Event.obj
 0001:000601b0       ?EGRecv2AnvRegSerial@@YAXPAUPMSG_ANS_2ANIV_SERIAL@@@Z 004611b0 f   Event.obj
 0001:00060440       ?EGRecvRegRingGift@@YAXPAUPMSG_ANS_REG_RINGGIFT@@@Z 00461440 f   Event.obj
 0001:00060620       ?EGReqBloodCastleEnterCount@@YAXH@Z 00461620 f   Event.obj
 0001:00060740       ?EGAnsRegCCOfflineGift@@YAXPAUPMSG_ANS_REG_CC_OFFLINE_GIFT@@@Z 00461740 f   Event.obj
 0001:00060830       ?EGReqRegDLOfflineGift@@YAXH@Z 00461830 f   Event.obj
 0001:000608f0       ?EGAnsRegDLOfflineGift@@YAXPAUPMSG_ANS_REG_DL_OFFLINE_GIFT@@@Z 004618f0 f   Event.obj
 0001:000609e0       ?EGReqRegHTOfflineGift@@YAXH@Z 004619e0 f   Event.obj
 0001:00060aa0       ?EGAnsRegHTOfflineGift@@YAXPAUPMSG_ANS_REG_HT_OFFLINE_GIFT@@@Z 00461aa0 f   Event.obj
 0001:00060be0       ?Japan1StAnivBoxOpen@@YAXPAUOBJECTSTRUCT@@H@Z 00461be0 f   Event.obj
 0001:00060ca0       ?RingOfHeroBoxOpen@@YAXPAUOBJECTSTRUCT@@@Z 00461ca0 f   Event.obj
 0001:00060f40       ?NewYearLuckMonsterItemBagOpen@@YAXPAUOBJECTSTRUCT@@EEE@Z 00461f40 f   Event.obj
 0001:00060f70       ?GMPresentBoxItemBagOpen@@YAXPAUOBJECTSTRUCT@@@Z 00461f70 f   Event.obj
 0001:00060fa0       ?GenericBoxItemBagOpen@@YAXPAUOBJECTSTRUCT@@EEE@Z 00461fa0 f   Event.obj
 0001:00060fd0       ?GoldenBoxItemBagOpen@@YAXPAUOBJECTSTRUCT@@EEE@Z 00461fd0 f   Event.obj
 0001:00061000       ?SilverBoxItemBagOpen@@YAXPAUOBJECTSTRUCT@@EEE@Z 00462000 f   Event.obj
 0001:00061030       ?ShineJewelleryCaseItemBagOpen@@YAXPAUOBJECTSTRUCT@@EEE@Z 00462030 f   Event.obj
 0001:00061060       ?RefinedJewelleryCaseItemBagOpen@@YAXPAUOBJECTSTRUCT@@EEE@Z 00462060 f   Event.obj
 0001:00061090       ?IronJewelleryCaseItemBagOpen@@YAXPAUOBJECTSTRUCT@@EEE@Z 00462090 f   Event.obj
 0001:000610c0       ?OldJewelleryCaseItemBagOpen@@YAXPAUOBJECTSTRUCT@@EEE@Z 004620c0 f   Event.obj
 0001:000610f0       ?NewMonsterItemBagOpen@@YAXPAUOBJECTSTRUCT@@EEEH@Z 004620f0 f   Event.obj
 0001:00061120       ?BoxOfGreenColorItemBagOpen@@YAXPAUOBJECTSTRUCT@@EEE@Z 00462120 f   Event.obj
 0001:00061150       ?BoxOfRedColorItemBagOpen@@YAXPAUOBJECTSTRUCT@@EEE@Z 00462150 f   Event.obj
 0001:00061180       ?BoxOfPurpleColorItemBagOpen@@YAXPAUOBJECTSTRUCT@@EEE@Z 00462180 f   Event.obj
 0001:000611b0       ?EGAnsRegXMasGetPayItem@@YAXHH@Z 004621b0 f   Event.obj
 0001:00061270       ?EGAnsRegXMasGetPayItemResult@@YAXPAUPMSG_XMAS_PAY_ITEM_RESULT@@@Z 00462270 f   Event.obj
 0001:00061330       ?EGAnsRegXMasSetPayItem@@YAXHH@Z 00462330 f   Event.obj
 0001:000613f0       ?EGAnsRegXMasSetPayItemResult@@YAXPAUPMSG_XMAS_PAY_ITEM_RESULT@@@Z 004623f0 f   Event.obj
 0001:000615c0       ?CGReqCheckSnowManNPC@@YAXH@Z 004625c0 f   Event.obj
 0001:00061600       ?ReqNPCXMasMapMoveDevias@@YAXH@Z 00462600 f   Event.obj
 0001:00061640       ?EGAnsRegLuckyCoinItem@@YAXH@Z 00462640 f   Event.obj
 0001:00061710       ?EGAnsRegLuckyCoinItemResult@@YAXPAUPMSG_ANS_LUCKYCOIN_REGCOUNT_RESULT@@@Z 00462710 f   Event.obj
 0001:00061780       ?EGAnsRegLuckyCoinItemPosition@@YAXHH@Z 00462780 f   Event.obj
 0001:00061860       ?EGAnsRegLuckyCoinItemPositionResult@@YAXPAUPMSG_ANS_LUCKYCOIN_REGCOUNT_RESULT@@@Z 00462860 f   Event.obj
 0001:000618e0       ?EGRecvGoldenArcherInfo@@YAXPAUPMSG_ANS_VIEW_GOLDEN_ARCHER_WINDOW@@@Z 004628e0 f   Event.obj
 0001:00061960       ?RenaResultWinnerPrize@@YAXH@Z 00462960 f   Event.obj
 0001:00061ac0       ?DarkLordHeartItemBoxOpen@@YAXPAUOBJECTSTRUCT@@@Z 00462ac0 f   Event.obj
 0001:00061da0       ?EGResultRegGoldenArcherRena@@YAXPAUPMSG_ANS_REGISTER_EVENTCHIP@@@Z 00462da0 f   Event.obj
 0001:00061ec0       ?EventChipEventProtocolCore@@YAXEPAEH@Z 00462ec0 f   Event.obj
 0001:00062360       ?allocate@?$allocator@VCEventItemBagAttr@@@std@@QAEPAVCEventItemBagAttr@@I@Z 00463360 f i EventDungeonItemBag.obj
 0001:00062360       ?allocate@?$allocator@UEVENT_ID_TIME@@@std@@QAEPAUEVENT_ID_TIME@@I@Z 00463360 f i EventManagement.obj
 0001:000623c0       ?allocate@?$allocator@UEVENT_ID_ITEM_LIST@@@std@@QAEPAUEVENT_ID_ITEM_LIST@@I@Z 004633c0 f i EventManagement.obj
 0001:00062420       ??$_Cons_val@V?$allocator@UEVENT_ID_ITEM_LIST@@@std@@UEVENT_ID_ITEM_LIST@@U3@@std@@YAXAAV?$allocator@UEVENT_ID_ITEM_LIST@@@0@PAUEVENT_ID_ITEM_LIST@@$$QAU2@@Z 00463420 f i EventManagement.obj
 0001:00062420       ??$_Cons_val@V?$allocator@UEVENT_ID_ITEM_LIST@@@std@@UEVENT_ID_ITEM_LIST@@ABU3@@std@@YAXAAV?$allocator@UEVENT_ID_ITEM_LIST@@@0@PAUEVENT_ID_ITEM_LIST@@ABU2@@Z 00463420 f i EventManagement.obj
 0001:00062420       ??$_Cons_val@V?$allocator@UEVENT_ID_ITEM_LIST@@@std@@UEVENT_ID_ITEM_LIST@@AAU3@@std@@YAXAAV?$allocator@UEVENT_ID_ITEM_LIST@@@0@PAUEVENT_ID_ITEM_LIST@@AAU2@@Z 00463420 f i EventManagement.obj
 0001:00062440       ??$_Uninit_move@PAVCEventItemBagAttr@@PAV1@V?$allocator@VCEventItemBagAttr@@@std@@V1@@std@@YAPAVCEventItemBagAttr@@PAV1@00AAV?$allocator@VCEventItemBagAttr@@@0@0U_Nonscalar_ptr_iterator_tag@0@@Z 00463440 f i EventDungeonItemBag.obj
 0001:00062440       ??$_Uninit_move@PAUEVENT_ID_TIME@@PAU1@V?$allocator@UEVENT_ID_TIME@@@std@@U1@@std@@YAPAUEVENT_ID_TIME@@PAU1@00AAV?$allocator@UEVENT_ID_TIME@@@0@0U_Nonscalar_ptr_iterator_tag@0@@Z 00463440 f i EventManagement.obj
 0001:00062480       ??$_Uninit_move@PAUEVENT_ID_ITEM_LIST@@PAU1@V?$allocator@UEVENT_ID_ITEM_LIST@@@std@@U1@@std@@YAPAUEVENT_ID_ITEM_LIST@@PAU1@00AAV?$allocator@UEVENT_ID_ITEM_LIST@@@0@0U_Nonscalar_ptr_iterator_tag@0@@Z 00463480 f i EventManagement.obj
 0001:000624c0       ?SortItem@CEventItemList@@QAEHEPAE0@Z 004634c0 f   EventManagement.obj
 0001:00062540       ?_Linsert@?$_Tree@V?$_Tmap_traits@HPAU_MAPSVR_DATA@@U?$less@H@std@@V?$allocator@U?$pair@$$CBHPAU_MAPSVR_DATA@@@std@@@3@$0A@@std@@@std@@QAE?AU?$pair@V?$_Tree_iterator@V?$_Tree_val@V?$_Tmap_traits@HPAU_MAPSVR_DATA@@U?$less@H@std@@V?$allocator@U?$pair@$$CBHPAU_MAPSVR_DATA@@@std@@@3@$0A@@std@@@std@@@std@@_N@2@PAU_Node@?$_Tree_nod@V?$_Tmap_traits@HPAU_MAPSVR_DATA@@U?$less@H@std@@V?$allocator@U?$pair@$$CBHPAU_MAPSVR_DATA@@@std@@@3@$0A@@std@@@2@_N@Z 00463540 f i MapServerManager.obj
 0001:00062540       ?_Linsert@?$_Tree@V?$_Tmap_traits@HPAVTUnionInfo@@U?$less@H@std@@V?$allocator@U?$pair@$$CBHPAVTUnionInfo@@@std@@@3@$0A@@std@@@std@@QAE?AU?$pair@V?$_Tree_iterator@V?$_Tree_val@V?$_Tmap_traits@HPAVTUnionInfo@@U?$less@H@std@@V?$allocator@U?$pair@$$CBHPAVTUnionInfo@@@std@@@3@$0A@@std@@@std@@@std@@_N@2@PAU_Node@?$_Tree_nod@V?$_Tmap_traits@HPAVTUnionInfo@@U?$less@H@std@@V?$allocator@U?$pair@$$CBHPAVTUnionInfo@@@std@@@3@$0A@@std@@@2@_N@Z 00463540 f i TUnion.obj
 0001:00062540       ?_Linsert@?$_Tree@V?$_Tmap_traits@HPAUGAMESHOP_ITEM_DATA@@U?$less@H@std@@V?$allocator@U?$pair@$$CBHPAUGAMESHOP_ITEM_DATA@@@std@@@3@$0A@@std@@@std@@QAE?AU?$pair@V?$_Tree_iterator@V?$_Tree_val@V?$_Tmap_traits@HPAUGAMESHOP_ITEM_DATA@@U?$less@H@std@@V?$allocator@U?$pair@$$CBHPAUGAMESHOP_ITEM_DATA@@@std@@@3@$0A@@std@@@std@@@std@@_N@2@PAU_Node@?$_Tree_nod@V?$_Tmap_traits@HPAUGAMESHOP_ITEM_DATA@@U?$less@H@std@@V?$allocator@U?$pair@$$CBHPAUGAMESHOP_ITEM_DATA@@@std@@@3@$0A@@std@@@2@_N@Z 00463540 f i GameShop.obj
 0001:00062540       ?_Linsert@?$_Tree@V?$_Tmap_traits@HPAVQuestExpReward@@U?$less@H@std@@V?$allocator@U?$pair@$$CBHPAVQuestExpReward@@@std@@@3@$0A@@std@@@std@@QAE?AU?$pair@V?$_Tree_iterator@V?$_Tree_val@V?$_Tmap_traits@HPAVQuestExpReward@@U?$less@H@std@@V?$allocator@U?$pair@$$CBHPAVQuestExpReward@@@std@@@3@$0A@@std@@@std@@@std@@_N@2@PAU_Node@?$_Tree_nod@V?$_Tmap_traits@HPAVQuestExpReward@@U?$less@H@std@@V?$allocator@U?$pair@$$CBHPAVQuestExpReward@@@std@@@3@$0A@@std@@@2@_N@Z 00463540 f i QuestExpInfo.obj
 0001:00062540       ?_Linsert@?$_Tree@V?$_Tmap_traits@HPAVQuestExpAsk@@U?$less@H@std@@V?$allocator@U?$pair@$$CBHPAVQuestExpAsk@@@std@@@3@$0A@@std@@@std@@QAE?AU?$pair@V?$_Tree_iterator@V?$_Tree_val@V?$_Tmap_traits@HPAVQuestExpAsk@@U?$less@H@std@@V?$allocator@U?$pair@$$CBHPAVQuestExpAsk@@@std@@@3@$0A@@std@@@std@@@std@@_N@2@PAU_Node@?$_Tree_nod@V?$_Tmap_traits@HPAVQuestExpAsk@@U?$less@H@std@@V?$allocator@U?$pair@$$CBHPAVQuestExpAsk@@@std@@@3@$0A@@std@@@2@_N@Z 00463540 f i QuestExpInfo.obj
 0001:00062540       ?_Linsert@?$_Tree@V?$_Tmap_traits@HPAU_GUILD_INFO_STRUCT@@U?$less@H@std@@V?$allocator@U?$pair@$$CBHPAU_GUILD_INFO_STRUCT@@@std@@@3@$0A@@std@@@std@@QAE?AU?$pair@V?$_Tree_iterator@V?$_Tree_val@V?$_Tmap_traits@HPAU_GUILD_INFO_STRUCT@@U?$less@H@std@@V?$allocator@U?$pair@$$CBHPAU_GUILD_INFO_STRUCT@@@std@@@3@$0A@@std@@@std@@@std@@_N@2@PAU_Node@?$_Tree_nod@V?$_Tmap_traits@HPAU_GUILD_INFO_STRUCT@@U?$less@H@std@@V?$allocator@U?$pair@$$CBHPAU_GUILD_INFO_STRUCT@@@std@@@3@$0A@@std@@@2@_N@Z 00463540 f i GuildClass.obj
 0001:00062540       ?_Linsert@?$_Tree@V?$_Tmap_traits@HHU?$less@H@std@@V?$allocator@U?$pair@$$CBHH@std@@@2@$0A@@std@@@std@@QAE?AU?$pair@V?$_Tree_iterator@V?$_Tree_val@V?$_Tmap_traits@HHU?$less@H@std@@V?$allocator@U?$pair@$$CBHH@std@@@2@$0A@@std@@@std@@@std@@_N@2@PAU_Node@?$_Tree_nod@V?$_Tmap_traits@HHU?$less@H@std@@V?$allocator@U?$pair@$$CBHH@std@@@2@$0A@@std@@@2@_N@Z 00463540 f i CastleDeepEvent.obj
 0001:00062540       ?_Linsert@?$_Tree@V?$_Tmap_traits@HPAUGAMESHOP_PACKAGE_DATA@@U?$less@H@std@@V?$allocator@U?$pair@$$CBHPAUGAMESHOP_PACKAGE_DATA@@@std@@@3@$0A@@std@@@std@@QAE?AU?$pair@V?$_Tree_iterator@V?$_Tree_val@V?$_Tmap_traits@HPAUGAMESHOP_PACKAGE_DATA@@U?$less@H@std@@V?$allocator@U?$pair@$$CBHPAUGAMESHOP_PACKAGE_DATA@@@std@@@3@$0A@@std@@@std@@@std@@_N@2@PAU_Node@?$_Tree_nod@V?$_Tmap_traits@HPAUGAMESHOP_PACKAGE_DATA@@U?$less@H@std@@V?$allocator@U?$pair@$$CBHPAUGAMESHOP_PACKAGE_DATA@@@std@@@3@$0A@@std@@@2@_N@Z 00463540 f i GameShop.obj
 0001:00062540       ?_Linsert@?$_Tree@V?$_Tmap_traits@HPAXU?$less@H@std@@V?$allocator@U?$pair@$$CBHPAX@std@@@2@$0A@@std@@@std@@QAE?AU?$pair@V?$_Tree_iterator@V?$_Tree_val@V?$_Tmap_traits@HPAXU?$less@H@std@@V?$allocator@U?$pair@$$CBHPAX@std@@@2@$0A@@std@@@std@@@std@@_N@2@PAU_Node@?$_Tree_nod@V?$_Tmap_traits@HPAXU?$less@H@std@@V?$allocator@U?$pair@$$CBHPAX@std@@@2@$0A@@std@@@2@_N@Z 00463540 f i EventManagement.obj
 0001:00062620       ?Init@CEventManagement@@QAEXH@Z 00463620 f   EventManagement.obj
 0001:00062920       ?StartEvent@CEventManagement@@QAEXH@Z 00463920 f   EventManagement.obj
 0001:00062a40       ?RegEvent@CEventManagement@@QAEXHPAX@Z 00463a40 f   EventManagement.obj
 0001:00062a80       ?reserve@?$vector@VCEventItemBagAttr@@V?$allocator@VCEventItemBagAttr@@@std@@@std@@QAEXI@Z 00463a80 f i EventDungeonItemBag.obj
 0001:00062a80       ?reserve@?$vector@UEVENT_ID_TIME@@V?$allocator@UEVENT_ID_TIME@@@std@@@std@@QAEXI@Z 00463a80 f i EventManagement.obj
 0001:00062b50       ?reserve@?$vector@UEVENT_ID_ITEM_LIST@@V?$allocator@UEVENT_ID_ITEM_LIST@@@std@@@std@@QAEXI@Z 00463b50 f i EventManagement.obj
 0001:00062c40       ?Run@CEventManagement@@QAEXXZ 00463c40 f   EventManagement.obj
 0001:00062d50       ?_Reserve@?$vector@UEVENT_ID_ITEM_LIST@@V?$allocator@UEVENT_ID_ITEM_LIST@@@std@@@std@@IAEXI@Z 00463d50 f i EventManagement.obj
 0001:00062dd0       ??1CEventManagement@@UAE@XZ 00463dd0 f   EventManagement.obj
 0001:00062e60       ?Clear@CEventManagement@@QAEXXZ 00463e60 f   EventManagement.obj
 0001:00062eb0       ??0CEventItemList@@QAE@XZ  00463eb0 f   EventManagement.obj
 0001:00062eb0       ??0?$vector@UtagPOINT@@V?$allocator@UtagPOINT@@@std@@@std@@QAE@XZ 00463eb0 f   ChaosCastle.obj
 0001:00062eb0       ??0QuestExpProgMng@@QAE@XZ 00463eb0 f   QuestExpProgMng.obj
 0001:00062ec0       ??1CEventItemList@@QAE@XZ  00463ec0 f   EventManagement.obj
 0001:00062f10       ??0CEventManagement@@QAE@XZ 00463f10 f   EventManagement.obj
 0001:00062fd0       ??_ECEventManagement@@UAEPAXI@Z 00463fd0 f i EventManagement.obj
 0001:00062fd0       ??_GCEventManagement@@UAEPAXI@Z 00463fd0 f i EventManagement.obj
 0001:00063000       ?Load@CEventManagement@@QAE_NPAD@Z 00464000 f   EventManagement.obj
 0001:00063230       ?Load@CEventItemList@@QAEHPAD@Z 00464230 f   EventManagement.obj
 0001:00063790       ??0CGambleSystem@@QAE@XZ   00464790 f   GambleSystem.obj
 0001:000637e0       ??1CGambleSystem@@UAE@XZ   004647e0 f   GambleSystem.obj
 0001:000637f0       ?Load@CGambleSystem@@QAEXPAD@Z 004647f0 f   GambleSystem.obj
 0001:00063de0       ?GetLevel@CGambleSystem@@QAEEH@Z 00464de0 f   GambleSystem.obj
 0001:00063e30       ?GetBagItemCount@CGambleSystem@@QAEHXZ 00464e30 f   GambleSystem.obj
 0001:00063e40       ?SortExcNumberPerKind@CGambleSystem@@QAEEH@Z 00464e40 f   GambleSystem.obj
 0001:00063eb0       ?SortExcOption@CGambleSystem@@QAEEXZ 00464eb0 f   GambleSystem.obj
 0001:00063f10       ??_GCGambleSystem@@UAEPAXI@Z 00464f10 f i GambleSystem.obj
 0001:00063f10       ??_ECGambleSystem@@UAEPAXI@Z 00464f10 f i GambleSystem.obj
 0001:00063f40       ?Init@CGambleSystem@@QAEXPAD@Z 00464f40 f   GambleSystem.obj
 0001:00064040       ?TryGamble@CGambleSystem@@QAEEHEHHE@Z 00465040 f   GambleSystem.obj
 0001:000644c0       ??_GQuestExpLuaBind@@UAEPAXI@Z 004654c0 f i GameMain.obj
 0001:000644c0       ??_EQuestExpLuaBind@@UAEPAXI@Z 004654c0 f i GameMain.obj
 0001:000644f0       ?gSetDate@@YAXXZ           004654f0 f   GameMain.obj
 0001:00064520       ?gJoomin15Check@@YAHPAD@Z  00465520 f   GameMain.obj
 0001:00064570       ?gJoominCheck@@YAHPADH@Z   00465570 f   GameMain.obj
 0001:000645d0       ?GetWarehouseUsedHowMuch@@YAHHHH@Z 004655d0 f   GameMain.obj
 0001:00064660       ?GameMonsterAllAdd@@YAXXZ  00465660 f   GameMain.obj
 0001:00064900       ?GameMonsterAllCloseAndReLoad@@YAXXZ 00465900 f   GameMain.obj
 0001:00064a60       ?GameMainFree@@YAXXZ       00465a60 f   GameMain.obj
 0001:00064a80       ?GMJoinServerConnect@@YAHPADK@Z 00465a80 f   GameMain.obj
 0001:00064ae0       ?GMRankingServerConnect@@YAHPADK@Z 00465ae0 f   GameMain.obj
 0001:00064b30       ?GMEventChipServerConnect@@YAHPADK@Z 00465b30 f   GameMain.obj
 0001:00064b80       ?ExDataServerConnect@@YAHPADK@Z 00465b80 f   GameMain.obj
 0001:00064c00       ?GameMainServerCreate@@YAHKK@Z 00465c00 f   GameMain.obj
 0001:00064c30       ?GMClientMsgProc@@YAXIJ@Z  00465c30 f   GameMain.obj
 0001:00064c80       ?GMJoinClientMsgProc@@YAXIJ@Z 00465c80 f   GameMain.obj
 0001:00064ce0       ?GMRankingClientMsgProc@@YAXIJ@Z 00465ce0 f   GameMain.obj
 0001:00064d20       ?GMEventChipClientMsgProc@@YAXIJ@Z 00465d20 f   GameMain.obj
 0001:00064d60       ?ExDataClientMsgProc@@YAXIJ@Z 00465d60 f   GameMain.obj
 0001:00064e70       ?ReadServerInfo@@YAXXZ     00465e70 f   GameMain.obj
 0001:00064f10       ?GameServerInfoSendStop@@YAXXZ 00465f10 f   GameMain.obj
 0001:00064f20       ?GameServerInfoSendStart@@YAXXZ 00465f20 f   GameMain.obj
 0001:00064f30       ?GameServerInfoSend@@YAXXZ 00465f30 f   GameMain.obj
 0001:00064fd0       ?CheckSumFileLoad@@YAXPAD@Z 00465fd0 f   GameMain.obj
 0001:00065010       ?LoadItemBag@@YAXXZ        00466010 f   GameMain.obj
 0001:00066930       ?SetMapName@@YAXXZ         00467930 f   GameMain.obj
 0001:00066bf0       ?GetEventFlag@@YAHXZ       00467bf0 f   GameMain.obj
 0001:00066c80       ?ReadEventInfo@@YAXW4MU_EVENT_TYPE@@@Z 00467c80 f   GameMain.obj
 0001:00069350       ?ReadGameEtcInfo@@YAXW4MU_ETC_TYPE@@@Z 0046a350 f   GameMain.obj
 0001:00069ec0       ?SetEventOff@@YAXXZ        0046aec0 f   GameMain.obj
 0001:00069fd0       ?gc_obj@?$Luna@VQuestExpLuaBind@@@@SAHPAUlua_State@@@Z 0046afd0 f i GameMain.obj
 0001:0006a000       ?thunk@?$Luna@VQuestExpLuaBind@@@@SAHPAUlua_State@@@Z 0046b000 f i GameMain.obj
 0001:0006a060       ?ReadCommonServerInfo@@YAXXZ 0046b060 f   GameMain.obj
 0001:0006e6a0       ?inject@?$Luna@VQuestExpLuaBind@@@@SAHPAUlua_State@@PAVQuestExpLuaBind@@@Z 0046f6a0 f i GameMain.obj
 0001:0006e750       ?constructor@?$Luna@VQuestExpLuaBind@@@@SAHPAUlua_State@@@Z 0046f750 f i GameMain.obj
 0001:0006e790       ?Register@?$Luna@VQuestExpLuaBind@@@@SAXPAUlua_State@@@Z 0046f790 f i GameMain.obj
 0001:0006e7f0       ?GameMainInit@@YAXPAUHWND__@@@Z 0046f7f0 f   GameMain.obj
 0001:0006fe60       ?AllServerStart@@YAHXZ     00470e60 f   GameServer.obj
 0001:0006ff30       ?GameServerStart@@YAHXZ    00470f30 f   GameServer.obj
 0001:00070120       ?InitInstance@@YAHPAUHINSTANCE__@@H@Z 00471120 f   GameServer.obj
 0001:00070190       ?About@@YGJPAUHWND__@@IIJ@Z 00471190 f   GameServer.obj
 0001:000701d0       ?CsLogDlgProc@@YGHPAUHWND__@@IIJ@Z 004711d0 f   GameServer.obj
 0001:00070270       ?WndProc@@YGJPAUHWND__@@IIJ@Z 00471270 f   GameServer.obj
 0001:00071190       ?MyRegisterClass@@YAGPAUHINSTANCE__@@@Z 00472190 f   GameServer.obj
 0001:00071220       _WinMain@16                00472220 f   GameServer.obj
 0001:000718a0       ?ReadCategoryList@GameShop@@QAEXPAD@Z 004728a0 f   GameShop.obj
 0001:00071a90       ?SendVersion@GameShop@@QAEXH@Z 00472a90 f   GameShop.obj
 0001:00071b30       ?InitUser@GameShop@@QAEXH@Z 00472b30 f   GameShop.obj
 0001:00071be0       ?GetPointType@GameShop@@QAEEH@Z 00472be0 f   GameShop.obj
 0001:00071c30       ?GetItemCountInStorage@GameShop@@QAEHHH@Z 00472c30 f   GameShop.obj
 0001:00071cc0       ?IsInventoryBuff@GameShop@@QAE_NF@Z 00472cc0 f   GameShop.obj
 0001:00071ce0       ?CanBeBuy@GameShop@@QAE_NHF@Z 00472ce0 f   GameShop.obj
 0001:00071e50       ?GDSaveStorageItem@GameShop@@QAEXHUGAMESHOP_USER_STORAGE@@@Z 00472e50 f   GameShop.obj
 0001:00071ef0       ?GDDeleteStorageItem@GameShop@@QAEXHUGAMESHOP_USER_STORAGE@@@Z 00472ef0 f   GameShop.obj
 0001:00071f90       ?GDReqStorage@GameShop@@QAEXH@Z 00472f90 f   GameShop.obj
 0001:00072030       ?DGGetStorage@GameShop@@QAEXPAUGAMESHOP_GD_STORAGE@@@Z 00473030 f   GameShop.obj
 0001:000720b0       ?GDSavePoint@GameShop@@QAEXH@Z 004730b0 f   GameShop.obj
 0001:00072160       ?GDReqPoint@GameShop@@QAEXH@Z 00473160 f   GameShop.obj
 0001:000721e0       ?DGGetPoint@GameShop@@QAEXPAUGAMESHOP_DG_GET_POINT@@@Z 004731e0 f   GameShop.obj
 0001:00072260       ?GDSaveUserInfo@GameShop@@QAEXH@Z 00473260 f   GameShop.obj
 0001:00072290       ?GDReqUserInfo@GameShop@@QAEXH@Z 00473290 f   GameShop.obj
 0001:000722c0       ?_Max@?$_Tree_val@V?$_Tmap_traits@HPAXU?$less@H@std@@V?$allocator@U?$pair@$$CBHPAX@std@@@2@$0A@@std@@@std@@SAPAU_Node@?$_Tree_nod@V?$_Tmap_traits@HPAXU?$less@H@std@@V?$allocator@U?$pair@$$CBHPAX@std@@@2@$0A@@std@@@2@PAU342@@Z 004732c0 f i EventManagement.obj
 0001:000722c0       ?_Max@?$_Tree_val@V?$_Tmap_traits@HPAU_GUILD_INFO_STRUCT@@U?$less@H@std@@V?$allocator@U?$pair@$$CBHPAU_GUILD_INFO_STRUCT@@@std@@@3@$0A@@std@@@std@@SAPAU_Node@?$_Tree_nod@V?$_Tmap_traits@HPAU_GUILD_INFO_STRUCT@@U?$less@H@std@@V?$allocator@U?$pair@$$CBHPAU_GUILD_INFO_STRUCT@@@std@@@3@$0A@@std@@@2@PAU342@@Z 004732c0 f i GuildClass.obj
 0001:000722c0       ?_Max@?$_Tree_val@V?$_Tmap_traits@HPAUGAMESHOP_ITEM_DATA@@U?$less@H@std@@V?$allocator@U?$pair@$$CBHPAUGAMESHOP_ITEM_DATA@@@std@@@3@$0A@@std@@@std@@SAPAU_Node@?$_Tree_nod@V?$_Tmap_traits@HPAUGAMESHOP_ITEM_DATA@@U?$less@H@std@@V?$allocator@U?$pair@$$CBHPAUGAMESHOP_ITEM_DATA@@@std@@@3@$0A@@std@@@2@PAU342@@Z 004732c0 f i GameShop.obj
 0001:000722c0       ?_Max@?$_Tree_val@V?$_Tmap_traits@HHU?$less@H@std@@V?$allocator@U?$pair@$$CBHH@std@@@2@$0A@@std@@@std@@SAPAU_Node@?$_Tree_nod@V?$_Tmap_traits@HHU?$less@H@std@@V?$allocator@U?$pair@$$CBHH@std@@@2@$0A@@std@@@2@PAU342@@Z 004732c0 f i CastleDeepEvent.obj
 0001:000722c0       ?_Max@?$_Tree_val@V?$_Tmap_traits@HPAU_MAPSVR_DATA@@U?$less@H@std@@V?$allocator@U?$pair@$$CBHPAU_MAPSVR_DATA@@@std@@@3@$0A@@std@@@std@@SAPAU_Node@?$_Tree_nod@V?$_Tmap_traits@HPAU_MAPSVR_DATA@@U?$less@H@std@@V?$allocator@U?$pair@$$CBHPAU_MAPSVR_DATA@@@std@@@3@$0A@@std@@@2@PAU342@@Z 004732c0 f i MapServerManager.obj
 0001:000722c0       ?_Max@?$_Tree_val@V?$_Tmap_traits@HPAUGAMESHOP_PACKAGE_DATA@@U?$less@H@std@@V?$allocator@U?$pair@$$CBHPAUGAMESHOP_PACKAGE_DATA@@@std@@@3@$0A@@std@@@std@@SAPAU_Node@?$_Tree_nod@V?$_Tmap_traits@HPAUGAMESHOP_PACKAGE_DATA@@U?$less@H@std@@V?$allocator@U?$pair@$$CBHPAUGAMESHOP_PACKAGE_DATA@@@std@@@3@$0A@@std@@@2@PAU342@@Z 004732c0 f i GameShop.obj
 0001:000722c0       ?_Max@?$_Tree_val@V?$_Tmap_traits@HPAVQuestExpReward@@U?$less@H@std@@V?$allocator@U?$pair@$$CBHPAVQuestExpReward@@@std@@@3@$0A@@std@@@std@@SAPAU_Node@?$_Tree_nod@V?$_Tmap_traits@HPAVQuestExpReward@@U?$less@H@std@@V?$allocator@U?$pair@$$CBHPAVQuestExpReward@@@std@@@3@$0A@@std@@@2@PAU342@@Z 004732c0 f i QuestExpInfo.obj
 0001:000722c0       ?_Max@?$_Tree_val@V?$_Tmap_traits@IHU?$less@I@std@@V?$allocator@U?$pair@$$CBIH@std@@@2@$0A@@std@@@std@@SAPAU_Node@?$_Tree_nod@V?$_Tmap_traits@IHU?$less@I@std@@V?$allocator@U?$pair@$$CBIH@std@@@2@$0A@@std@@@2@PAU342@@Z 004732c0 f i CastleSiege.obj
 0001:000722c0       ?_Max@?$_Tree_val@V?$_Tmap_traits@HPAVTUnionInfo@@U?$less@H@std@@V?$allocator@U?$pair@$$CBHPAVTUnionInfo@@@std@@@3@$0A@@std@@@std@@SAPAU_Node@?$_Tree_nod@V?$_Tmap_traits@HPAVTUnionInfo@@U?$less@H@std@@V?$allocator@U?$pair@$$CBHPAVTUnionInfo@@@std@@@3@$0A@@std@@@2@PAU342@@Z 004732c0 f i TUnion.obj
 0001:000722c0       ?_Max@?$_Tree_val@V?$_Tmap_traits@HPAVQuestExpAsk@@U?$less@H@std@@V?$allocator@U?$pair@$$CBHPAVQuestExpAsk@@@std@@@3@$0A@@std@@@std@@SAPAU_Node@?$_Tree_nod@V?$_Tmap_traits@HPAVQuestExpAsk@@U?$less@H@std@@V?$allocator@U?$pair@$$CBHPAVQuestExpAsk@@@std@@@3@$0A@@std@@@2@PAU342@@Z 004732c0 f i QuestExpInfo.obj
 0001:000722c0       ?_Max@?$_Tree_val@V?$_Tmap_traits@KPAVQuestExpRewardKind@@U?$less@K@std@@V?$allocator@U?$pair@$$CBKPAVQuestExpRewardKind@@@std@@@3@$0A@@std@@@std@@SAPAU_Node@?$_Tree_nod@V?$_Tmap_traits@KPAVQuestExpRewardKind@@U?$less@K@std@@V?$allocator@U?$pair@$$CBKPAVQuestExpRewardKind@@@std@@@3@$0A@@std@@@2@PAU342@@Z 004732c0 f i QuestExpInfo.obj
 0001:000722e0       ??F?$_Tree_unchecked_const_iterator@V?$_Tree_val@V?$_Tmap_traits@HHU?$less@H@std@@V?$allocator@U?$pair@$$CBHH@std@@@2@$0A@@std@@@std@@U_Iterator_base0@2@@std@@QAEAAV01@XZ 004732e0 f i CastleDeepEvent.obj
 0001:000722e0       ??F?$_Tree_unchecked_const_iterator@V?$_Tree_val@V?$_Tmap_traits@HPAVQuestExpReward@@U?$less@H@std@@V?$allocator@U?$pair@$$CBHPAVQuestExpReward@@@std@@@3@$0A@@std@@@std@@U_Iterator_base0@2@@std@@QAEAAV01@XZ 004732e0 f i QuestExpInfo.obj
 0001:000722e0       ??F?$_Tree_unchecked_const_iterator@V?$_Tree_val@V?$_Tmap_traits@HPAVTUnionInfo@@U?$less@H@std@@V?$allocator@U?$pair@$$CBHPAVTUnionInfo@@@std@@@3@$0A@@std@@@std@@U_Iterator_base0@2@@std@@QAEAAV01@XZ 004732e0 f i TUnion.obj
 0001:000722e0       ??F?$_Tree_unchecked_const_iterator@V?$_Tree_val@V?$_Tmap_traits@IHU?$less@I@std@@V?$allocator@U?$pair@$$CBIH@std@@@2@$0A@@std@@@std@@U_Iterator_base0@2@@std@@QAEAAV01@XZ 004732e0 f i CastleSiege.obj
 0001:000722e0       ??F?$_Tree_unchecked_const_iterator@V?$_Tree_val@V?$_Tmap_traits@HPAUGAMESHOP_PACKAGE_DATA@@U?$less@H@std@@V?$allocator@U?$pair@$$CBHPAUGAMESHOP_PACKAGE_DATA@@@std@@@3@$0A@@std@@@std@@U_Iterator_base0@2@@std@@QAEAAV01@XZ 004732e0 f i GameShop.obj
 0001:000722e0       ??F?$_Tree_unchecked_const_iterator@V?$_Tree_val@V?$_Tmap_traits@KPAVQuestExpRewardKind@@U?$less@K@std@@V?$allocator@U?$pair@$$CBKPAVQuestExpRewardKind@@@std@@@3@$0A@@std@@@std@@U_Iterator_base0@2@@std@@QAEAAV01@XZ 004732e0 f i QuestExpInfo.obj
 0001:000722e0       ??F?$_Tree_unchecked_const_iterator@V?$_Tree_val@V?$_Tmap_traits@HPAVQuestExpAsk@@U?$less@H@std@@V?$allocator@U?$pair@$$CBHPAVQuestExpAsk@@@std@@@3@$0A@@std@@@std@@U_Iterator_base0@2@@std@@QAEAAV01@XZ 004732e0 f i QuestExpInfo.obj
 0001:000722e0       ??F?$_Tree_unchecked_const_iterator@V?$_Tree_val@V?$_Tmap_traits@HPAXU?$less@H@std@@V?$allocator@U?$pair@$$CBHPAX@std@@@2@$0A@@std@@@std@@U_Iterator_base0@2@@std@@QAEAAV01@XZ 004732e0 f i EventManagement.obj
 0001:000722e0       ??F?$_Tree_unchecked_const_iterator@V?$_Tree_val@V?$_Tmap_traits@HPAUGAMESHOP_ITEM_DATA@@U?$less@H@std@@V?$allocator@U?$pair@$$CBHPAUGAMESHOP_ITEM_DATA@@@std@@@3@$0A@@std@@@std@@U_Iterator_base0@2@@std@@QAEAAV01@XZ 004732e0 f i GameShop.obj
 0001:000722e0       ??F?$_Tree_unchecked_const_iterator@V?$_Tree_val@V?$_Tmap_traits@HPAU_GUILD_INFO_STRUCT@@U?$less@H@std@@V?$allocator@U?$pair@$$CBHPAU_GUILD_INFO_STRUCT@@@std@@@3@$0A@@std@@@std@@U_Iterator_base0@2@@std@@QAEAAV01@XZ 004732e0 f i GuildClass.obj
 0001:000722e0       ??F?$_Tree_unchecked_const_iterator@V?$_Tree_val@V?$_Tmap_traits@HPAU_MAPSVR_DATA@@U?$less@H@std@@V?$allocator@U?$pair@$$CBHPAU_MAPSVR_DATA@@@std@@@3@$0A@@std@@@std@@U_Iterator_base0@2@@std@@QAEAAV01@XZ 004732e0 f i MapServerManager.obj
 0001:00072340       ??0GAMESHOP_PACKAGE_DATA@@QAE@XZ 00473340 f i GameShop.obj
 0001:000723b0       ?RequestPoint@GameShop@@QAEXH@Z 004733b0 f   GameShop.obj
 0001:00072450       ?RequestOpenShop@GameShop@@QAEXHPAUGAMESHOP_REQ_OPEN@@@Z 00473450 f   GameShop.obj
 0001:00072510       ?RequestStorage@GameShop@@QAEXHPAUGAMESHOP_REQ_STORAGE@@@Z 00473510 f   GameShop.obj
 0001:00072640       ?AddItemInStorage@GameShop@@QAE_NHPAUGAMESHOP_ITEM_DATA@@E@Z 00473640 f   GameShop.obj
 0001:000727d0       ?AddPackageInStorage@GameShop@@QAE_NHPAUGAMESHOP_ITEM_DATA@@E@Z 004737d0 f   GameShop.obj
 0001:000728b0       ?DeleteItemInStorage@GameShop@@QAE_NHHH@Z 004738b0 f   GameShop.obj
 0001:00072970       ?AddUser@GameShop@@QAEXH@Z 00473970 f   GameShop.obj
 0001:000729c0       ?GetPackage@GameShop@@QAEPAUGAMESHOP_PACKAGE_DATA@@H@Z 004739c0 f   GameShop.obj
 0001:00072a30       ?InsertItem@GameShop@@QAEXPAUGAMESHOP_ITEM_DATA@@H@Z 00473a30 f   GameShop.obj
 0001:00072ac0       ?InsertPackage@GameShop@@QAEXPAUGAMESHOP_PACKAGE_DATA@@H@Z 00473ac0 f   GameShop.obj
 0001:00072b20       ?RequestPackageBuy@GameShop@@QAE_NHPAUGAMESHOP_REQ_BUY@@@Z 00473b20 f   GameShop.obj
 0001:00072cd0       ?GetItem@GameShop@@QAEPAUGAMESHOP_ITEM_DATA@@FHHH@Z 00473cd0 f   GameShop.obj
 0001:00072da0       ?GetStorageItem@GameShop@@QAEPAUGAMESHOP_ITEM_DATA@@HHH@Z 00473da0 f   GameShop.obj
 0001:00072e20       ??1GameShop@@UAE@XZ        00473e20 f   GameShop.obj
 0001:00072ec0       ?ReadItemList@GameShop@@QAEXPAD@Z 00473ec0 f   GameShop.obj
 0001:00073180       ?RequestItemBuy@GameShop@@QAEXHPAUGAMESHOP_REQ_BUY@@@Z 00474180 f   GameShop.obj
 0001:000733d0       ?RequestStorageItemUse@GameShop@@QAEXHPAUGAMESHOP_REQ_STORAGEITEMUSE@@@Z 004743d0 f   GameShop.obj
 0001:00073820       ??0GameShop@@QAE@XZ        00474820 f   GameShop.obj
 0001:00073950       ??_GGameShop@@UAEPAXI@Z    00474950 f i GameShop.obj
 0001:00073950       ??_EGameShop@@UAEPAXI@Z    00474950 f i GameShop.obj
 0001:00073980       ?GetPackageIndex@GameShop@@QAEHH@Z 00474980 f   GameShop.obj
 0001:00073a20       ?InsertPackagePart@GameShop@@QAEXPAUGAMESHOP_ITEM_DATA@@@Z 00474a20 f   GameShop.obj
 0001:00073da0       ?ReadPackageList@GameShop@@QAEXPAD@Z 00474da0 f   GameShop.obj
 0001:000741e0       ?Load@GameShop@@QAEXXZ     004751e0 f   GameShop.obj
 0001:00074330       ??0CGate@@QAE@XZ           00475330 f   Gate.obj
 0001:00074340       ??1CGate@@UAE@XZ           00475340 f   Gate.obj
 0001:00074350       ?Init@CGate@@QAEXXZ        00475350 f   Gate.obj
 0001:00074380       ?Load@CGate@@QAEXPADH@Z    00475380 f   Gate.obj
 0001:00074570       ?IsGate@CGate@@QAEHH@Z     00475570 f   Gate.obj
 0001:000745e0       ?GetGate@CGate@@QAEHHAAF0AAE10@Z 004755e0 f   Gate.obj
 0001:00074710       ?IsInGate@CGate@@QAEHHH@Z  00475710 f   Gate.obj
 0001:00074810       ?CheckGateLevel@CGate@@QAEHHH@Z 00475810 f   Gate.obj
 0001:00074890       ??_ECGate@@UAEPAXI@Z       00475890 f i Gate.obj
 0001:00074890       ??_GCGate@@UAEPAXI@Z       00475890 f i Gate.obj
 0001:00074c00       ??0GensSystem@@QAE@XZ      00475c00 f   GensSystem.obj
 0001:00074c20       ??1GensSystem@@UAE@XZ      00475c20 f   GensSystem.obj
 0001:00074c30       ?ReqExDBGensInfo@GensSystem@@QAEHPAUOBJECTSTRUCT@@@Z 00475c30 f   GensSystem.obj
 0001:00074cf0       ?ReqRegGensMember@GensSystem@@QAEXPAUOBJECTSTRUCT@@E@Z 00475cf0 f   GensSystem.obj
 0001:00074e00       ?ReqSecedeGensMember@GensSystem@@QAEHPAUOBJECTSTRUCT@@@Z 00475e00 f   GensSystem.obj
 0001:00074ea0       ?IsMoveMapBattleZone@GensSystem@@QAEHH@Z 00475ea0 f   GensSystem.obj
 0001:00074ee0       ?IsMapBattleZone@GensSystem@@QAEHH@Z 00475ee0 f   GensSystem.obj
 0001:00074f30       ?SetGensInfluence@GensSystem@@QAEXPAUOBJECTSTRUCT@@H@Z 00475f30 f   GensSystem.obj
 0001:00074f90       ?GetGensInfluence@GensSystem@@QAEHPAUOBJECTSTRUCT@@@Z 00475f90 f   GensSystem.obj
 0001:00074fd0       ?GetGensInfluenceName@GensSystem@@QAEPADPAUOBJECTSTRUCT@@@Z 00475fd0 f   GensSystem.obj
 0001:00075020       ?IsRegGensInfluence@GensSystem@@QAE_NPAUOBJECTSTRUCT@@@Z 00476020 f   GensSystem.obj
 0001:00075060       ?SetUserBattleZoneEnable@GensSystem@@QAEHPAUOBJECTSTRUCT@@H@Z 00476060 f   GensSystem.obj
 0001:00075080       ?IsUserBattleZoneEnable@GensSystem@@QAEHPAUOBJECTSTRUCT@@@Z 00476080 f   GensSystem.obj
 0001:00075090       ?SetContributePoint@GensSystem@@QAEHPAUOBJECTSTRUCT@@H@Z 00476090 f   GensSystem.obj
 0001:000750b0       ?GetContributePoint@GensSystem@@QAEHPAUOBJECTSTRUCT@@@Z 004760b0 f   GensSystem.obj
 0001:000750c0       ?PkPenaltyAddNeedZenMapMove@GensSystem@@QAEHPAUOBJECTSTRUCT@@@Z 004760c0 f   GensSystem.obj
 0001:000750e0       ?PkPenaltyDropInvenItem@GensSystem@@QAEXPAUOBJECTSTRUCT@@@Z 004760e0 f   GensSystem.obj
 0001:00075120       ?PkPenaltyDropZen@GensSystem@@QAEXPAUOBJECTSTRUCT@@@Z 00476120 f   GensSystem.obj
 0001:00075160       ?InsertKillUserName@GensSystem@@QAEHPAUOBJECTSTRUCT@@PAD@Z 00476160 f   GensSystem.obj
 0001:00075200       ?MoveInBattleZonePartySplit@GensSystem@@QAEXPAUOBJECTSTRUCT@@@Z 00476200 f   GensSystem.obj
 0001:00075260       ?CalGensClass@GensSystem@@QAEXPAUOBJECTSTRUCT@@@Z 00476260 f   GensSystem.obj
 0001:000753b0       ?SetGensRanking@GensSystem@@QAEHPAUOBJECTSTRUCT@@H@Z 004763b0 f   GensSystem.obj
 0001:000753d0       ?SetGensClass@GensSystem@@QAEHPAUOBJECTSTRUCT@@H@Z 004763d0 f   GensSystem.obj
 0001:000753f0       ?GetGensClass@GensSystem@@QAEHPAUOBJECTSTRUCT@@@Z 004763f0 f   GensSystem.obj
 0001:00075400       ?GetNextContributePoint@GensSystem@@QAEHPAUOBJECTSTRUCT@@@Z 00476400 f   GensSystem.obj
 0001:00075490       ?SendGensReward@GensSystem@@QAEHPAUOBJECTSTRUCT@@E@Z 00476490 f   GensSystem.obj
 0001:00075510       ?GensRewardInventoryCheck@GensSystem@@QAE_NPAUOBJECTSTRUCT@@H@Z 00476510 f   GensSystem.obj
 0001:00075570       ?LoadData@GensSystem@@QAEHPAD@Z 00476570 f   GensSystem.obj
 0001:00075a30       ?GDRewardReq@GensSystem@@QAEXPAUOBJECTSTRUCT@@@Z 00476a30 f   GensSystem.obj
 0001:00075ae0       ?DGRewardAns@GensSystem@@QAEXPAUPMSG_GENS_REWARD_ANS@@@Z 00476ae0 f   GensSystem.obj
 0001:00075c40       ?CGReqGensMemberInfo@@YAXPAUPMSG_REQ_GENS_INFO@@H@Z 00476c40 f   GensSystem.obj
 0001:00075ca0       ??_GGensSystem@@UAEPAXI@Z  00476ca0 f i GensSystem.obj
 0001:00075ca0       ??_EGensSystem@@UAEPAXI@Z  00476ca0 f i GensSystem.obj
 0001:00075cd0       ?IsInfluenceNPC@GensSystem@@QAE_NPAUOBJECTSTRUCT@@@Z 00476cd0 f   GensSystem.obj
 0001:00075d30       ?SendGensInfo@GensSystem@@QAEHPAUOBJECTSTRUCT@@@Z 00476d30 f   GensSystem.obj
 0001:00075e00       ?GDReqSaveContributePoint@GensSystem@@QAEHPAUOBJECTSTRUCT@@@Z 00476e00 f   GensSystem.obj
 0001:00075ed0       ?BattleZoneChatMsgSend@GensSystem@@QAEXPAUOBJECTSTRUCT@@PAEH@Z 00476ed0 f   GensSystem.obj
 0001:00075f50       ?GensViewportListProtocol@GensSystem@@QAEXPAUOBJECTSTRUCT@@@Z 00476f50 f   GensSystem.obj
 0001:00076060       ?AddContributePoint@GensSystem@@QAEHPAUOBJECTSTRUCT@@H@Z 00477060 f   GensSystem.obj
 0001:00076080       ?SubContributePoint@GensSystem@@QAEHPAUOBJECTSTRUCT@@H@Z 00477080 f   GensSystem.obj
 0001:000760b0       ?AbusingPenalty@GensSystem@@QAEHPAUOBJECTSTRUCT@@H@Z 004770b0 f   GensSystem.obj
 0001:00076170       ?CGReqGensReward@@YAXPAUPMSG_GENS_REWARD_CODE@@H@Z 00477170 f   GensSystem.obj
 0001:000761c0       ?DGAnsGensInfo@@YAXPAUPMSG_ANS_GENS_INFO_EXDB@@@Z 004771c0 f   GensSystem.obj
 0001:000762f0       ?DGAnsRegGensMember@@YAXPAUPMSG_ANS_REG_GENS_MEMBER_EXDB@@@Z 004772f0 f   GensSystem.obj
 0001:00076510       ?DGAnsSecedeGensMember@@YAXPAUPMSG_ANS_SECEDE_GENS_MEMBER_EXDB@@@Z 00477510 f   GensSystem.obj
 0001:000766c0       ?ChkKillUserName@GensSystem@@QAEHPAUOBJECTSTRUCT@@PAD@Z 004776c0 f   GensSystem.obj
 0001:00076790       ?CGReqRegGensMember@@YAXPAUPMSG_REQ_REG_GENS_MEMBER@@H@Z 00477790 f   GensSystem.obj
 0001:000768c0       ?CGReqSecedeGensMember@@YAXPAUPMSG_REQ_SEGEDE_GENS_MEMBER@@H@Z 004778c0 f   GensSystem.obj
 0001:00076960       ?CalcContributePoint@GensSystem@@QAEXPAUOBJECTSTRUCT@@0@Z 00477960 f   GensSystem.obj
 0001:00076d30       ??1CStreamPacketEngine_Server@@UAE@XZ 00477d30 f i giocp.obj
 0001:00076d40       ?XorData@CStreamPacketEngine_Server@@IAEXHHH@Z 00477d40 f i giocp.obj
 0001:00076db0       ?ExtractPacket@CStreamPacketEngine_Server@@QAEHPAX@Z 00477db0 f i giocp.obj
 0001:00076ed0       ??_GCStreamPacketEngine_Server@@UAEPAXI@Z 00477ed0 f i giocp.obj
 0001:00076ed0       ??_ECStreamPacketEngine_Server@@UAEPAXI@Z 00477ed0 f i giocp.obj
 0001:00076f00       ?GiocpInit@@YAXXZ          00477f00 f   giocp.obj
 0001:00076f20       ?GiocpDelete@@YAXXZ        00477f20 f   giocp.obj
 0001:00076f30       ?DestroyGIocp@@YAXXZ       00477f30 f   giocp.obj
 0001:00076fa0       ?IsHackTool@@YAHEHHE@Z     00477fa0 f   giocp.obj
 0001:00077100       ?CreateListenSocket@@YAHXZ 00478100 f   giocp.obj
 0001:00077220       ?UpdateCompletionPort@@YAHIHH@Z 00478220 f   giocp.obj
 0001:00077280       ?CloseClient@@YAXPAU_PER_SOCKET_CONTEXT@@H@Z 00478280 f   giocp.obj
 0001:00077300       ?CloseClient@@YAXH@Z       00478300 f   giocp.obj
 0001:000773c0       ?CloseClientEx@@YAXH@Z     004783c0 f   giocp.obj
 0001:00077460       ?ResponErrorCloseClient@@YAXH@Z 00478460 f   giocp.obj
 0001:00077520       ?RecvDataParse@@YAHPAU_PER_IO_CONTEXT@@H@Z 00478520 f   giocp.obj
 0001:00077b10       ?DataSend@@YAHHPAEK@Z      00478b10 f   giocp.obj
 0001:00077f10       ?IoSendSecond@@YAHPAU_PER_SOCKET_CONTEXT@@@Z 00478f10 f   giocp.obj
 0001:00078050       ?IoMoreSend@@YAHPAU_PER_SOCKET_CONTEXT@@@Z 00479050 f   giocp.obj
 0001:00078150       ?ServerWorkerThread@@YGKPAX@Z 00479150 f   giocp.obj
 0001:000783a0       ?IocpServerWorker@@YGKPAX@Z 004793a0 f   giocp.obj
 0001:00078800       ?CreateGIocp@@YAHH@Z       00479800 f   giocp.obj
 0001:00078b40       ??1CGMMng@@UAE@XZ          00479b40 f   GMMng.obj
 0001:00078b50       ?LoadCommands@CGMMng@@QAEXPAD@Z 00479b50 f   GMMng.obj
 0001:00078cd0       ?GetSubName@CGMMng@@QAEPADH@Z 00479cd0 f   GMMng.obj
 0001:00078d10       ?ManagerInit@CGMMng@@QAEXXZ 00479d10 f   GMMng.obj
 0001:00078d30       ?ManagerAdd@CGMMng@@QAEHPADH@Z 00479d30 f   GMMng.obj
 0001:00078d90       ?ManagerDel@CGMMng@@QAEXPAD@Z 00479d90 f   GMMng.obj
 0001:00078e10       ?DataSend@CGMMng@@QAEXPAEH@Z 00479e10 f   GMMng.obj
 0001:00078e50       ?BattleInfoSend@CGMMng@@QAEXPADE0E@Z 00479e50 f   GMMng.obj
 0001:00078ea0       ?GetCmd@CGMMng@@QAEHPAD@Z  00479ea0 f   GMMng.obj
 0001:00078f00       ?GetData@CGMMng@@QAEEPADAAH1@Z 00479f00 f   GMMng.obj
 0001:00078f70       ?GetTokenString@CGMMng@@QAEPADXZ 00479f70 f   GMMng.obj
 0001:00078f90       ?GetTokenNumber@CGMMng@@QAEHXZ 00479f90 f   GMMng.obj
 0001:00078fd0       ?CommandActive@CGMMng@@QAEHH@Z 00479fd0 f   GMMng.obj
 0001:00078ff0       ?MessageSendEx@@YAXHPAD0ZZ 00479ff0 f   GMMng.obj
 0001:00079090       ?GetInfinityArrowMPConsumption@CGMMng@@QAEXPAUOBJECTSTRUCT@@@Z 0047a090 f   GMMng.obj
 0001:000790c0       ?ControlInfinityArrowMPConsumption0@CGMMng@@QAEXPAUOBJECTSTRUCT@@H@Z 0047a0c0 f   GMMng.obj
 0001:000790f0       ?ControlInfinityArrowMPConsumption1@CGMMng@@QAEXPAUOBJECTSTRUCT@@H@Z 0047a0f0 f   GMMng.obj
 0001:00079120       ?ControlInfinityArrowMPConsumption2@CGMMng@@QAEXPAUOBJECTSTRUCT@@H@Z 0047a120 f   GMMng.obj
 0001:00079150       ?ControlInfinityArrowMPConsumption3@CGMMng@@QAEXPAUOBJECTSTRUCT@@H@Z 0047a150 f   GMMng.obj
 0001:00079180       ?SetInfinityArrowTime@CGMMng@@QAEXPAUOBJECTSTRUCT@@H@Z 0047a180 f   GMMng.obj
 0001:000791d0       ?CmdAbility@CGMMng@@QAEXPAUOBJECTSTRUCT@@PAD@Z 0047a1d0 f   GMMng.obj
 0001:00079460       ?CmdParty@CGMMng@@QAEXPAUOBJECTSTRUCT@@PAD@Z 0047a460 f   GMMng.obj
 0001:00079640       ?CmdClearMonster@CGMMng@@QAEXPAUOBJECTSTRUCT@@H@Z 0047a640 f   GMMng.obj
 0001:000797b0       ?CmdClearItem@CGMMng@@QAEXPAUOBJECTSTRUCT@@H@Z 0047a7b0 f   GMMng.obj
 0001:00079860       ?CmdClearInven@CGMMng@@QAEXPAUOBJECTSTRUCT@@0@Z 0047a860 f   GMMng.obj
 0001:00079940       ?CmdSummonChar@CGMMng@@QAEXPAUOBJECTSTRUCT@@PAD@Z 0047a940 f   GMMng.obj
 0001:00079ac0       ?GetType@CGMMng@@QAEHG@Z   0047aac0 f   GMMng.obj
 0001:00079b00       ??0CGMMng@@QAE@XZ          0047ab00 f   GMMng.obj
 0001:00079b30       ??_ECGMMng@@UAEPAXI@Z      0047ab30 f i GMMng.obj
 0001:00079b30       ??_GCGMMng@@UAEPAXI@Z      0047ab30 f i GMMng.obj
 0001:00079b60       ?Init@CGMMng@@QAEXXZ       0047ab60 f   GMMng.obj
 0001:00079ba0       ?CmdSkin@CGMMng@@QAEXPAUOBJECTSTRUCT@@PAD@Z 0047aba0 f   GMMng.obj
 0001:00079c40       ?CmdSummonMonster@CGMMng@@QAEXPAUOBJECTSTRUCT@@PADH@Z 0047ac40 f   GMMng.obj
 0001:00079fa0       ?ManagementProc@CGMMng@@QAEHPAUOBJECTSTRUCT@@PADH@Z 0047afa0 f   GMMng.obj
 0001:0007d6e0       ?gObjMonsterViewportIsCharacter@@YAHPAUOBJECTSTRUCT@@@Z 0047e6e0 f   gObjMonster.obj
 0001:0007d720       ?gObjMonsterHitDamageInit@@YAXPAUOBJECTSTRUCT@@@Z 0047e720 f   gObjMonster.obj
 0001:0007d750       ?gObjMonsterHitDamageUserDel@@YAHPAUOBJECTSTRUCT@@@Z 0047e750 f   gObjMonster.obj
 0001:0007d820       ?gObjMonsterSetHitDamage@@YAXPAUOBJECTSTRUCT@@HH@Z 0047e820 f   gObjMonster.obj
 0001:0007d920       ?gObjMonsterTopHitDamageUser@@YAHPAUOBJECTSTRUCT@@@Z 0047e920 f   gObjMonster.obj
 0001:0007d9b0       ?gObjMonsterLastHitDamageUser@@YAHPAUOBJECTSTRUCT@@AAH@Z 0047e9b0 f   gObjMonster.obj
 0001:0007da70       ?gObjGetTargetPos@@YAHPAUOBJECTSTRUCT@@HHAAH1@Z 0047ea70 f   gObjMonster.obj
 0001:0007dbd0       ?gObjCallMonsterSetEnemy@@YAHPAUOBJECTSTRUCT@@H@Z 0047ebd0 f   gObjMonster.obj
 0001:0007dc40       ?gObjUseMonsterSpecialAbillity@@YAXPAUOBJECTSTRUCT@@@Z 0047ec40 f   gObjMonster.obj
 0001:0007dcf0       ?gObjMonsterBeattackRecv@@YAXPAEH@Z 0047ecf0 f   gObjMonster.obj
 0001:0007ddf0       ?PathFindMoveMsgSend@@YAHPAUOBJECTSTRUCT@@@Z 0047edf0 f   gObjMonster.obj
 0001:0007e120       ?gObjTrapAttackEnemySearchX@@YAXPAUOBJECTSTRUCT@@H@Z 0047f120 f   gObjMonster.obj
 0001:0007e1f0       ?gObjTrapAttackEnemySearchY@@YAXPAUOBJECTSTRUCT@@H@Z 0047f1f0 f   gObjMonster.obj
 0001:0007e2c0       ?gObjTrapAttackEnemySearch@@YAXPAUOBJECTSTRUCT@@@Z 0047f2c0 f   gObjMonster.obj
 0001:0007e350       ?gObjTrapAttackEnemySearchRange@@YAXPAUOBJECTSTRUCT@@H@Z 0047f350 f   gObjMonster.obj
 0001:0007e430       ?gObjMonsterTrapAct@@YAXPAUOBJECTSTRUCT@@@Z 0047f430 f   gObjMonster.obj
 0001:0007e4d0       ?NewOptionRand@@YAEH@Z     0047f4d0 f   gObjMonster.obj
 0001:0007e540       ?IsCanNotItemDtopInDevilSquare@@YAHH@Z 0047f540 f   gObjMonster.obj
 0001:0007e5d0       ?gObjRefillMonsterHP@@YAXPAUOBJECTSTRUCT@@H@Z 0047f5d0 f   gObjMonster.obj
 0001:0007e770       ?gEventMonsterItemDrop@@YAHPAUOBJECTSTRUCT@@0@Z 0047f770 f   gObjMonster.obj
 0001:00080250       ?Run@CQeustNpcTeleport@@QAEXH@Z 00481250 f   gObjMonster.obj
 0001:00080460       ?gObjMonsterSelectSkillForMedusa@@YAHPAUOBJECTSTRUCT@@@Z 00481460 f   gObjMonster.obj
 0001:00080550       ?gObjMonsterRegen@@YAHPAUOBJECTSTRUCT@@@Z 00481550 f   gObjMonster.obj
 0001:00080c20       ?gObjMonsterMoveCheck@@YAHPAUOBJECTSTRUCT@@HH@Z 00481c20 f   gObjMonster.obj
 0001:00080d30       ?gObjMonsterGetTargetPos@@YAHPAUOBJECTSTRUCT@@@Z 00481d30 f   gObjMonster.obj
 0001:00081010       ?gObjMonsterSearchEnemy@@YAHPAUOBJECTSTRUCT@@E@Z 00482010 f   gObjMonster.obj
 0001:00081140       ?gObjGuardSearchEnemy@@YAHPAUOBJECTSTRUCT@@@Z 00482140 f   gObjMonster.obj
 0001:000812a0       ?gObjMonsterMagicAttack@@YAXPAUOBJECTSTRUCT@@H@Z 004822a0 f   gObjMonster.obj
 0001:000814d0       ?gObjMonsterAttack@@YAXPAUOBJECTSTRUCT@@0@Z 004824d0 f   gObjMonster.obj
 0001:00081b80       ?gObjMonsterMoveAction@@YAXPAUOBJECTSTRUCT@@@Z 00482b80 f   gObjMonster.obj
 0001:00081d90       ?gObjMonsterBaseAct@@YAXPAUOBJECTSTRUCT@@@Z 00482d90 f   gObjMonster.obj
 0001:00082410       ?gObjMonsterDieGiveItem@@YAXPAUOBJECTSTRUCT@@0@Z 00483410 f   gObjMonster.obj
 0001:00083ae0       ?gObjMonsterStateProc@@YAXPAUOBJECTSTRUCT@@HHH@Z 00484ae0 f   gObjMonster.obj
 0001:00084590       ?gObjMonsterProcess@@YAXPAUOBJECTSTRUCT@@@Z 00485590 f   gObjMonster.obj
 0001:00084ad0       ??0CGuardian@@QAE@XZ       00485ad0 f   Guardian.obj
 0001:00084ae0       ??1CGuardian@@UAE@XZ       00485ae0 f   Guardian.obj
 0001:00084af0       ?CreateGuardian@CGuardian@@QAEHH@Z 00485af0 f   Guardian.obj
 0001:00084b20       ?GuardianAct@CGuardian@@QAEXH@Z 00485b20 f   Guardian.obj
 0001:00084d30       ??_GCGuardian@@UAEPAXI@Z   00485d30 f i Guardian.obj
 0001:00084d30       ??_ECGuardian@@UAEPAXI@Z   00485d30 f i Guardian.obj
 0001:00084d60       ??0CGuardianStatue@@QAE@XZ 00485d60 f   GuardianStatue.obj
 0001:00084d70       ??1CGuardianStatue@@UAE@XZ 00485d70 f   GuardianStatue.obj
 0001:00084d80       ?GuardianStatueAct@CGuardianStatue@@QAEXH@Z 00485d80 f   GuardianStatue.obj
 0001:00085040       ??_ECGuardianStatue@@UAEPAXI@Z 00486040 f i GuardianStatue.obj
 0001:00085040       ??_GCGuardianStatue@@UAEPAXI@Z 00486040 f i GuardianStatue.obj
 0001:00085070       ?BuildMemberTotal@CGuildClass@@QAEHPAU_GUILD_INFO_STRUCT@@@Z 00486070 f   GuildClass.obj
 0001:00085110       ??E?$_Tree_unchecked_const_iterator@V?$_Tree_val@V?$_Tmap_traits@V?$basic_string@DU?$char_traits@D@std@@V?$allocator@D@2@@std@@PAU_GUILD_INFO_STRUCT@@U?$less@V?$basic_string@DU?$char_traits@D@std@@V?$allocator@D@2@@std@@@2@V?$allocator@U?$pair@$$CBV?$basic_string@DU?$char_traits@D@std@@V?$allocator@D@2@@std@@PAU_GUILD_INFO_STRUCT@@@std@@@2@$0A@@std@@@std@@U_Iterator_base0@2@@std@@QAEAAV01@XZ 00486110 f i GuildClass.obj
 0001:00085110       ??E?$_Tree_unchecked_const_iterator@V?$_Tree_val@V?$_Tmap_traits@V?$basic_string@DU?$char_traits@D@std@@V?$allocator@D@2@@std@@HU?$less@V?$basic_string@DU?$char_traits@D@std@@V?$allocator@D@2@@std@@@2@V?$allocator@U?$pair@$$CBV?$basic_string@DU?$char_traits@D@std@@V?$allocator@D@2@@std@@H@std@@@2@$0A@@std@@@std@@U_Iterator_base0@2@@std@@QAEAAV01@XZ 00486110 f i ConMember.obj
 0001:00085160       ??F?$_Tree_unchecked_const_iterator@V?$_Tree_val@V?$_Tmap_traits@V?$basic_string@DU?$char_traits@D@std@@V?$allocator@D@2@@std@@HU?$less@V?$basic_string@DU?$char_traits@D@std@@V?$allocator@D@2@@std@@@2@V?$allocator@U?$pair@$$CBV?$basic_string@DU?$char_traits@D@std@@V?$allocator@D@2@@std@@H@std@@@2@$0A@@std@@@std@@U_Iterator_base0@2@@std@@QAEAAV01@XZ 00486160 f i ConMember.obj
 0001:00085160       ??F?$_Tree_unchecked_const_iterator@V?$_Tree_val@V?$_Tmap_traits@V?$basic_string@DU?$char_traits@D@std@@V?$allocator@D@2@@std@@PAU_GUILD_INFO_STRUCT@@U?$less@V?$basic_string@DU?$char_traits@D@std@@V?$allocator@D@2@@std@@@2@V?$allocator@U?$pair@$$CBV?$basic_string@DU?$char_traits@D@std@@V?$allocator@D@2@@std@@PAU_GUILD_INFO_STRUCT@@@std@@@2@$0A@@std@@@std@@U_Iterator_base0@2@@std@@QAEAAV01@XZ 00486160 f i GuildClass.obj
 0001:000851c0       ?AddMember@CGuildClass@@QAEPAU_GUILD_INFO_STRUCT@@PAU2@PADHHH@Z 004861c0 f   GuildClass.obj
 0001:00085320       ?_Rrotate@?$_Tree@V?$_Tmap_traits@V?$basic_string@DU?$char_traits@D@std@@V?$allocator@D@2@@std@@PAU_GUILD_INFO_STRUCT@@U?$less@V?$basic_string@DU?$char_traits@D@std@@V?$allocator@D@2@@std@@@2@V?$allocator@U?$pair@$$CBV?$basic_string@DU?$char_traits@D@std@@V?$allocator@D@2@@std@@PAU_GUILD_INFO_STRUCT@@@std@@@2@$0A@@std@@@std@@IAEXPAU_Node@?$_Tree_nod@V?$_Tmap_traits@V?$basic_string@DU?$char_traits@D@std@@V?$allocator@D@2@@std@@PAU_GUILD_INFO_STRUCT@@U?$less@V?$basic_string@DU?$char_traits@D@std@@V?$allocator@D@2@@std@@@2@V?$allocator@U?$pair@$$CBV?$basic_string@DU?$char_traits@D@std@@V?$allocator@D@2@@std@@PAU_GUILD_INFO_STRUCT@@@std@@@2@$0A@@std@@@2@@Z 00486320 f i GuildClass.obj
 0001:00085320       ?_Rrotate@?$_Tree@V?$_Tmap_traits@V?$basic_string@DU?$char_traits@D@std@@V?$allocator@D@2@@std@@HU?$less@V?$basic_string@DU?$char_traits@D@std@@V?$allocator@D@2@@std@@@2@V?$allocator@U?$pair@$$CBV?$basic_string@DU?$char_traits@D@std@@V?$allocator@D@2@@std@@H@std@@@2@$0A@@std@@@std@@IAEXPAU_Node@?$_Tree_nod@V?$_Tmap_traits@V?$basic_string@DU?$char_traits@D@std@@V?$allocator@D@2@@std@@HU?$less@V?$basic_string@DU?$char_traits@D@std@@V?$allocator@D@2@@std@@@2@V?$allocator@U?$pair@$$CBV?$basic_string@DU?$char_traits@D@std@@V?$allocator@D@2@@std@@H@std@@@2@$0A@@std@@@2@@Z 00486320 f i ConMember.obj
 0001:00085380       ?ConnectUser@CGuildClass@@QAEHPAU_GUILD_INFO_STRUCT@@PAD1HH@Z 00486380 f   GuildClass.obj
 0001:00085480       ?_Lrotate@?$_Tree@V?$_Tmap_traits@V?$basic_string@DU?$char_traits@D@std@@V?$allocator@D@2@@std@@PAU_GUILD_INFO_STRUCT@@U?$less@V?$basic_string@DU?$char_traits@D@std@@V?$allocator@D@2@@std@@@2@V?$allocator@U?$pair@$$CBV?$basic_string@DU?$char_traits@D@std@@V?$allocator@D@2@@std@@PAU_GUILD_INFO_STRUCT@@@std@@@2@$0A@@std@@@std@@IAEXPAU_Node@?$_Tree_nod@V?$_Tmap_traits@V?$basic_string@DU?$char_traits@D@std@@V?$allocator@D@2@@std@@PAU_GUILD_INFO_STRUCT@@U?$less@V?$basic_string@DU?$char_traits@D@std@@V?$allocator@D@2@@std@@@2@V?$allocator@U?$pair@$$CBV?$basic_string@DU?$char_traits@D@std@@V?$allocator@D@2@@std@@PAU_GUILD_INFO_STRUCT@@@std@@@2@$0A@@std@@@2@@Z 00486480 f i GuildClass.obj
 0001:00085480       ?_Lrotate@?$_Tree@V?$_Tmap_traits@V?$basic_string@DU?$char_traits@D@std@@V?$allocator@D@2@@std@@HU?$less@V?$basic_string@DU?$char_traits@D@std@@V?$allocator@D@2@@std@@@2@V?$allocator@U?$pair@$$CBV?$basic_string@DU?$char_traits@D@std@@V?$allocator@D@2@@std@@H@std@@@2@$0A@@std@@@std@@IAEXPAU_Node@?$_Tree_nod@V?$_Tmap_traits@V?$basic_string@DU?$char_traits@D@std@@V?$allocator@D@2@@std@@HU?$less@V?$basic_string@DU?$char_traits@D@std@@V?$allocator@D@2@@std@@@2@V?$allocator@U?$pair@$$CBV?$basic_string@DU?$char_traits@D@std@@V?$allocator@D@2@@std@@H@std@@@2@$0A@@std@@@2@@Z 00486480 f i ConMember.obj
 0001:000854e0       ?_Lbound@?$_Tree@V?$_Tmap_traits@V?$basic_string@DU?$char_traits@D@std@@V?$allocator@D@2@@std@@HU?$less@V?$basic_string@DU?$char_traits@D@std@@V?$allocator@D@2@@std@@@2@V?$allocator@U?$pair@$$CBV?$basic_string@DU?$char_traits@D@std@@V?$allocator@D@2@@std@@H@std@@@2@$0A@@std@@@std@@IAEPAU_Node@?$_Tree_nod@V?$_Tmap_traits@V?$basic_string@DU?$char_traits@D@std@@V?$allocator@D@2@@std@@HU?$less@V?$basic_string@DU?$char_traits@D@std@@V?$allocator@D@2@@std@@@2@V?$allocator@U?$pair@$$CBV?$basic_string@DU?$char_traits@D@std@@V?$allocator@D@2@@std@@H@std@@@2@$0A@@std@@@2@ABV?$basic_string@DU?$char_traits@D@std@@V?$allocator@D@2@@2@@Z 004864e0 f i ConMember.obj
 0001:000854e0       ?_Lbound@?$_Tree@V?$_Tmap_traits@V?$basic_string@DU?$char_traits@D@std@@V?$allocator@D@2@@std@@PAU_GUILD_INFO_STRUCT@@U?$less@V?$basic_string@DU?$char_traits@D@std@@V?$allocator@D@2@@std@@@2@V?$allocator@U?$pair@$$CBV?$basic_string@DU?$char_traits@D@std@@V?$allocator@D@2@@std@@PAU_GUILD_INFO_STRUCT@@@std@@@2@$0A@@std@@@std@@IAEPAU_Node@?$_Tree_nod@V?$_Tmap_traits@V?$basic_string@DU?$char_traits@D@std@@V?$allocator@D@2@@std@@PAU_GUILD_INFO_STRUCT@@U?$less@V?$basic_string@DU?$char_traits@D@std@@V?$allocator@D@2@@std@@@2@V?$allocator@U?$pair@$$CBV?$basic_string@DU?$char_traits@D@std@@V?$allocator@D@2@@std@@PAU_GUILD_INFO_STRUCT@@@std@@@2@$0A@@std@@@2@ABV?$basic_string@DU?$char_traits@D@std@@V?$allocator@D@2@@2@@Z 004864e0 f i GuildClass.obj
 0001:00085570       ??1?$pair@$$CBV?$basic_string@DU?$char_traits@D@std@@V?$allocator@D@2@@std@@PAU_GUILD_INFO_STRUCT@@@std@@QAE@XZ 00486570 f i GuildClass.obj
 0001:00085570       ??1?$pair@V?$basic_string@DU?$char_traits@D@std@@V?$allocator@D@2@@std@@H@std@@QAE@XZ 00486570 f i ConMember.obj
 0001:00085570       ??1?$basic_string@DU?$char_traits@D@std@@V?$allocator@D@2@@std@@QAE@XZ 00486570 f i CallStackTrace.obj
 0001:000855a0       ?SearchGuild_Number@CGuildClass@@QAEPAU_GUILD_INFO_STRUCT@@H@Z 004865a0 f   GuildClass.obj
 0001:000855e0       ?SearchGuild@CGuildClass@@QAEPAU_GUILD_INFO_STRUCT@@PAD@Z 004865e0 f   GuildClass.obj
 0001:00085700       ?AddMember@CGuildClass@@QAEPAU_GUILD_INFO_STRUCT@@PAD0HHHH@Z 00486700 f   GuildClass.obj
 0001:00085890       ?SetGuildMemberStatus@CGuildClass@@QAEHPAD0H@Z 00486890 f   GuildClass.obj
 0001:000859d0       ?SetGuildType@CGuildClass@@QAEHPADH@Z 004869d0 f   GuildClass.obj
 0001:00085aa0       ?DelMember@CGuildClass@@QAEHPAD0@Z 00486aa0 f   GuildClass.obj
 0001:00085b40       ?CloseMember@CGuildClass@@QAEHPAD0@Z 00486b40 f   GuildClass.obj
 0001:00085be0       ?SetServer@CGuildClass@@QAEHPAD0H@Z 00486be0 f   GuildClass.obj
 0001:00085c70       ?_Insert@?$_Tree@V?$_Tmap_traits@V?$basic_string@DU?$char_traits@D@std@@V?$allocator@D@2@@std@@PAU_GUILD_INFO_STRUCT@@U?$less@V?$basic_string@DU?$char_traits@D@std@@V?$allocator@D@2@@std@@@2@V?$allocator@U?$pair@$$CBV?$basic_string@DU?$char_traits@D@std@@V?$allocator@D@2@@std@@PAU_GUILD_INFO_STRUCT@@@std@@@2@$0A@@std@@@std@@IAE?AV?$_Tree_iterator@V?$_Tree_val@V?$_Tmap_traits@V?$basic_string@DU?$char_traits@D@std@@V?$allocator@D@2@@std@@PAU_GUILD_INFO_STRUCT@@U?$less@V?$basic_string@DU?$char_traits@D@std@@V?$allocator@D@2@@std@@@2@V?$allocator@U?$pair@$$CBV?$basic_string@DU?$char_traits@D@std@@V?$allocator@D@2@@std@@PAU_GUILD_INFO_STRUCT@@@std@@@2@$0A@@std@@@std@@@2@_NPAU_Node@?$_Tree_nod@V?$_Tmap_traits@V?$basic_string@DU?$char_traits@D@std@@V?$allocator@D@2@@std@@PAU_GUILD_INFO_STRUCT@@U?$less@V?$basic_string@DU?$char_traits@D@std@@V?$allocator@D@2@@std@@@2@V?$allocator@U?$pair@$$CBV?$basic_string@DU?$char_traits@D@std@@V?$allocator@D@2@@std@@PAU_GUILD_INFO_STRUCT@@@std@@@2@$0A@@std@@@2@1@Z 00486c70 f i GuildClass.obj
 0001:00085c70       ?_Insert@?$_Tree@V?$_Tmap_traits@V?$basic_string@DU?$char_traits@D@std@@V?$allocator@D@2@@std@@HU?$less@V?$basic_string@DU?$char_traits@D@std@@V?$allocator@D@2@@std@@@2@V?$allocator@U?$pair@$$CBV?$basic_string@DU?$char_traits@D@std@@V?$allocator@D@2@@std@@H@std@@@2@$0A@@std@@@std@@IAE?AV?$_Tree_iterator@V?$_Tree_val@V?$_Tmap_traits@V?$basic_string@DU?$char_traits@D@std@@V?$allocator@D@2@@std@@HU?$less@V?$basic_string@DU?$char_traits@D@std@@V?$allocator@D@2@@std@@@2@V?$allocator@U?$pair@$$CBV?$basic_string@DU?$char_traits@D@std@@V?$allocator@D@2@@std@@H@std@@@2@$0A@@std@@@std@@@2@_NPAU_Node@?$_Tree_nod@V?$_Tmap_traits@V?$basic_string@DU?$char_traits@D@std@@V?$allocator@D@2@@std@@HU?$less@V?$basic_string@DU?$char_traits@D@std@@V?$allocator@D@2@@std@@@2@V?$allocator@U?$pair@$$CBV?$basic_string@DU?$char_traits@D@std@@V?$allocator@D@2@@std@@H@std@@@2@$0A@@std@@@2@1@Z 00486c70 f i ConMember.obj
 0001:00085ea0       ??$_Cons_val@V?$allocator@U?$pair@$$CBV?$basic_string@DU?$char_traits@D@std@@V?$allocator@D@2@@std@@PAU_GUILD_INFO_STRUCT@@@std@@@std@@U?$pair@$$CBV?$basic_string@DU?$char_traits@D@std@@V?$allocator@D@2@@std@@PAU_GUILD_INFO_STRUCT@@@2@U32@@std@@YAXAAV?$allocator@U?$pair@$$CBV?$basic_string@DU?$char_traits@D@std@@V?$allocator@D@2@@std@@PAU_GUILD_INFO_STRUCT@@@std@@@0@PAU?$pair@$$CBV?$basic_string@DU?$char_traits@D@std@@V?$allocator@D@2@@std@@PAU_GUILD_INFO_STRUCT@@@0@$$QAU20@@Z 00486ea0 f i GuildClass.obj
 0001:00085f10       ??$_Buynode@U?$pair@$$CBV?$basic_string@DU?$char_traits@D@std@@V?$allocator@D@2@@std@@PAU_GUILD_INFO_STRUCT@@@std@@@?$_Tree_val@V?$_Tmap_traits@V?$basic_string@DU?$char_traits@D@std@@V?$allocator@D@2@@std@@PAU_GUILD_INFO_STRUCT@@U?$less@V?$basic_string@DU?$char_traits@D@std@@V?$allocator@D@2@@std@@@2@V?$allocator@U?$pair@$$CBV?$basic_string@DU?$char_traits@D@std@@V?$allocator@D@2@@std@@PAU_GUILD_INFO_STRUCT@@@std@@@2@$0A@@std@@@std@@QAEPAU_Node@?$_Tree_nod@V?$_Tmap_traits@V?$basic_string@DU?$char_traits@D@std@@V?$allocator@D@2@@std@@PAU_GUILD_INFO_STRUCT@@U?$less@V?$basic_string@DU?$char_traits@D@std@@V?$allocator@D@2@@std@@@2@V?$allocator@U?$pair@$$CBV?$basic_string@DU?$char_traits@D@std@@V?$allocator@D@2@@std@@PAU_GUILD_INFO_STRUCT@@@std@@@2@$0A@@std@@@1@$$QAU?$pair@$$CBV?$basic_string@DU?$char_traits@D@std@@V?$allocator@D@2@@std@@PAU_GUILD_INFO_STRUCT@@@1@@Z 00486f10 f i GuildClass.obj
 0001:00085fd0       ?DeleteGuild@CGuildClass@@QAEHPAD0@Z 00486fd0 f   GuildClass.obj
 0001:00086190       ?_Insert@?$_Tree@V?$_Tmap_traits@V?$basic_string@DU?$char_traits@D@std@@V?$allocator@D@2@@std@@PAU_GUILD_INFO_STRUCT@@U?$less@V?$basic_string@DU?$char_traits@D@std@@V?$allocator@D@2@@std@@@2@V?$allocator@U?$pair@$$CBV?$basic_string@DU?$char_traits@D@std@@V?$allocator@D@2@@std@@PAU_GUILD_INFO_STRUCT@@@std@@@2@$0A@@std@@@std@@QAE?AV?$_Tree_iterator@V?$_Tree_val@V?$_Tmap_traits@V?$basic_string@DU?$char_traits@D@std@@V?$allocator@D@2@@std@@PAU_GUILD_INFO_STRUCT@@U?$less@V?$basic_string@DU?$char_traits@D@std@@V?$allocator@D@2@@std@@@2@V?$allocator@U?$pair@$$CBV?$basic_string@DU?$char_traits@D@std@@V?$allocator@D@2@@std@@PAU_GUILD_INFO_STRUCT@@@std@@@2@$0A@@std@@@std@@@2@V?$_Tree_const_iterator@V?$_Tree_val@V?$_Tmap_traits@V?$basic_string@DU?$char_traits@D@std@@V?$allocator@D@2@@std@@PAU_GUILD_INFO_STRUCT@@U?$less@V?$basic_string@DU?$char_traits@D@std@@V?$allocator@D@2@@std@@@2@V?$allocator@U?$pair@$$CBV?$basic_string@DU?$char_traits@D@std@@V?$allocator@D@2@@std@@PAU_GUILD_INFO_STRUCT@@@std@@@2@$0A@@std@@@std@@@2@PAU_Node@?$_Tree_nod@V?$_Tmap_traits@V?$basic_string@DU?$char_traits@D@std@@V?$allocator@D@2@@std@@PAU_GUILD_INFO_STRUCT@@U?$less@V?$basic_string@DU?$char_traits@D@std@@V?$allocator@D@2@@std@@@2@V?$allocator@U?$pair@$$CBV?$basic_string@DU?$char_traits@D@std@@V?$allocator@D@2@@std@@PAU_GUILD_INFO_STRUCT@@@std@@@2@$0A@@std@@@2@@Z 00487190 f i GuildClass.obj
 0001:00086350       ?AllDelete@CGuildClass@@QAEXXZ 00487350 f   GuildClass.obj
 0001:000863b0       ??A?$map@V?$basic_string@DU?$char_traits@D@std@@V?$allocator@D@2@@std@@PAU_GUILD_INFO_STRUCT@@U?$less@V?$basic_string@DU?$char_traits@D@std@@V?$allocator@D@2@@std@@@2@V?$allocator@U?$pair@$$CBV?$basic_string@DU?$char_traits@D@std@@V?$allocator@D@2@@std@@PAU_GUILD_INFO_STRUCT@@@std@@@2@@std@@QAEAAPAU_GUILD_INFO_STRUCT@@ABV?$basic_string@DU?$char_traits@D@std@@V?$allocator@D@2@@1@@Z 004873b0 f i GuildClass.obj
 0001:00086490       ??1?$map@V?$basic_string@DU?$char_traits@D@std@@V?$allocator@D@2@@std@@PAU_GUILD_INFO_STRUCT@@U?$less@V?$basic_string@DU?$char_traits@D@std@@V?$allocator@D@2@@std@@@2@V?$allocator@U?$pair@$$CBV?$basic_string@DU?$char_traits@D@std@@V?$allocator@D@2@@std@@PAU_GUILD_INFO_STRUCT@@@std@@@2@@std@@QAE@XZ 00487490 f i GuildClass.obj
 0001:000864f0       ??1CGuildClass@@UAE@XZ     004874f0 f   GuildClass.obj
 0001:000865a0       ?AddTail@CGuildClass@@QAEXPAU_GUILD_INFO_STRUCT@@@Z 004875a0 f   GuildClass.obj
 0001:00086690       ??0CGuildClass@@QAE@XZ     00487690 f   GuildClass.obj
 0001:00086790       ??_GCGuildClass@@UAEPAXI@Z 00487790 f i GuildClass.obj
 0001:00086790       ??_ECGuildClass@@UAEPAXI@Z 00487790 f i GuildClass.obj
 0001:000867c0       ?AddGuild@CGuildClass@@QAEPAU_GUILD_INFO_STRUCT@@HPADPAE0H@Z 004877c0 f   GuildClass.obj
 0001:00086bd0       ??0CIllusionTempleEvent@@QAE@XZ 00487bd0 f   IllusionTempleEvent.obj
 0001:00086c00       ??1CIllusionTempleEvent@@UAE@XZ 00487c00 f   IllusionTempleEvent.obj
 0001:00086c20       ?IllusionTempleEventInit@CIllusionTempleEvent@@QAEHXZ 00487c20 f   IllusionTempleEvent.obj
 0001:00086c50       ?IllusionTempleRun@CIllusionTempleEvent@@QAEXXZ 00487c50 f   IllusionTempleEvent.obj
 0001:00086cd0       ?SetInventoryPos@CIllusionTempleEvent@@QAEXEHE@Z 00487cd0 f   IllusionTempleEvent.obj
 0001:00086d10       ?SendRelicsUser@CIllusionTempleEvent@@QAEXPAUOBJECTSTRUCT@@@Z 00487d10 f   IllusionTempleEvent.obj
 0001:00086d50       ?EGAnsIllusionTempleEnterCountCheck@CIllusionTempleEvent@@QAEXPAUPMSG_ANS_ILLUSION_TEMPLE_ENTERCOUNTCHECK@@@Z 00487d50 f   IllusionTempleEvent.obj
 0001:00086d50       ?DGAnsPeriodItemInquiry@CCashItemPeriodSystem@@QAEXPAUPMSG_ANS_PERIODITEM_INQUIRY@@@Z 00487d50 f   CashItemPeriodSystem.obj
 0001:00086d50       ?MonsterDieAction@MonsterHerd@@UAEXPAUOBJECTSTRUCT@@@Z 00487d50 f   MonsterHerd.obj
 0001:00086d50       ?imbue@?$basic_streambuf@DU?$char_traits@D@std@@@std@@MAEXABVlocale@2@@Z 00487d50 f   ConMember.obj
 0001:00086d50       ?CrywolfMonsterAct@CCrywolf@@QAEXH@Z 00487d50 f   Crywolf.obj
 0001:00086d60       ?CheckEnterLevel@CIllusionTempleEvent@@QAEHHH@Z 00487d60 f   IllusionTempleEvent.obj
 0001:00086e70       ?IllusionHolyRelicsStatusAct@CIllusionTempleEvent@@QAEXEPAUOBJECTSTRUCT@@0@Z 00487e70 f   IllusionTempleEvent.obj
 0001:00086eb0       ?HolyRelicsBoxAlliedAct@CIllusionTempleEvent@@QAEXEPAUOBJECTSTRUCT@@0@Z 00487eb0 f   IllusionTempleEvent.obj
 0001:00086ef0       ?HolyRelicsBoxIllusionAct@CIllusionTempleEvent@@QAEXEPAUOBJECTSTRUCT@@0@Z 00487ef0 f   IllusionTempleEvent.obj
 0001:00086f30       ?PlatformMirageAct@CIllusionTempleEvent@@QAEXPAUOBJECTSTRUCT@@0@Z 00487f30 f   IllusionTempleEvent.obj
 0001:00087100       ?DropRelicsItem@CIllusionTempleEvent@@QAEXEH@Z 00488100 f   IllusionTempleEvent.obj
 0001:00087140       ?GetIllusionTempleState@CIllusionTempleEvent@@QAEEE@Z 00488140 f   IllusionTempleEvent.obj
 0001:00087160       ?AddNpcPosNum@CIllusionTempleEvent@@QAEXEHH@Z 00488160 f   IllusionTempleEvent.obj
 0001:000871a0       ?AddMonsterPosNum@CIllusionTempleEvent@@QAEXEHH@Z 004881a0 f   IllusionTempleEvent.obj
 0001:000871e0       ?ResetPosNum@CIllusionTempleEvent@@QAEXXZ 004881e0 f   IllusionTempleEvent.obj
 0001:00087210       ?GetUserTeam@CIllusionTempleEvent@@QAEEEH@Z 00488210 f   IllusionTempleEvent.obj
 0001:00087260       ?SetStatusRegenTime@CIllusionTempleEvent@@QAEXE@Z 00488260 f   IllusionTempleEvent.obj
 0001:000872a0       ?IllusionTempleChaosMix@CIllusionTempleEvent@@AAEEHHH@Z 004882a0 f   IllusionTempleEvent.obj
 0001:000875a0       ?CheckChaosMixItem@CIllusionTempleEvent@@AAEHH@Z 004885a0 f   IllusionTempleEvent.obj
 0001:00087750       ?IncSkillPoint@CIllusionTempleEvent@@QAEEHEE@Z 00488750 f   IllusionTempleEvent.obj
 0001:000877e0       ?IllusionTempleUseSkill@CIllusionTempleEvent@@QAEXHGHE@Z 004887e0 f   IllusionTempleEvent.obj
 0001:00087850       ?EventSkillProc@CIllusionTempleEvent@@QAEXPAUOBJECTSTRUCT@@@Z 00488850 f   IllusionTempleEvent.obj
 0001:00087880       ?IllusionTempleUserDie@CIllusionTempleEvent@@QAEXPAUOBJECTSTRUCT@@@Z 00488880 f   IllusionTempleEvent.obj
 0001:000878b0       ?IllusionTempleUserDieRegen@CIllusionTempleEvent@@QAEXPAUOBJECTSTRUCT@@@Z 004888b0 f   IllusionTempleEvent.obj
 0001:00087920       ?SetMirageIndex@CIllusionTempleEvent@@QAEXH@Z 00488920 f   IllusionTempleEvent.obj
 0001:00087930       ?SendIllusionTempleUserCount@CIllusionTempleEvent@@QAEXXZ 00488930 f   IllusionTempleEvent.obj
 0001:00087a00       ?CheckWearingMOPH@CIllusionTempleEvent@@QAEHH@Z 00488a00 f   IllusionTempleEvent.obj
 0001:00087b10       ?CheckChangeRing@CIllusionTempleEvent@@QAEHH@Z 00488b10 f   IllusionTempleEvent.obj
 0001:00087b90       ?CheckRelics@CIllusionTempleEvent@@QAEHH@Z 00488b90 f   IllusionTempleEvent.obj
 0001:00087c30       ?MonsterDieItemDrop@CIllusionTempleEvent@@QAEXPAUOBJECTSTRUCT@@@Z 00488c30 f   IllusionTempleEvent.obj
 0001:00087c70       ?ReqEventReward@CIllusionTempleEvent@@QAEXH@Z 00488c70 f   IllusionTempleEvent.obj
 0001:00087cc0       ?GetRemainTime@CIllusionTempleEvent@@QAEEXZ 00488cc0 f   IllusionTempleEvent.obj
 0001:00087ce0       ?CheckSkillProdection@CIllusionTempleEvent@@QAEHHE@Z 00488ce0 f   IllusionTempleEvent.obj
 0001:00087d20       ?CheckSkillRestraint@CIllusionTempleEvent@@QAEHHE@Z 00488d20 f   IllusionTempleEvent.obj
 0001:00087d60       ?CheckCanEnterLevel@CIllusionTempleEvent@@QAEHH@Z 00488d60 f   IllusionTempleEvent.obj
 0001:00087e60       ?CheckCharmCount@CIllusionTempleEvent@@QAEHH@Z 00488e60 f   IllusionTempleEvent.obj
 0001:00087f00       ?EGReqIllusionTempleEnterCount@CIllusionTempleEvent@@QAEXH@Z 00488f00 f   IllusionTempleEvent.obj
 0001:00087fa0       ?EGAnsIllusionTempleEnterCount@CIllusionTempleEvent@@QAEXPAUPMSG_ANS_ILLUSIONTEMPLE_ENTERCOUNT@@@Z 00488fa0 f   IllusionTempleEvent.obj
 0001:000880b0       ??_GCIllusionTempleEvent@@UAEPAXI@Z 004890b0 f i IllusionTempleEvent.obj
 0001:000880b0       ??_ECIllusionTempleEvent@@UAEPAXI@Z 004890b0 f i IllusionTempleEvent.obj
 0001:000880e0       ?EnterIllusionTemple@CIllusionTempleEvent@@QAEHHEE@Z 004890e0 f   IllusionTempleEvent.obj
 0001:000884a0       ?LeaveIllusionTemple@CIllusionTempleEvent@@QAEHHE@Z 004894a0 f   IllusionTempleEvent.obj
 0001:000884f0       ?IllusionTempleChaosMixItem@CIllusionTempleEvent@@QAEXPAUOBJECTSTRUCT@@@Z 004894f0 f   IllusionTempleEvent.obj
 0001:00088630       ?_Buynode@?$_List_val@UDEVILSQUARE_START_TIME@@V?$allocator@UDEVILSQUARE_START_TIME@@@std@@@std@@QAEPAU_Node@?$_List_nod@UDEVILSQUARE_START_TIME@@V?$allocator@UDEVILSQUARE_START_TIME@@@std@@@2@PAU342@0ABUDEVILSQUARE_START_TIME@@@Z 00489630 f i DevilSquare.obj
 0001:00088630       ?_Buynode@?$_List_val@UBLOODCASTLE_START_TIME@@V?$allocator@UBLOODCASTLE_START_TIME@@@std@@@std@@QAEPAU_Node@?$_List_nod@UBLOODCASTLE_START_TIME@@V?$allocator@UBLOODCASTLE_START_TIME@@@std@@@2@PAU342@0ABUBLOODCASTLE_START_TIME@@@Z 00489630 f i BloodCastle.obj
 0001:00088630       ?_Buynode@?$_List_val@U__ILLUSION_TEMPLE_STARTTIME@@V?$allocator@U__ILLUSION_TEMPLE_STARTTIME@@@std@@@std@@QAEPAU_Node@?$_List_nod@U__ILLUSION_TEMPLE_STARTTIME@@V?$allocator@U__ILLUSION_TEMPLE_STARTTIME@@@std@@@2@PAU342@0ABU__ILLUSION_TEMPLE_STARTTIME@@@Z 00489630 f i IllusionTempleEvent.obj
 0001:000886a0       ?LoadIllusionTempleScript@CIllusionTempleEvent@@QAEHPAD@Z 004896a0 f   IllusionTempleEvent.obj
 0001:00088a30       ?LoadIllusionTempleEventInfo@CIllusionTempleEvent@@QAEHXZ 00489a30 f   IllusionTempleEvent.obj
 0001:00088b70       ??1CIllusionTempleProcess@@UAE@XZ 00489b70 f   IllusionTempleProcess.obj
 0001:00088b90       ?ClearUserData@CIllusionTempleProcess@@QAEXH@Z 00489b90 f   IllusionTempleProcess.obj
 0001:00088c00       ?GetIllusionTempleState@CIllusionTempleProcess@@QAEEXZ 00489c00 f   IllusionTempleProcess.obj
 0001:00088c10       ?CheckUsersOnConnect@CIllusionTempleProcess@@QAEXXZ 00489c10 f   IllusionTempleProcess.obj
 0001:00088cc0       ?GetRemainTimeMin@CIllusionTempleProcess@@QAEEXZ 00489cc0 f   IllusionTempleProcess.obj
 0001:00088ce0       ?SearchRelicsItem@CIllusionTempleProcess@@QAEHH@Z 00489ce0 f   IllusionTempleProcess.obj
 0001:00088d80       ?DeleteRelicsItem@CIllusionTempleProcess@@QAEXPAUOBJECTSTRUCT@@@Z 00489d80 f   IllusionTempleProcess.obj
 0001:00088e00       ?DropRelicsItem@CIllusionTempleProcess@@QAEXH@Z 00489e00 f   IllusionTempleProcess.obj
 0001:000891e0       ?SetInventoryPos@CIllusionTempleProcess@@QAEXHE@Z 0048a1e0 f   IllusionTempleProcess.obj
 0001:00089260       ?SendRelicsUser@CIllusionTempleProcess@@QAEXPAUOBJECTSTRUCT@@@Z 0048a260 f   IllusionTempleProcess.obj
 0001:00089300       ?AddNpcPosNum@CIllusionTempleProcess@@QAEXHH@Z 0048a300 f   IllusionTempleProcess.obj
 0001:00089380       ?AddMonsterPosNum@CIllusionTempleProcess@@QAEXHH@Z 0048a380 f   IllusionTempleProcess.obj
 0001:000893c0       ?ResetPosNum@CIllusionTempleProcess@@QAEXXZ 0048a3c0 f   IllusionTempleProcess.obj
 0001:00089430       ?AddNpcStatus@CIllusionTempleProcess@@QAEXXZ 0048a430 f   IllusionTempleProcess.obj
 0001:00089570       ?AddNpcRelicsBox@CIllusionTempleProcess@@QAEXXZ 0048a570 f   IllusionTempleProcess.obj
 0001:00089750       ?AddMonsterGhost@CIllusionTempleProcess@@QAEXXZ 0048a750 f   IllusionTempleProcess.obj
 0001:00089860       ?RemoveAllObj@CIllusionTempleProcess@@QAEXXZ 0048a860 f   IllusionTempleProcess.obj
 0001:000899f0       ?SetStatusRegenTime@CIllusionTempleProcess@@QAEXXZ 0048a9f0 f   IllusionTempleProcess.obj
 0001:00089a10       ?RegenStatus@CIllusionTempleProcess@@QAEXXZ 0048aa10 f   IllusionTempleProcess.obj
 0001:00089ab0       ?RegenMonster@CIllusionTempleProcess@@QAEXXZ 0048aab0 f   IllusionTempleProcess.obj
 0001:00089c50       ?SendIllusionTemplePlayState@CIllusionTempleProcess@@QAEXE@Z 0048ac50 f   IllusionTempleProcess.obj
 0001:0008a0b0       ?SendIllusionTempleState@CIllusionTempleProcess@@QAEXEH@Z 0048b0b0 f   IllusionTempleProcess.obj
 0001:0008a150       ?GetUserTeam@CIllusionTempleProcess@@QAEEH@Z 0048b150 f   IllusionTempleProcess.obj
 0001:0008a1d0       ?IncSkillPoint@CIllusionTempleProcess@@QAEEHE@Z 0048b1d0 f   IllusionTempleProcess.obj
 0001:0008a2a0       ?GetSkillPoint@CIllusionTempleProcess@@QAEEH@Z 0048b2a0 f   IllusionTempleProcess.obj
 0001:0008a320       ?SetSkillPoint@CIllusionTempleProcess@@QAEHHE@Z 0048b320 f   IllusionTempleProcess.obj
 0001:0008a3a0       ?ResetSkillPoint@CIllusionTempleProcess@@QAEXXZ 0048b3a0 f   IllusionTempleProcess.obj
 0001:0008a3e0       ?IncUserKillCount@CIllusionTempleProcess@@QAEXH@Z 0048b3e0 f   IllusionTempleProcess.obj
 0001:0008a460       ?IncMonsterKillCount@CIllusionTempleProcess@@QAEXH@Z 0048b460 f   IllusionTempleProcess.obj
 0001:0008a4f0       ?IncRelicsMoveCount@CIllusionTempleProcess@@QAEXH@Z 0048b4f0 f   IllusionTempleProcess.obj
 0001:0008a580       ?IncUseSkillCount@CIllusionTempleProcess@@QAEXH@Z 0048b580 f   IllusionTempleProcess.obj
 0001:0008a610       ?SendIllusionTempleSkillEnd@CIllusionTempleProcess@@QAEXPAUOBJECTSTRUCT@@G@Z 0048b610 f   IllusionTempleProcess.obj
 0001:0008a670       ?UseSkillProdection@CIllusionTempleProcess@@QAEHPAUOBJECTSTRUCT@@@Z 0048b670 f   IllusionTempleProcess.obj
 0001:0008a6b0       ?UseSkillRestraint@CIllusionTempleProcess@@QAEHPAUOBJECTSTRUCT@@0@Z 0048b6b0 f   IllusionTempleProcess.obj
 0001:0008a740       ?UseSkillShieldBurn@CIllusionTempleProcess@@QAEHPAUOBJECTSTRUCT@@0@Z 0048b740 f   IllusionTempleProcess.obj
 0001:0008a7d0       ?SendUseSkillResult@CIllusionTempleProcess@@QAEXHHGE@Z 0048b7d0 f   IllusionTempleProcess.obj
 0001:0008a860       ?IllusionTempleUserDie@CIllusionTempleProcess@@QAEXPAUOBJECTSTRUCT@@@Z 0048b860 f   IllusionTempleProcess.obj
 0001:0008a920       ?DropChaosGem@CIllusionTempleProcess@@QAEXH@Z 0048b920 f   IllusionTempleProcess.obj
 0001:0008aa30       ?SearchTicketItem@CIllusionTempleProcess@@QAEHH@Z 0048ba30 f   IllusionTempleProcess.obj
 0001:0008ab60       ?MonsterDieItemDrop@CIllusionTempleProcess@@QAEXPAUOBJECTSTRUCT@@@Z 0048bb60 f   IllusionTempleProcess.obj
 0001:0008ac10       ?LevelUp@CIllusionTempleProcess@@QAEHHH@Z 0048bc10 f   IllusionTempleProcess.obj
 0001:0008afc0       ?GetRealRemainTimeMin@CIllusionTempleProcess@@QAEEXZ 0048bfc0 f   IllusionTempleProcess.obj
 0001:0008afe0       ?CheckSkillProdection@CIllusionTempleProcess@@QAEHH@Z 0048bfe0 f   IllusionTempleProcess.obj
 0001:0008b020       ?CheckSkillRestraint@CIllusionTempleProcess@@QAEHH@Z 0048c020 f   IllusionTempleProcess.obj
 0001:0008b060       ?SendIllusionTempleResult@CIllusionTempleProcess@@QAEXXZ 0048c060 f   IllusionTempleProcess.obj
 0001:0008b290       ??0CIllusionTempleProcess@@QAE@XZ 0048c290 f   IllusionTempleProcess.obj
 0001:0008b350       ??_GCIllusionTempleProcess@@UAEPAXI@Z 0048c350 f i IllusionTempleProcess.obj
 0001:0008b350       ??_ECIllusionTempleProcess@@UAEPAXI@Z 0048c350 f i IllusionTempleProcess.obj
 0001:0008b380       ?SetIllusionTempleStateReady@CIllusionTempleProcess@@QAEXXZ 0048c380 f   IllusionTempleProcess.obj
 0001:0008b3f0       ?SetIllusionTempleStatePlaying@CIllusionTempleProcess@@QAEXXZ 0048c3f0 f   IllusionTempleProcess.obj
 0001:0008b430       ?SetIllusionTempleStateEnd@CIllusionTempleProcess@@QAEXXZ 0048c430 f   IllusionTempleProcess.obj
 0001:0008b530       ?EnterUserIllusionTemple@CIllusionTempleProcess@@QAEHHEE@Z 0048c530 f   IllusionTempleProcess.obj
 0001:0008b660       ?LeaveUserIllusionTemple@CIllusionTempleProcess@@QAEHH@Z 0048c660 f   IllusionTempleProcess.obj
 0001:0008b8b0       ?IllusionHolyRelicsStatusAct@CIllusionTempleProcess@@QAEXPAUOBJECTSTRUCT@@0@Z 0048c8b0 f   IllusionTempleProcess.obj
 0001:0008b9c0       ?HolyRelicsBoxAlliedAct@CIllusionTempleProcess@@QAEXPAUOBJECTSTRUCT@@0@Z 0048c9c0 f   IllusionTempleProcess.obj
 0001:0008ba70       ?HolyRelicsBoxIllusionAct@CIllusionTempleProcess@@QAEXPAUOBJECTSTRUCT@@0@Z 0048ca70 f   IllusionTempleProcess.obj
 0001:0008bb20       ?IllusionTempleSkillProc@CIllusionTempleProcess@@QAEXPAUOBJECTSTRUCT@@@Z 0048cb20 f   IllusionTempleProcess.obj
 0001:0008bc00       ?UseSkillTeleport@CIllusionTempleProcess@@QAEHPAUOBJECTSTRUCT@@@Z 0048cc00 f   IllusionTempleProcess.obj
 0001:0008bd40       ?CalCursetTempleResult@CIllusionTempleProcess@@QAEXXZ 0048cd40 f   IllusionTempleProcess.obj
 0001:0008c140       ?IllusionTempleUseSkill@CIllusionTempleProcess@@QAEXHGHE@Z 0048d140 f   IllusionTempleProcess.obj
 0001:0008c460       ?CheckSync@CIllusionTempleProcess@@QAEXXZ 0048d460 f   IllusionTempleProcess.obj
 0001:0008c5e0       ?GetEnterRemainTimeMin@CIllusionTempleProcess@@QAEEXZ 0048d5e0 f   IllusionTempleProcess.obj
 0001:0008c770       ?IllusionTempleProcessInit@CIllusionTempleProcess@@QAEXH@Z 0048d770 f   IllusionTempleProcess.obj
 0001:0008c840       ?SetIllusionTempleStateNone@CIllusionTempleProcess@@QAEXXZ 0048d840 f   IllusionTempleProcess.obj
 0001:0008c8b0       ?SetIllusionTempleState@CIllusionTempleProcess@@QAEXE@Z 0048d8b0 f   IllusionTempleProcess.obj
 0001:0008c900       ?ProcIllusionTempleState_None@CIllusionTempleProcess@@QAEXH@Z 0048d900 f   IllusionTempleProcess.obj
 0001:0008d350       ?ProcIllusionTempleState_Ready@CIllusionTempleProcess@@QAEXH@Z 0048e350 f   IllusionTempleProcess.obj
 0001:0008d450       ?ProcIllusionTempleState_Playing@CIllusionTempleProcess@@QAEXH@Z 0048e450 f   IllusionTempleProcess.obj
 0001:0008d540       ?ProcIllusionTempleState_End@CIllusionTempleProcess@@QAEXH@Z 0048e540 f   IllusionTempleProcess.obj
 0001:0008d710       ?ProcIllusionTemple@CIllusionTempleProcess@@QAEXH@Z 0048e710 f   IllusionTempleProcess.obj
 0001:0008d760       ?gGetPartyMaxLevelAndReset@@YAXHAAH0@Z 0048e760 f   ImperialGuardian.obj
 0001:0008d8c0       ?Init@CImperialGuardian@@QAEXXZ 0048e8c0 f   ImperialGuardian.obj
 0001:0008d900       ?GetZoneState@CImperialGuardian@@QAEHH@Z 0048e900 f   ImperialGuardian.obj
 0001:0008d930       ?SetZoneState@CImperialGuardian@@QAE_NHH@Z 0048e930 f   ImperialGuardian.obj
 0001:0008d960       ?SetMonster@CImperialGuardian@@QAE_NHHHH@Z 0048e960 f   ImperialGuardian.obj
 0001:0008dab0       ?GetGateNumber@CImperialGuardian@@QAEHHH@Z 0048eab0 f   ImperialGuardian.obj
 0001:0008dc10       ?IsLastZone@CImperialGuardian@@QAE_NH@Z 0048ec10 f   ImperialGuardian.obj
 0001:0008dc50       ?GCSendDataToUser@CImperialGuardian@@QAEXHPAEK@Z 0048ec50 f   ImperialGuardian.obj
 0001:0008dca0       ?SetGateBlockState@CImperialGuardian@@QAEXHHHHHH@Z 0048eca0 f   ImperialGuardian.obj
 0001:0008e030       ?GCSendCastleGateInfo@CImperialGuardian@@QAEXHHH@Z 0048f030 f   ImperialGuardian.obj
 0001:0008e260       ?CheckOverlapMysteriousPaper@CImperialGuardian@@QAEHHH@Z 0048f260 f   ImperialGuardian.obj
 0001:0008e300       ?RollBackUserPos@CImperialGuardian@@QAEXH@Z 0048f300 f   ImperialGuardian.obj
 0001:0008e3d0       ?CheckGaionOrderPaper@CImperialGuardian@@QAEHH@Z 0048f3d0 f   ImperialGuardian.obj
 0001:0008e4e0       ?CheckFullSecromicon@CImperialGuardian@@QAEHH@Z 0048f4e0 f   ImperialGuardian.obj
 0001:0008e5f0       ?ImperialGuardianLevelUp@CImperialGuardian@@QAEHHH@Z 0048f5f0 f   ImperialGuardian.obj
 0001:0008e9e0       ?GetPlayerCount@CImperialGuardian@@QAEHH@Z 0048f9e0 f   ImperialGuardian.obj
 0001:0008ea10       ?GCMissionFailUseDie@CImperialGuardian@@QAEXH@Z 0048fa10 f   ImperialGuardian.obj
 0001:0008eb00       ?ChangeUserIndex@CImperialGuardian@@QAE_NHHH@Z 0048fb00 f   ImperialGuardian.obj
 0001:0008eba0       ?ProcReady@CImperialGuardian@@QAEXH@Z 0048fba0 f   ImperialGuardian.obj
 0001:0008ebf0       ?IsAttackAbleMonster@CImperialGuardian@@QAE_NH@Z 0048fbf0 f   ImperialGuardian.obj
 0001:0008ec50       ?IsRegPartyUser@CImperialGuardian@@QAE_NHH@Z 0048fc50 f   ImperialGuardian.obj
 0001:0008eca0       ?SendCurStateToUser@CImperialGuardian@@QAE_NHH@Z 0048fca0 f   ImperialGuardian.obj
 0001:0008ede0       ?SendCurGateInfoToUser@CImperialGuardian@@QAE_NHH@Z 0048fde0 f   ImperialGuardian.obj
 0001:0008ee80       ??$_Uninit_copy@V?$_Vector_const_iterator@V?$_Vector_val@VCItemBagAttrEx@@V?$allocator@VCItemBagAttrEx@@@std@@@std@@@std@@PAVCItemBagAttrEx@@V?$allocator@VCItemBagAttrEx@@@2@@std@@YAPAVCItemBagAttrEx@@V?$_Vector_const_iterator@V?$_Vector_val@VCItemBagAttrEx@@V?$allocator@VCItemBagAttrEx@@@std@@@std@@@0@0PAV1@AAV?$allocator@VCItemBagAttrEx@@@0@U_Nonscalar_ptr_iterator_tag@0@@Z 0048fe80 f i DoppelgangerItemBag.obj
 0001:0008ee80       ??$_Uninit_copy@V?$_Vector_const_iterator@V?$_Vector_val@UCASTLEDEEP_SPAWNTIME@@V?$allocator@UCASTLEDEEP_SPAWNTIME@@@std@@@std@@@std@@PAUCASTLEDEEP_SPAWNTIME@@V?$allocator@UCASTLEDEEP_SPAWNTIME@@@2@@std@@YAPAUCASTLEDEEP_SPAWNTIME@@V?$_Vector_const_iterator@V?$_Vector_val@UCASTLEDEEP_SPAWNTIME@@V?$allocator@UCASTLEDEEP_SPAWNTIME@@@std@@@std@@@0@0PAU1@AAV?$allocator@UCASTLEDEEP_SPAWNTIME@@@0@U_Nonscalar_ptr_iterator_tag@0@@Z 0048fe80 f i CastleDeepEvent.obj
 0001:0008ee80       ??$_Uninit_copy@V?$_Vector_const_iterator@V?$_Vector_val@U_stMonsterIndexInfo@@V?$allocator@U_stMonsterIndexInfo@@@std@@@std@@@std@@PAU_stMonsterIndexInfo@@V?$allocator@U_stMonsterIndexInfo@@@2@@std@@YAPAU_stMonsterIndexInfo@@V?$_Vector_const_iterator@V?$_Vector_val@U_stMonsterIndexInfo@@V?$allocator@U_stMonsterIndexInfo@@@std@@@std@@@0@0PAU1@AAV?$allocator@U_stMonsterIndexInfo@@@0@U_Nonscalar_ptr_iterator_tag@0@@Z 0048fe80 f i ImperialGuardian.obj
 0001:0008eec0       ??$_Uninit_copy@V?$_Vector_const_iterator@V?$_Vector_val@HV?$allocator@H@std@@@std@@@std@@PAHV?$allocator@H@2@@std@@YAPAHV?$_Vector_const_iterator@V?$_Vector_val@HV?$allocator@H@std@@@std@@@0@0PAHAAV?$allocator@H@0@U_Nonscalar_ptr_iterator_tag@0@@Z 0048fec0 f i ImperialGuardian.obj
 0001:0008ef00       ?GetLiveMonsterCount@CImperialGuardian@@QAEHH@Z 0048ff00 f   ImperialGuardian.obj
 0001:0008ef40       ?CheckLiveMonster@CImperialGuardian@@QAEXH@Z 0048ff40 f   ImperialGuardian.obj
 0001:0008eff0       ?SetAtackAbleState@CImperialGuardian@@QAEXHH_N@Z 0048fff0 f   ImperialGuardian.obj
 0001:0008f080       ?SetTargetMoveAllMonster@CImperialGuardian@@QAEXHH@Z 00490080 f   ImperialGuardian.obj
 0001:0008f180       ?MonsterBaseAct@CImperialGuardian@@QAEXPAUOBJECTSTRUCT@@@Z 00490180 f   ImperialGuardian.obj
 0001:0008f590       ?RemoveUserInZone@CImperialGuardian@@QAEXHH@Z 00490590 f   ImperialGuardian.obj
 0001:0008f640       ?RemoveUserInAllZone@CImperialGuardian@@QAEXH@Z 00490640 f   ImperialGuardian.obj
 0001:0008f670       ?AddUserInZone@CImperialGuardian@@QAE_NHH@Z 00490670 f   ImperialGuardian.obj
 0001:0008f7c0       ?DestroyGate@CImperialGuardian@@QAEXHHH@Z 004907c0 f   ImperialGuardian.obj
 0001:0008f980       ?RegAllPartyUser@CImperialGuardian@@QAEXHH@Z 00490980 f   ImperialGuardian.obj
 0001:0008faf0       ??0?$vector@HV?$allocator@H@std@@@std@@QAE@ABV01@@Z 00490af0 f i ImperialGuardian.obj
 0001:0008fbc0       ?_Tidy@?$vector@U_stMonsterIndexInfo@@V?$allocator@U_stMonsterIndexInfo@@@std@@@std@@IAEXXZ 00490bc0 f i ImperialGuardian.obj
 0001:0008fbc0       ??1?$vector@UCASTLEDEEP_MONSTERINFO@@V?$allocator@UCASTLEDEEP_MONSTERINFO@@@std@@@std@@QAE@XZ 00490bc0 f i CastleDeepEvent.obj
 0001:0008fbc0       ?_Tidy@?$vector@VCItemBagAttrEx@@V?$allocator@VCItemBagAttrEx@@@std@@@std@@IAEXXZ 00490bc0 f i DoppelgangerItemBag.obj
 0001:0008fbc0       ??1?$vector@HV?$allocator@H@std@@@std@@QAE@XZ 00490bc0 f i CastleDeepEvent.obj
 0001:0008fbc0       ??1?$vector@UCHAOSCASTLE_START_TIME@@V?$allocator@UCHAOSCASTLE_START_TIME@@@std@@@std@@QAE@XZ 00490bc0 f i ChaosCastle.obj
 0001:0008fbc0       ??1QuestExpProgMng@@QAE@XZ 00490bc0 f i QuestExpProgMng.obj
 0001:0008fbc0       ??1?$vector@UQUEST_ITEM_INFO@@V?$allocator@UQUEST_ITEM_INFO@@@std@@@std@@QAE@XZ 00490bc0 f i QuestExpInfo.obj
 0001:0008fbc0       ??1?$vector@UCASTLEDEEP_EVENTTIME@@V?$allocator@UCASTLEDEEP_EVENTTIME@@@std@@@std@@QAE@XZ 00490bc0 f i CastleDeepEvent.obj
 0001:0008fbc0       ??1?$vector@UXMASMONSTER_MAP_INFO@@V?$allocator@UXMASMONSTER_MAP_INFO@@@std@@@std@@QAE@XZ 00490bc0 f i XMasAttackEvent.obj
 0001:0008fbc0       ??1?$vector@UtagPOINT@@V?$allocator@UtagPOINT@@@std@@@std@@QAE@XZ 00490bc0 f i ChaosCastle.obj
 0001:0008fbc0       ?_Tidy@?$vector@UCASTLEDEEP_MONSTERINFO@@V?$allocator@UCASTLEDEEP_MONSTERINFO@@@std@@@std@@IAEXXZ 00490bc0 f i CastleDeepEvent.obj
 0001:0008fbc0       ??1?$vector@UEVENT_ID_TIME@@V?$allocator@UEVENT_ID_TIME@@@std@@@std@@QAE@XZ 00490bc0 f i EventManagement.obj
 0001:0008fbc0       ??1?$vector@UCASTLEDEEP_SPAWNTIME@@V?$allocator@UCASTLEDEEP_SPAWNTIME@@@std@@@std@@QAE@XZ 00490bc0 f i CastleDeepEvent.obj
 0001:0008fbc0       ?_Tidy@?$vector@UCASTLEDEEP_SPAWNTIME@@V?$allocator@UCASTLEDEEP_SPAWNTIME@@@std@@@std@@IAEXXZ 00490bc0 f i CastleDeepEvent.obj
 0001:0008fbc0       ??1?$vector@U_stMonsterIndexInfo@@V?$allocator@U_stMonsterIndexInfo@@@std@@@std@@QAE@XZ 00490bc0 f i ImperialGuardian.obj
 0001:0008fbc0       ??1?$vector@PAU_MAPSVR_DATA@@V?$allocator@PAU_MAPSVR_DATA@@@std@@@std@@QAE@XZ 00490bc0 f i MapServerManager.obj
 0001:0008fbc0       ??1DropEx@@QAE@XZ          00490bc0 f i DropEx.obj
 0001:0008fbc0       ?_Tidy@?$vector@HV?$allocator@H@std@@@std@@IAEXXZ 00490bc0 f i CastleDeepEvent.obj
 0001:0008fbf0       ?ProcAllWarpNextZone@CImperialGuardian@@QAEXH@Z 00490bf0 f   ImperialGuardian.obj
 0001:0008fce0       ?GetCurrentZoneIndex@CImperialGuardian@@QAEHH@Z 00490ce0 f   ImperialGuardian.obj
 0001:0008fd90       ?GCNotifyAllZoneClear@CImperialGuardian@@QAE_NH@Z 00490d90 f   ImperialGuardian.obj
 0001:0008ffe0       ?GCMissionFail@CImperialGuardian@@QAEXH@Z 00490fe0 f   ImperialGuardian.obj
 0001:00090160       ?GCNotifyRemainTickCount@CImperialGuardian@@QAE_NHEK@Z 00491160 f   ImperialGuardian.obj
 0001:000902b0       ?DropItem@CImperialGuardian@@QAEXHH@Z 004912b0 f   ImperialGuardian.obj
 0001:00090580       ?GCSendServerMsgAll@CImperialGuardian@@QAEXHPAD@Z 00491580 f   ImperialGuardian.obj
 0001:00090620       ?GetPlayUserCountRightNow@CImperialGuardian@@QAEHH@Z 00491620 f   ImperialGuardian.obj
 0001:000906e0       ??0?$vector@U_stMonsterIndexInfo@@V?$allocator@U_stMonsterIndexInfo@@@std@@@std@@QAE@ABV01@@Z 004916e0 f i ImperialGuardian.obj
 0001:000906e0       ??0?$vector@UCASTLEDEEP_SPAWNTIME@@V?$allocator@UCASTLEDEEP_SPAWNTIME@@@std@@@std@@QAE@ABV01@@Z 004916e0 f i CastleDeepEvent.obj
 0001:000906e0       ??0?$vector@VCItemBagAttrEx@@V?$allocator@VCItemBagAttrEx@@@std@@@std@@QAE@ABV01@@Z 004916e0 f i DoppelgangerItemBag.obj
 0001:000907b0       ??0_stZoneInfo@@QAE@XZ     004917b0 f i ImperialGuardian.obj
 0001:000907e0       ??1_stZoneInfo@@QAE@XZ     004917e0 f i ImperialGuardian.obj
 0001:00090850       ??1CImperialGuardian@@UAE@XZ 00491850 f   ImperialGuardian.obj
 0001:000908c0       ?ProcBeginWaitPlayer@CImperialGuardian@@QAEXH@Z 004918c0 f   ImperialGuardian.obj
 0001:00090a00       ?ProcMissionFail@CImperialGuardian@@QAEXH@Z 00491a00 f   ImperialGuardian.obj
 0001:00090a40       ?ProcMissionClear@CImperialGuardian@@QAEXH@Z 00491a40 f   ImperialGuardian.obj
 0001:00090b20       ?CheckValidUser@CImperialGuardian@@QAE_NH@Z 00491b20 f   ImperialGuardian.obj
 0001:00090b40       ?DeleteMonster@CImperialGuardian@@QAEXHH@Z 00491b40 f   ImperialGuardian.obj
 0001:00090be0       ?InitZone@CImperialGuardian@@QAEXH@Z 00491be0 f   ImperialGuardian.obj
 0001:00090d30       ?ProcCheckDungeon@CImperialGuardian@@QAEXH@Z 00491d30 f   ImperialGuardian.obj
 0001:00090e40       ??0_stZoneInfo@@QAE@ABU0@@Z 00491e40 f i ImperialGuardian.obj
 0001:00090f50       ?push_back@?$vector@U_stMonsterIndexInfo@@V?$allocator@U_stMonsterIndexInfo@@@std@@@std@@QAEXABU_stMonsterIndexInfo@@@Z 00491f50 f i ImperialGuardian.obj
 0001:00090f50       ?push_back@?$vector@VCItemBagAttrEx@@V?$allocator@VCItemBagAttrEx@@@std@@@std@@QAEXABVCItemBagAttrEx@@@Z 00491f50 f i DoppelgangerItemBag.obj
 0001:00090f50       ?push_back@?$vector@UCASTLEDEEP_SPAWNTIME@@V?$allocator@UCASTLEDEEP_SPAWNTIME@@@std@@@std@@QAEXABUCASTLEDEEP_SPAWNTIME@@@Z 00491f50 f i CastleDeepEvent.obj
 0001:00090f50       ?push_back@?$vector@UXMASMONSTER_EVENT_TIME@@V?$allocator@UXMASMONSTER_EVENT_TIME@@@std@@@std@@QAEXABUXMASMONSTER_EVENT_TIME@@@Z 00491f50 f i XMasAttackEvent.obj
 0001:00090f50       ?push_back@?$vector@URINGMONSTER_EVENT_TIME@@V?$allocator@URINGMONSTER_EVENT_TIME@@@std@@@std@@QAEXABURINGMONSTER_EVENT_TIME@@@Z 00491f50 f i RingAttackEvent.obj
 0001:00090f50       ?push_back@?$vector@UtagPOINT@@V?$allocator@UtagPOINT@@@std@@@std@@QAEXABUtagPOINT@@@Z 00491f50 f i ChaosCastle.obj
 0001:00090fd0       ??0CImperialGuardian@@QAE@XZ 00491fd0 f   ImperialGuardian.obj
 0001:00091050       ??_GCImperialGuardian@@UAEPAXI@Z 00492050 f i ImperialGuardian.obj
 0001:00091050       ??_ECImperialGuardian@@UAEPAXI@Z 00492050 f i ImperialGuardian.obj
 0001:00091080       ?InitEventDungeon@CImperialGuardian@@QAEXXZ 00492080 f   ImperialGuardian.obj
 0001:000910a0       ?LoadScript@CImperialGuardian@@QAEXPBD@Z 004920a0 f   ImperialGuardian.obj
 0001:00091180       ?ProcBeginLootTime@CImperialGuardian@@QAEXH@Z 00492180 f   ImperialGuardian.obj
 0001:00091330       ?ProcAllKick@CImperialGuardian@@QAEXH@Z 00492330 f   ImperialGuardian.obj
 0001:00091430       ?KickInvalidUser@CImperialGuardian@@QAEXXZ 00492430 f   ImperialGuardian.obj
 0001:00091560       ?RegenMonster@CImperialGuardian@@QAEXHHHHD@Z 00492560 f   ImperialGuardian.obj
 0001:00091890       ?GetZoneInfo@CImperialGuardian@@QAE?AU_stZoneInfo@@H@Z 00492890 f   ImperialGuardian.obj
 0001:000918c0       ?ProcBeginTimeAttack@CImperialGuardian@@QAEXH@Z 004928c0 f   ImperialGuardian.obj
 0001:00091bc0       ?CGEnterPortal@CImperialGuardian@@QAEXHH@Z 00492bc0 f   ImperialGuardian.obj
 0001:000922b0       ?Run@CImperialGuardian@@QAEXXZ 004932b0 f   ImperialGuardian.obj
 0001:000926a0       ?Init@CImperialGuardianRewardExp@@QAEXXZ 004936a0 f   ImperialGuardianRewardExp.obj
 0001:000926b0       ?GetRewardExp@CImperialGuardianRewardExp@@QAEHH@Z 004936b0 f   ImperialGuardianRewardExp.obj
 0001:00092760       ?allocate@?$allocator@UQUEST_ITEM_INFO@@@std@@QAEPAUQUEST_ITEM_INFO@@I@Z 00493760 f i QuestExpInfo.obj
 0001:00092760       ?allocate@?$allocator@UXMASMONSTER_DATA@@@std@@QAEPAUXMASMONSTER_DATA@@I@Z 00493760 f i XMasAttackEvent.obj
 0001:00092760       ?allocate@?$allocator@U_stRewardExpInfo@@@std@@QAEPAU_stRewardExpInfo@@I@Z 00493760 f i ImperialGuardianRewardExp.obj
 0001:00092760       ?allocate@?$allocator@URINGMONSTER_DATA@@@std@@QAEPAURINGMONSTER_DATA@@I@Z 00493760 f i RingAttackEvent.obj
 0001:000927c0       ??$_Uninit_move@PAU_stRewardExpInfo@@PAU1@V?$allocator@U_stRewardExpInfo@@@std@@U1@@std@@YAPAU_stRewardExpInfo@@PAU1@00AAV?$allocator@U_stRewardExpInfo@@@0@0U_Nonscalar_ptr_iterator_tag@0@@Z 004937c0 f i ImperialGuardianRewardExp.obj
 0001:000927c0       ??$_Uninit_move@PAUQUEST_ITEM_INFO@@PAU1@V?$allocator@UQUEST_ITEM_INFO@@@std@@U1@@std@@YAPAUQUEST_ITEM_INFO@@PAU1@00AAV?$allocator@UQUEST_ITEM_INFO@@@0@0U_Nonscalar_ptr_iterator_tag@0@@Z 004937c0 f i QuestExpInfo.obj
 0001:000927c0       ??$_Uninit_move@PAURINGMONSTER_DATA@@PAU1@V?$allocator@URINGMONSTER_DATA@@@std@@U1@@std@@YAPAURINGMONSTER_DATA@@PAU1@00AAV?$allocator@URINGMONSTER_DATA@@@0@0U_Nonscalar_ptr_iterator_tag@0@@Z 004937c0 f i RingAttackEvent.obj
 0001:000927c0       ??$_Uninit_move@PAUXMASMONSTER_DATA@@PAU1@V?$allocator@UXMASMONSTER_DATA@@@std@@U1@@std@@YAPAUXMASMONSTER_DATA@@PAU1@00AAV?$allocator@UXMASMONSTER_DATA@@@0@0U_Nonscalar_ptr_iterator_tag@0@@Z 004937c0 f i XMasAttackEvent.obj
 0001:00092800       ?reserve@?$vector@UXMASMONSTER_DATA@@V?$allocator@UXMASMONSTER_DATA@@@std@@@std@@QAEXI@Z 00493800 f i XMasAttackEvent.obj
 0001:00092800       ?reserve@?$vector@U_stRewardExpInfo@@V?$allocator@U_stRewardExpInfo@@@std@@@std@@QAEXI@Z 00493800 f i ImperialGuardianRewardExp.obj
 0001:00092800       ?reserve@?$vector@URINGMONSTER_DATA@@V?$allocator@URINGMONSTER_DATA@@@std@@@std@@QAEXI@Z 00493800 f i RingAttackEvent.obj
 0001:00092800       ?reserve@?$vector@UQUEST_ITEM_INFO@@V?$allocator@UQUEST_ITEM_INFO@@@std@@@std@@QAEXI@Z 00493800 f i QuestExpInfo.obj
 0001:000928f0       ?_Reserve@?$vector@UQUEST_ITEM_INFO@@V?$allocator@UQUEST_ITEM_INFO@@@std@@@std@@IAEXI@Z 004938f0 f i QuestExpInfo.obj
 0001:000928f0       ?_Reserve@?$vector@URINGMONSTER_DATA@@V?$allocator@URINGMONSTER_DATA@@@std@@@std@@IAEXI@Z 004938f0 f i RingAttackEvent.obj
 0001:000928f0       ?_Reserve@?$vector@UXMASMONSTER_DATA@@V?$allocator@UXMASMONSTER_DATA@@@std@@@std@@IAEXI@Z 004938f0 f i XMasAttackEvent.obj
 0001:000928f0       ?_Reserve@?$vector@U_stRewardExpInfo@@V?$allocator@U_stRewardExpInfo@@@std@@@std@@IAEXI@Z 004938f0 f i ImperialGuardianRewardExp.obj
 0001:00092970       ??0CImperialGuardianRewardExp@@QAE@XZ 00493970 f   ImperialGuardianRewardExp.obj
 0001:00092990       ??1CImperialGuardianRewardExp@@UAE@XZ 00493990 f   ImperialGuardianRewardExp.obj
 0001:000929c0       ??_GCImperialGuardianRewardExp@@UAEPAXI@Z 004939c0 f i ImperialGuardianRewardExp.obj
 0001:000929c0       ??_ECImperialGuardianRewardExp@@UAEPAXI@Z 004939c0 f i ImperialGuardianRewardExp.obj
 0001:000929f0       ?LoadScript@CImperialGuardianRewardExp@@QAEXPBD@Z 004939f0 f   ImperialGuardianRewardExp.obj
 0001:00092b50       ??1CIpCache@@UAE@XZ        00493b50 f   IpCache.obj
 0001:00092b60       ?Init@CIpCache@@QAEXXZ     00493b60 f   IpCache.obj
 0001:00092b80       ?DelIp@CIpCache@@QAEXPAD@Z 00493b80 f   IpCache.obj
 0001:00092bf0       ??0CIpCache@@QAE@XZ        00493bf0 f   IpCache.obj
 0001:00092c00       ??_GCIpCache@@UAEPAXI@Z    00493c00 f i IpCache.obj
 0001:00092c00       ??_ECIpCache@@UAEPAXI@Z    00493c00 f i IpCache.obj
 0001:00092f20       ??1CItemAddOption@@UAE@XZ  00493f20 f   ItemAddOption.obj
 0001:00092f30       ?Initialize@CItemAddOption@@QAEXXZ 00493f30 f   ItemAddOption.obj
 0001:00092f70       ?SendItemUse@CItemAddOption@@QAEXPAUOBJECTSTRUCT@@HHHHH@Z 00493f70 f   ItemAddOption.obj
 0001:00092fa0       ?_SetItemEffect@CItemAddOption@@AAE_NPAUOBJECTSTRUCT@@HH@Z 00493fa0 f   ItemAddOption.obj
 0001:000931f0       ?_ClearItemEffect@CItemAddOption@@AAE_NPAUOBJECTSTRUCT@@HHHH@Z 004941f0 f   ItemAddOption.obj
 0001:00093450       ?_SearchItemEffect@CItemAddOption@@AAEPAUITEMEFFECT@@H@Z 00494450 f   ItemAddOption.obj
 0001:00093480       ?SearchItemEffectType@CItemAddOption@@QAE_NHPAH00@Z 00494480 f   ItemAddOption.obj
 0001:000934c0       ?SearchItemOptionType@CItemAddOption@@QAEHH@Z 004944c0 f   ItemAddOption.obj
 0001:000934e0       ?IsValidEffect@CItemAddOption@@QAEEH@Z 004944e0 f   ItemAddOption.obj
 0001:00093500       ?GetItemEffectData@CItemAddOption@@QAEPAUITEMEFFECT@@H@Z 00494500 f   ItemAddOption.obj
 0001:00093510       ??0CItemAddOption@@QAE@XZ  00494510 f   ItemAddOption.obj
 0001:00093530       ??_ECItemAddOption@@UAEPAXI@Z 00494530 f i ItemAddOption.obj
 0001:00093530       ??_GCItemAddOption@@UAEPAXI@Z 00494530 f i ItemAddOption.obj
 0001:00093560       ?Load@CItemAddOption@@QAEXPAD@Z 00494560 f   ItemAddOption.obj
 0001:00093910       ?ClearItemEffect2@CItemAddOption@@QAEEPAUOBJECTSTRUCT@@HH@Z 00494910 f   ItemAddOption.obj
 0001:00093970       ?PrevSetItemLastEffectForCashShop@CItemAddOption@@QAE_NPAUOBJECTSTRUCT@@@Z 00494970 f   ItemAddOption.obj
 0001:00093a50       ?NextSetItemLastEffectForCashShop@CItemAddOption@@QAE_NPAUOBJECTSTRUCT@@@Z 00494a50 f   ItemAddOption.obj
 0001:00093b30       ?PrevSetItemLastEffectForHallowin@CItemAddOption@@QAE_NPAUOBJECTSTRUCT@@@Z 00494b30 f   ItemAddOption.obj
 0001:00093b70       ?NextSetItemLastEffectForHallowin@CItemAddOption@@QAE_NPAUOBJECTSTRUCT@@@Z 00494b70 f   ItemAddOption.obj
 0001:00093bb0       ?SetManualItemEffect@CItemAddOption@@QAEEPAUOBJECTSTRUCT@@HHH@Z 00494bb0 f   ItemAddOption.obj
 0001:00093c10       ?GetCurrentEffectType@CItemAddOption@@QAEPAUITEMEFFECT@@PAUOBJECTSTRUCT@@@Z 00494c10 f   ItemAddOption.obj
 0001:00093c40       ?ClearItemEffect@CItemAddOption@@QAE_NPAUOBJECTSTRUCT@@H@Z 00494c40 f   ItemAddOption.obj
 0001:00093cb0       ?SetItemEffect@CItemAddOption@@QAE_NPAUOBJECTSTRUCT@@HH@Z 00494cb0 f   ItemAddOption.obj
 0001:00094100       ??0CItemBag@@QAE@XZ        00495100 f   ItemBag.obj
 0001:00094130       ??1CItemBag@@UAE@XZ        00495130 f   ItemBag.obj
 0001:00094140       ?LoadItem@CItemBag@@QAEXPAD@Z 00495140 f   ItemBag.obj
 0001:00094300       ?GetType@CItemBag@@QAEEH@Z 00495300 f   ItemBag.obj
 0001:00094320       ?GetIndex@CItemBag@@QAEEH@Z 00495320 f   ItemBag.obj
 0001:00094340       ?GetLevel@CItemBag@@QAEEH@Z 00495340 f   ItemBag.obj
 0001:00094360       ?GetOp1@CItemBag@@QAEEH@Z  00495360 f   ItemBag.obj
 0001:00094380       ??_ECItemBag@@UAEPAXI@Z    00495380 f i ItemBag.obj
 0001:00094380       ??_GCItemBag@@UAEPAXI@Z    00495380 f i ItemBag.obj
 0001:000943b0       ?Init@CItemBag@@QAEXPAD@Z  004953b0 f   ItemBag.obj
 0001:000946e0       ??1CItemBagEx@@UAE@XZ      004956e0 f   ItemBagEx.obj
 0001:000946f0       ?LoadItem@CItemBagEx@@QAEXPAD@Z 004956f0 f   ItemBagEx.obj
 0001:00094ce0       ?GetLevel@CItemBagEx@@AAEEH@Z 00495ce0 f   ItemBagEx.obj
 0001:00094d30       ?IsEnableEventItemDrop@CItemBagEx@@AAEHH@Z 00495d30 f   ItemBagEx.obj
 0001:00094d90       ?DropEventItem@CItemBagEx@@QAEHH@Z 00495d90 f   ItemBagEx.obj
 0001:00094e80       ?DropItem@CItemBagEx@@QAEHH@Z 00495e80 f   ItemBagEx.obj
 0001:00095100       ?GetMinLevel@CItemBagEx@@QAEEH@Z 00496100 f   ItemBagEx.obj
 0001:00095120       ?PickItem@CItemBagEx@@QAEHAAVCItem@@AAH@Z 00496120 f   ItemBagEx.obj
 0001:00095280       ?DropRedRibbonBoxEventItem@CItemBagEx@@QAEHH@Z 00496280 f   ItemBagEx.obj
 0001:00095520       ?DropGreenRibbonBoxEventItem@CItemBagEx@@QAEHH@Z 00496520 f   ItemBagEx.obj
 0001:00095830       ?DropBlueRibbonBoxEventItem@CItemBagEx@@QAEHH@Z 00496830 f   ItemBagEx.obj
 0001:00095b30       ?DropPinkChocolateBoxEventItem@CItemBagEx@@QAEHH@Z 00496b30 f   ItemBagEx.obj
 0001:00095dd0       ?DropRedChocolateBoxEventItem@CItemBagEx@@QAEHH@Z 00496dd0 f   ItemBagEx.obj
 0001:000960e0       ?DropBlueChocolateBoxEventItem@CItemBagEx@@QAEHH@Z 004970e0 f   ItemBagEx.obj
 0001:000963e0       ?DropLightPurpleCandyBoxEventItem@CItemBagEx@@QAEHH@Z 004973e0 f   ItemBagEx.obj
 0001:00096680       ?DropVermilionCandyBoxEventItem@CItemBagEx@@QAEHH@Z 00497680 f   ItemBagEx.obj
 0001:00096990       ?DropDeepBlueCandyBoxEventItem@CItemBagEx@@QAEHH@Z 00497990 f   ItemBagEx.obj
 0001:00096c90       ?DropHallowinEventItem@CItemBagEx@@QAEHPAUOBJECTSTRUCT@@@Z 00497c90 f   ItemBagEx.obj
 0001:00096e70       ?DropKundunEventItem@CItemBagEx@@QAEHHEEE@Z 00497e70 f   ItemBagEx.obj
 0001:00097120       ?DropCastleHuntZoneBossReward@CItemBagEx@@QAEHHEEE@Z 00498120 f   ItemBagEx.obj
 0001:00097360       ?DropCrywolfDarkElfItem@CItemBagEx@@QAEHHEEE@Z 00498360 f   ItemBagEx.obj
 0001:000975a0       ?DropCrywolfBossMonsterItem@CItemBagEx@@QAEHHEEE@Z 004985a0 f   ItemBagEx.obj
 0001:000977e0       ?DropKanturuMayaHandItem@CItemBagEx@@QAEHHEEE@Z 004987e0 f   ItemBagEx.obj
 0001:000979c0       ?DropKanturuNightmareItem@CItemBagEx@@QAEHHEEE@Z 004989c0 f   ItemBagEx.obj
 0001:00097ba0       ??0CItemBagEx@@QAE@XZ      00498ba0 f   ItemBagEx.obj
 0001:00097bf0       ??_ECItemBagEx@@UAEPAXI@Z  00498bf0 f i ItemBagEx.obj
 0001:00097bf0       ??_GCItemBagEx@@UAEPAXI@Z  00498bf0 f i ItemBagEx.obj
 0001:00097c20       ?Init@CItemBagEx@@QAEXPAD@Z 00498c20 f   ItemBagEx.obj
 0001:00097f70       ?Init@ItemPrice@@QAEXXZ    00498f70 f   ItemPrice.obj
 0001:00097fb0       ?ReadList@ItemPrice@@QAEXPAD@Z 00498fb0 f   ItemPrice.obj
 0001:00098110       ?Load@ItemPrice@@QAEXXZ    00499110 f   ItemPrice.obj
 0001:00098130       ?CheckItem@ItemPrice@@QAE_NFEPA_JPAH@Z 00499130 f   ItemPrice.obj
 0001:000981b0       ?CheckItem@ItemPrice@@QAE_NFE@Z 004991b0 f   ItemPrice.obj
 0001:00098200       ??0ItemPrice@@QAE@XZ       00499200 f   ItemPrice.obj
 0001:00098210       ??1CSeedItem@@UAE@XZ       00499210 f   ItemSeedSphere.obj
 0001:00098220       ?Clear@CSeedItem@@QAEXXZ   00499220 f   ItemSeedSphere.obj
 0001:00098240       ?SetOption@CSeedItem@@QAEXEEEEPAEH@Z 00499240 f   ItemSeedSphere.obj
 0001:00098310       ??0CSphereItem@@QAE@XZ     00499310 f   ItemSeedSphere.obj
 0001:00098320       ??1CSphereItem@@UAE@XZ     00499320 f   ItemSeedSphere.obj
 0001:00098330       ?Clear@CSphereItem@@QAEXXZ 00499330 f   ItemSeedSphere.obj
 0001:00098340       ??1CSeedSphereItem@@UAE@XZ 00499340 f   ItemSeedSphere.obj
 0001:00098350       ?Clear@CSeedSphereItem@@QAEXXZ 00499350 f   ItemSeedSphere.obj
 0001:00098360       ?SetOption@CSeedSphereItem@@QAE_NPAVCSeedItem@@E@Z 00499360 f   ItemSeedSphere.obj
 0001:00098480       ??0CSeedItem@@QAE@XZ       00499480 f   ItemSeedSphere.obj
 0001:00098490       ??_GCSeedItem@@UAEPAXI@Z   00499490 f i ItemSeedSphere.obj
 0001:00098490       ??_ECSeedItem@@UAEPAXI@Z   00499490 f i ItemSeedSphere.obj
 0001:000984c0       ??_ECSphereItem@@UAEPAXI@Z 004994c0 f i ItemSeedSphere.obj
 0001:000984c0       ??_GCSphereItem@@UAEPAXI@Z 004994c0 f i ItemSeedSphere.obj
 0001:000984f0       ??0CSeedSphereItem@@QAE@XZ 004994f0 f   ItemSeedSphere.obj
 0001:00098500       ??_ECSeedSphereItem@@UAEPAXI@Z 00499500 f i ItemSeedSphere.obj
 0001:00098500       ??_GCSeedSphereItem@@UAEPAXI@Z 00499500 f i ItemSeedSphere.obj
 0001:00098820       ??0CItemSocketOptionSystem@@QAE@XZ 00499820 f   ItemSocketOptionSystem.obj
 0001:000988d0       ??1CItemSocketOptionSystem@@UAE@XZ 004998d0 f   ItemSocketOptionSystem.obj
 0001:00098980       ?LoadCommonServerScript@CItemSocketOptionSystem@@QAEXXZ 00499980 f   ItemSocketOptionSystem.obj
 0001:00098e20       ?IsEnableSocketItem@CItemSocketOptionSystem@@QAE_NH@Z 00499e20 f   ItemSocketOptionSystem.obj
 0001:00098ea0       ?IsSeedItem@CItemSocketOptionSystem@@QAE_NH@Z 00499ea0 f   ItemSocketOptionSystem.obj
 0001:00098ec0       ?IsSphereItem@CItemSocketOptionSystem@@QAE_NH@Z 00499ec0 f   ItemSocketOptionSystem.obj
 0001:00098ee0       ?IsSeedSphereItem@CItemSocketOptionSystem@@QAE_NH@Z 00499ee0 f   ItemSocketOptionSystem.obj
 0001:00098f30       ?GetSeedIndex@CItemSocketOptionSystem@@QAEEHE@Z 00499f30 f   ItemSocketOptionSystem.obj
 0001:00098f70       ?GetSphereLevel@CItemSocketOptionSystem@@QAEEH@Z 00499f70 f   ItemSocketOptionSystem.obj
 0001:00098fc0       ?GetSeedSphereIndexForItemCode@CItemSocketOptionSystem@@QAEEGE@Z 00499fc0 f   ItemSocketOptionSystem.obj
 0001:00099020       ?IsEnableDropSocketItemMap@CItemSocketOptionSystem@@QAE_NH@Z 0049a020 f   ItemSocketOptionSystem.obj
 0001:00099040       ?GetSphereDropInfo@CItemSocketOptionSystem@@QAEHH@Z 0049a040 f   ItemSocketOptionSystem.obj
 0001:00099110       ?GetSeedData@CItemSocketOptionSystem@@QAEPAVCSeedItem@@E@Z 0049a110 f   ItemSocketOptionSystem.obj
 0001:00099140       ?GetExtractSeed@CItemSocketOptionSystem@@QAEEXZ 0049a140 f   ItemSocketOptionSystem.obj
 0001:00099150       ?GetSocketType@CItemSocketOptionSystem@@QAEEE@Z 0049a150 f   ItemSocketOptionSystem.obj
 0001:00099180       ?GetBonusSocketOption@CItemSocketOptionSystem@@QAEPAUBONUS_SOCKET_OPTION@@E@Z 0049a180 f   ItemSocketOptionSystem.obj
 0001:000991c0       ?_SetSetEffect@CItemSocketOptionSystem@@QAEXPAUOBJECTSTRUCT@@EEG@Z 0049a1c0 f   ItemSocketOptionSystem.obj
 0001:000991f0       ?CalcEffectValue@CItemSocketOptionSystem@@QAEHHGE@Z 0049a1f0 f   ItemSocketOptionSystem.obj
 0001:00099260       ?MakeSocketSlot@CItemSocketOptionSystem@@QAEXPAVCItem@@E@Z 0049a260 f   ItemSocketOptionSystem.obj
 0001:00099280       ?GetMakeSocketSlotCount@CItemSocketOptionSystem@@QAEEH@Z 0049a280 f   ItemSocketOptionSystem.obj
 0001:000992c0       ?Clear@SOCKET_OPTION_LIST@@QAEXXZ 0049a2c0 f   ItemSocketOptionSystem.obj
 0001:000992e0       ?Clear@BONUS_SOCKET_OPTION@@QAEXXZ 0049a2e0 f   ItemSocketOptionSystem.obj
 0001:00099300       ??_ECItemSocketOptionSystem@@UAEPAXI@Z 0049a300 f i ItemSocketOptionSystem.obj
 0001:00099300       ??_GCItemSocketOptionSystem@@UAEPAXI@Z 0049a300 f i ItemSocketOptionSystem.obj
 0001:00099330       ?Initialize@CItemSocketOptionSystem@@QAEXXZ 0049a330 f   ItemSocketOptionSystem.obj
 0001:00099400       ?LoadOptionScript@CItemSocketOptionSystem@@QAE_NPAD@Z 0049a400 f   ItemSocketOptionSystem.obj
 0001:00099cc0       ?IsEnableSocketItem@CItemSocketOptionSystem@@QAE_NPAVCItem@@@Z 0049acc0 f   ItemSocketOptionSystem.obj
 0001:00099d00       ?GetSocketOption@CItemSocketOptionSystem@@QAEXPAVCItem@@PAEAAE@Z 0049ad00 f   ItemSocketOptionSystem.obj
 0001:00099d70       ?IsSocketItem@CItemSocketOptionSystem@@QAE_NPAVCItem@@@Z 0049ad70 f   ItemSocketOptionSystem.obj
 0001:00099dc0       ?CheckItemForSameSeedType@CItemSocketOptionSystem@@QAE_NPAVCItem@@GE@Z 0049adc0 f   ItemSocketOptionSystem.obj
 0001:00099e40       ?GetSeedSphereValue@CItemSocketOptionSystem@@QAEJE@Z 0049ae40 f   ItemSocketOptionSystem.obj
 0001:00099f10       ?CheckSetSeedSphereItemType@CItemSocketOptionSystem@@QAE_NPAVCItem@@E@Z 0049af10 f   ItemSocketOptionSystem.obj
 0001:00099fa0       ?MakeSeedSphere@CItemSocketOptionSystem@@QAE_NPAVCSeedSphereItem@@EE@Z 0049afa0 f   ItemSocketOptionSystem.obj
 0001:00099fd0       ?SetClearSocketEffect@CItemSocketOptionSystem@@QAEXPAUOBJECTSTRUCT@@@Z 0049afd0 f   ItemSocketOptionSystem.obj
 0001:0009a060       ?_SetFireEffect@CItemSocketOptionSystem@@QAEXPAUOBJECTSTRUCT@@EEG@Z 0049b060 f   ItemSocketOptionSystem.obj
 0001:0009a290       ?_SetWaterEffect@CItemSocketOptionSystem@@QAEXPAUOBJECTSTRUCT@@EEG@Z 0049b290 f   ItemSocketOptionSystem.obj
 0001:0009a370       ?_SetIceEffect@CItemSocketOptionSystem@@QAEXPAUOBJECTSTRUCT@@EEG@Z 0049b370 f   ItemSocketOptionSystem.obj
 0001:0009a450       ?_SetWindEffect@CItemSocketOptionSystem@@QAEXPAUOBJECTSTRUCT@@EEG@Z 0049b450 f   ItemSocketOptionSystem.obj
 0001:0009a6d0       ?_SetThunderEffect@CItemSocketOptionSystem@@QAEXPAUOBJECTSTRUCT@@EEG@Z 0049b6d0 f   ItemSocketOptionSystem.obj
 0001:0009a780       ?_SetEarthEffect@CItemSocketOptionSystem@@QAEXPAUOBJECTSTRUCT@@EEG@Z 0049b780 f   ItemSocketOptionSystem.obj
 0001:0009a870       ?SetRequireStatOption@CItemSocketOptionSystem@@QAEXPAVCItem@@@Z 0049b870 f   ItemSocketOptionSystem.obj
 0001:0009a9d0       ?ClearUserData@CItemSocketOptionSystem@@QAEXPAUOBJECTSTRUCT@@@Z 0049b9d0 f   ItemSocketOptionSystem.obj
 0001:0009aa30       ?SetBonusSocketOption@CItemSocketOptionSystem@@QAE_NPAVCItem@@@Z 0049ba30 f   ItemSocketOptionSystem.obj
 0001:0009abc0       ?ClearSocketSlot@CItemSocketOptionSystem@@QAE_NPAVCItem@@E@Z 0049bbc0 f   ItemSocketOptionSystem.obj
 0001:0009ac10       ?SetEffect@CItemSocketOptionSystem@@QAEXPAUOBJECTSTRUCT@@EEEG@Z 0049bc10 f   ItemSocketOptionSystem.obj
 0001:0009ad40       ?SetSocketSlot@CItemSocketOptionSystem@@QAE_NPAVCItem@@EEE@Z 0049bd40 f   ItemSocketOptionSystem.obj
 0001:0009adb0       ?SetSocketSlot@CItemSocketOptionSystem@@QAE_NPAVCItem@@EE@Z 0049bdb0 f   ItemSocketOptionSystem.obj
 0001:0009ae10       ?ApplySeedSphereEffect@CItemSocketOptionSystem@@QAEHPAUOBJECTSTRUCT@@@Z 0049be10 f   ItemSocketOptionSystem.obj
 0001:0009af30       ?ApplyBonusOptionEffect@CItemSocketOptionSystem@@QAEXPAUOBJECTSTRUCT@@@Z 0049bf30 f   ItemSocketOptionSystem.obj
 0001:0009aff0       ?ApplySetOptionEffect@CItemSocketOptionSystem@@QAEXPAUOBJECTSTRUCT@@@Z 0049bff0 f   ItemSocketOptionSystem.obj
 0001:0009b0d0       ?SetApplySocketEffect@CItemSocketOptionSystem@@QAE_NPAUOBJECTSTRUCT@@@Z 0049c0d0 f   ItemSocketOptionSystem.obj
 0001:0009b120       ?DebugLog@@YAXPADZZ        0049c120 f i ItemSystemFor380.obj
 0001:0009b470       ??0CItemSystemFor380@@QAE@XZ 0049c470 f   ItemSystemFor380.obj
 0001:0009b490       ??1CItemSystemFor380@@UAE@XZ 0049c490 f   ItemSystemFor380.obj
 0001:0009b4a0       ?_InitOption@CItemSystemFor380@@AAEXXZ 0049c4a0 f   ItemSystemFor380.obj
 0001:0009b600       ?Load380ItemOptionInfo@CItemSystemFor380@@QAEHPAD@Z 0049c600 f   ItemSystemFor380.obj
 0001:0009b7c0       ?Is380Item@CItemSystemFor380@@QAEHPBVCItem@@@Z 0049c7c0 f   ItemSystemFor380.obj
 0001:0009b810       ?Is380OptionItem@CItemSystemFor380@@QAEHPBVCItem@@@Z 0049c810 f   ItemSystemFor380.obj
 0001:0009b840       ?InitEffectValue@CItemSystemFor380@@QAEXPAUITEMOPTION_FOR380ITEM_EFFECT@@@Z 0049c840 f   ItemSystemFor380.obj
 0001:0009b860       ?_CalcItemEffectValue@CItemSystemFor380@@AAEHHHPAUITEMOPTION_FOR380ITEM_EFFECT@@@Z 0049c860 f   ItemSystemFor380.obj
 0001:0009b9b0       ?_SetOption@CItemSystemFor380@@AAEHPAVCItem@@H@Z 0049c9b0 f   ItemSystemFor380.obj
 0001:0009b9f0       ?ChaosMix380ItemOption@CItemSystemFor380@@QAEHPAUOBJECTSTRUCT@@@Z 0049c9f0 f   ItemSystemFor380.obj
 0001:0009bdc0       ??_GCItemSystemFor380@@UAEPAXI@Z 0049cdc0 f i ItemSystemFor380.obj
 0001:0009bdc0       ??_ECItemSystemFor380@@UAEPAXI@Z 0049cdc0 f i ItemSystemFor380.obj
 0001:0009bdf0       ?ApplyFor380Option@CItemSystemFor380@@QAEHPAUOBJECTSTRUCT@@@Z 0049cdf0 f   ItemSystemFor380.obj
 0001:0009beb0       ?MixJewel@CJewelMixSystem@@SAHHHH@Z 0049ceb0 f   JewelMixSystem.obj
 0001:0009c320       ?UnMixJewel@CJewelMixSystem@@SAHHHHH@Z 0049d320 f   JewelMixSystem.obj
 0001:0009cb80       ?_InitOption@CJewelOfHarmonySystem@@QAEXXZ 0049db80 f   JewelOfHarmonySystem.obj
 0001:0009cd90       ?LoadScript@CJewelOfHarmonySystem@@QAEHPAD@Z 0049dd90 f   JewelOfHarmonySystem.obj
 0001:0009cf60       ?IsJewelOfHarmonyOriginal@CJewelOfHarmonySystem@@QAEHF@Z 0049df60 f   JewelOfHarmonySystem.obj
 0001:0009cf80       ?IsJewelOfHarmonyPurity@CJewelOfHarmonySystem@@QAEHF@Z 0049df80 f   JewelOfHarmonySystem.obj
 0001:0009cfa0       ?_IsJewelOfHarmonySmeltingItemNor@CJewelOfHarmonySystem@@QAEHF@Z 0049dfa0 f   JewelOfHarmonySystem.obj
 0001:0009cfc0       ?_IsJewelOfHarmonySmeltingItemExt@CJewelOfHarmonySystem@@QAEHF@Z 0049dfc0 f   JewelOfHarmonySystem.obj
 0001:0009cfe0       ?IsEnableToUsePuritySystem@CJewelOfHarmonySystem@@QAEHXZ 0049dfe0 f   JewelOfHarmonySystem.obj
 0001:0009cfe0       ?CheckEnableCrywolf@CCrywolfSync@@QAEHXZ 0049dfe0 f   CrywolfSync.obj
 0001:0009cff0       ?PurityJewelOfHarmony@CJewelOfHarmonySystem@@QAEXPAUOBJECTSTRUCT@@@Z 0049dff0 f   JewelOfHarmonySystem.obj
 0001:0009d270       ?GetItemStrengthenOption@CJewelOfHarmonySystem@@QAEEPAVCItem@@@Z 0049e270 f   JewelOfHarmonySystem.obj
 0001:0009d290       ?_GetItemOptionLevel@CJewelOfHarmonySystem@@QAEEPAVCItem@@@Z 0049e290 f   JewelOfHarmonySystem.obj
 0001:0009d2b0       ?IsStrengthenByJewelOfHarmony@CJewelOfHarmonySystem@@QAEHPAVCItem@@@Z 0049e2b0 f   JewelOfHarmonySystem.obj
 0001:0009d2d0       ?IsActive@CJewelOfHarmonySystem@@QAEHPAVCItem@@@Z 0049e2d0 f   JewelOfHarmonySystem.obj
 0001:0009d310       ?_GetItemType@CJewelOfHarmonySystem@@QAEHPAVCItem@@@Z 0049e310 f   JewelOfHarmonySystem.obj
 0001:0009d3b0       ?_GetSelectRandomOption@CJewelOfHarmonySystem@@QAEHPAVCItem@@H@Z 0049e3b0 f   JewelOfHarmonySystem.obj
 0001:0009d430       ?_MakeOption@CJewelOfHarmonySystem@@QAEHPAVCItem@@EE@Z 0049e430 f   JewelOfHarmonySystem.obj
 0001:0009d460       ?ShowStrengthenOption@CJewelOfHarmonySystem@@QAEEPAVCItem@@@Z 0049e460 f   JewelOfHarmonySystem.obj
 0001:0009d510       ?GetItemEffectValue@CJewelOfHarmonySystem@@QAEHPAVCItem@@H@Z 0049e510 f   JewelOfHarmonySystem.obj
 0001:0009d580       ?_CalcItemEffectValue@CJewelOfHarmonySystem@@QAEHPAVCItem@@PAUJEWELOFHARMONY_ITEM_EFFECT@@@Z 0049e580 f   JewelOfHarmonySystem.obj
 0001:0009d7a0       ?InitEffectValue@CJewelOfHarmonySystem@@QAEXPAUJEWELOFHARMONY_ITEM_EFFECT@@@Z 0049e7a0 f   JewelOfHarmonySystem.obj
 0001:0009d7d0       ?_GetZenForRestoreItem@CJewelOfHarmonySystem@@QAEHPAVCItem@@@Z 0049e7d0 f   JewelOfHarmonySystem.obj
 0001:0009d830       ?RestoreStrengthenItem@CJewelOfHarmonySystem@@QAEHPAUOBJECTSTRUCT@@@Z 0049e830 f   JewelOfHarmonySystem.obj
 0001:0009da40       ?NpcJewelOfHarmony@CJewelOfHarmonySystem@@QAEHPAUOBJECTSTRUCT@@0@Z 0049ea40 f   JewelOfHarmonySystem.obj
 0001:0009dcd0       ?IsEnableToTrade@CJewelOfHarmonySystem@@QAEHPAUOBJECTSTRUCT@@@Z 0049ecd0 f   JewelOfHarmonySystem.obj
 0001:0009dd40       ?IsJewelOfHarmonySmeltingItems@CJewelOfHarmonySystem@@QAEHF@Z 0049ed40 f   JewelOfHarmonySystem.obj
 0001:0009dd80       ?GetItemOptionLevel@CJewelOfHarmonySystem@@QAEEPAVCItem@@@Z 0049ed80 f   JewelOfHarmonySystem.obj
 0001:0009dd90       ?_GetItemOptionRequireLevel@CJewelOfHarmonySystem@@QAEEPAVCItem@@@Z 0049ed90 f   JewelOfHarmonySystem.obj
 0001:0009dde0       ?StrengthenItemByJewelOfRise@CJewelOfHarmonySystem@@QAEHPAUOBJECTSTRUCT@@HH@Z 0049ede0 f   JewelOfHarmonySystem.obj
 0001:0009e130       ?StrengthenItemByJewelOfHarmony@CJewelOfHarmonySystem@@QAEHPAUOBJECTSTRUCT@@HH@Z 0049f130 f   JewelOfHarmonySystem.obj
 0001:0009e4b0       ?SetApplyStrengthenItem@CJewelOfHarmonySystem@@QAEXPAUOBJECTSTRUCT@@@Z 0049f4b0 f   JewelOfHarmonySystem.obj
 0001:0009e5d0       ?SmeltItemBySmeltingStone@CJewelOfHarmonySystem@@QAEHPAUOBJECTSTRUCT@@HH@Z 0049f5d0 f   JewelOfHarmonySystem.obj
 0001:0009e8e0       ?IsEnableToMakeSmeltingStoneItem@CJewelOfHarmonySystem@@QAEHPAVCItem@@@Z 0049f8e0 f   JewelOfHarmonySystem.obj
 0001:0009e960       ?MakeSmeltingStoneItem@CJewelOfHarmonySystem@@QAEHPAUOBJECTSTRUCT@@@Z 0049f960 f   JewelOfHarmonySystem.obj
 0001:0009ec60       ??1CJewelOfHarmonySystem@@UAE@XZ 0049fc60 f   JewelOfHarmonySystem.obj
 0001:0009ecf0       ??0CJewelOfHarmonySystem@@QAE@XZ 0049fcf0 f   JewelOfHarmonySystem.obj
 0001:0009edd0       ??_GCJewelOfHarmonySystem@@UAEPAXI@Z 0049fdd0 f i JewelOfHarmonySystem.obj
 0001:0009edd0       ??_ECJewelOfHarmonySystem@@UAEPAXI@Z 0049fdd0 f i JewelOfHarmonySystem.obj
 0001:0009ee00       ?LoadScriptOfSmelt@CJewelOfHarmonySystem@@QAEHPAD@Z 0049fe00 f   JewelOfHarmonySystem.obj
 0001:0009ef10       ??0CKalimaGate@@QAE@XZ     0049ff10 f   KalimaGate.obj
 0001:0009ef30       ??1CKalimaGate@@UAE@XZ     0049ff30 f   KalimaGate.obj
 0001:0009ef50       ?CheckOverlapKundunMark@CKalimaGate@@QAEHHE@Z 0049ff50 f   KalimaGate.obj
 0001:0009eff0       ?GetRandomLocation@CKalimaGate@@AAEHHAAE0@Z 0049fff0 f   KalimaGate.obj
 0001:0009f0c0       ?DeleteKalimaGate@CKalimaGate@@QAEHHH@Z 004a00c0 f   KalimaGate.obj
 0001:0009f200       ?DeleteKalimaGate@CKalimaGate@@QAEHH@Z 004a0200 f   KalimaGate.obj
 0001:0009f2a0       ?CreateKalimaGate2@CKalimaGate@@QAEHHHEE@Z 004a02a0 f   KalimaGate.obj
 0001:0009f750       ?KalimaGateAct2@CKalimaGate@@QAEXH@Z 004a0750 f   KalimaGate.obj
 0001:0009fa50       ?GetKalimaGateLevel2@CKalimaGate@@QAEHH@Z 004a0a50 f   KalimaGate.obj
 0001:0009fa50       ?GetKalimaGateLevel@CKalimaGate@@AAEHH@Z 004a0a50 f   KalimaGate.obj
 0001:0009fad0       ??_GCKalimaGate@@UAEPAXI@Z 004a0ad0 f i KalimaGate.obj
 0001:0009fad0       ??_ECKalimaGate@@UAEPAXI@Z 004a0ad0 f i KalimaGate.obj
 0001:0009fb00       ?CreateKalimaGate@CKalimaGate@@QAEHHEEE@Z 004a0b00 f   KalimaGate.obj
 0001:000a0140       ?KalimaGateAct@CKalimaGate@@QAEXH@Z 004a1140 f   KalimaGate.obj
 0001:000a04b0       ?IsTimeOut@CKanturuStateInfo@@QAEHXZ 004a14b0 f i Kanturu.obj
 0001:000a07e0       ??0CKanturu@@QAE@XZ        004a17e0 f   Kanturu.obj
 0001:000a08b0       ??1CKanturu@@UAE@XZ        004a18b0 f   Kanturu.obj
 0001:000a0970       ?LoadKanturuMapAttr@CKanturu@@QAEXPADE@Z 004a1970 f   Kanturu.obj
 0001:000a09b0       ?SetState_NONE@CKanturu@@QAEXXZ 004a19b0 f   Kanturu.obj
 0001:000a09d0       ?SetState_BATTLE_STANDBY@CKanturu@@QAEXXZ 004a19d0 f   Kanturu.obj
 0001:000a0a10       ?SetState_BATTLE_OF_MAYA@CKanturu@@QAEXXZ 004a1a10 f   Kanturu.obj
 0001:000a0a40       ?SetState_BATTLE_OF_NIGHTMARE@CKanturu@@QAEXXZ 004a1a40 f   Kanturu.obj
 0001:000a0a70       ?SetState_END@CKanturu@@QAEXXZ 004a1a70 f   Kanturu.obj
 0001:000a0aa0       ?GetKanturuDetailState@CKanturu@@QAEHXZ 004a1aa0 f   Kanturu.obj
 0001:000a0ae0       ?GetRemainTime@CKanturu@@QAEHXZ 004a1ae0 f   Kanturu.obj
 0001:000a0b30       ?KanturuMonsterDieProc@CKanturu@@QAEXHH@Z 004a1b30 f   Kanturu.obj
 0001:000a0b50       ?CheckUserOnKanturuBossMap@CKanturu@@QAEXXZ 004a1b50 f   Kanturu.obj
 0001:000a0bf0       ?CheckCanEnterKanturuBattle@CKanturu@@QAEHXZ 004a1bf0 f   Kanturu.obj
 0001:000a0c20       ?CheckEqipmentMoonStone@CKanturu@@QAEHH@Z 004a1c20 f   Kanturu.obj
 0001:000a0ce0       ??_GCKanturu@@UAEPAXI@Z    004a1ce0 f i Kanturu.obj
 0001:000a0ce0       ??_ECKanturu@@UAEPAXI@Z    004a1ce0 f i Kanturu.obj
 0001:000a0d10       ?ResetAllData@CKanturuTowerOfRefinement@@QAEXXZ 004a1d10 f   KanturuTowerOfRefinement.obj
 0001:000a0d10       ?ResetAllData@CKanturu@@QAEXXZ 004a1d10 f   Kanturu.obj
 0001:000a0d60       ?LoadData@CKanturu@@QAEHPAD@Z 004a1d60 f   Kanturu.obj
 0001:000a1080       ?SetKanturuMapAttr@CKanturu@@QAEXE@Z 004a2080 f   Kanturu.obj
 0001:000a10e0       ?SetState_TOWER_OF_REFINEMENT@CKanturu@@QAEXXZ 004a20e0 f   Kanturu.obj
 0001:000a1120       ?CheckEnterKanturu@CKanturu@@QAEHH@Z 004a2120 f   Kanturu.obj
 0001:000a1630       ?SetState@CKanturu@@QAEXH@Z 004a2630 f   Kanturu.obj
 0001:000a16e0       ?SetNextState@CKanturu@@QAEXH@Z 004a26e0 f   Kanturu.obj
 0001:000a1700       ?ProcState_NONE@CKanturu@@QAEXXZ 004a2700 f   Kanturu.obj
 0001:000a1710       ?ProcState_BATTLE_STANDBY@CKanturu@@QAEXXZ 004a2710 f   Kanturu.obj
 0001:000a1740       ?ProcState_BATTLE_OF_MAYA@CKanturu@@QAEXXZ 004a2740 f   Kanturu.obj
 0001:000a1780       ?ProcState_BATTLE_OF_NIGHTMARE@CKanturu@@QAEXXZ 004a2780 f   Kanturu.obj
 0001:000a17c0       ?ProcState_TOWER_OF_REFINEMENT@CKanturu@@QAEXXZ 004a27c0 f   Kanturu.obj
 0001:000a17f0       ?ProcState_END@CKanturu@@QAEXXZ 004a27f0 f   Kanturu.obj
 0001:000a1800       ?CheckStateTime@CKanturu@@QAEXXZ 004a2800 f   Kanturu.obj
 0001:000a1830       ?Run@CKanturu@@QAEXXZ      004a2830 f   Kanturu.obj
 0001:000a1b90       ??1CKanturuBattleOfMaya@@UAE@XZ 004a2b90 f   KanturuBattleOfMaya.obj
 0001:000a1c10       ?SetState_NONE@CKanturuBattleOfMaya@@QAEXXZ 004a2c10 f   KanturuBattleOfMaya.obj
 0001:000a1c40       ?SetState_STANBY1@CKanturuBattleOfMaya@@QAEXXZ 004a2c40 f   KanturuBattleOfMaya.obj
 0001:000a1c90       ?SetState_NOTIFY1@CKanturuBattleOfMaya@@QAEXXZ 004a2c90 f   KanturuBattleOfMaya.obj
 0001:000a1cc0       ?SetState_START1@CKanturuBattleOfMaya@@QAEXXZ 004a2cc0 f   KanturuBattleOfMaya.obj
 0001:000a1d40       ?SetState_END_MAYA1@CKanturuBattleOfMaya@@QAEXXZ 004a2d40 f   KanturuBattleOfMaya.obj
 0001:000a1d90       ?SetState_ENDCYCLE_MAYA1@CKanturuBattleOfMaya@@QAEXXZ 004a2d90 f   KanturuBattleOfMaya.obj
 0001:000a1de0       ?SetState_STANBY2@CKanturuBattleOfMaya@@QAEXXZ 004a2de0 f   KanturuBattleOfMaya.obj
 0001:000a1e10       ?SetState_START2@CKanturuBattleOfMaya@@QAEXXZ 004a2e10 f   KanturuBattleOfMaya.obj
 0001:000a1ea0       ?SetState_END_MAYA2@CKanturuBattleOfMaya@@QAEXXZ 004a2ea0 f   KanturuBattleOfMaya.obj
 0001:000a1ef0       ?SetState_ENDCYCLE_MAYA2@CKanturuBattleOfMaya@@QAEXXZ 004a2ef0 f   KanturuBattleOfMaya.obj
 0001:000a1f40       ?SetState_STANBY3@CKanturuBattleOfMaya@@QAEXXZ 004a2f40 f   KanturuBattleOfMaya.obj
 0001:000a1f70       ?SetState_START3@CKanturuBattleOfMaya@@QAEXXZ 004a2f70 f   KanturuBattleOfMaya.obj
 0001:000a1ff0       ?SetState_END_MAYA3@CKanturuBattleOfMaya@@QAEXXZ 004a2ff0 f   KanturuBattleOfMaya.obj
 0001:000a2040       ?SetState_ENDCYCLE_MAYA3@CKanturuBattleOfMaya@@QAEXXZ 004a3040 f   KanturuBattleOfMaya.obj
 0001:000a2070       ?SetState_END@CKanturuBattleOfMaya@@QAEXXZ 004a3070 f   KanturuBattleOfMaya.obj
 0001:000a2100       ?SetState_ENDCYCLE@CKanturuBattleOfMaya@@QAEXXZ 004a3100 f   KanturuBattleOfMaya.obj
 0001:000a2160       ?GetRemainTime@CKanturuBattleOfMaya@@QAEHXZ 004a3160 f   KanturuBattleOfMaya.obj
 0001:000a21a0       ?SetAIMonsterGroup@CKanturuBattleOfMaya@@QAEXH@Z 004a31a0 f   KanturuBattleOfMaya.obj
 0001:000a21d0       ?ResetAIMonster@CKanturuBattleOfMaya@@QAEXXZ 004a31d0 f   KanturuBattleOfMaya.obj
 0001:000a2260       ?ChangeAI@CKanturuBattleOfMaya@@QAEXH@Z 004a3260 f   KanturuBattleOfMaya.obj
 0001:000a22c0       ??_GCKanturuBattleOfMaya@@UAEPAXI@Z 004a32c0 f i KanturuBattleOfMaya.obj
 0001:000a22c0       ??_ECKanturuBattleOfMaya@@UAEPAXI@Z 004a32c0 f i KanturuBattleOfMaya.obj
 0001:000a22f0       ?ResetAllData@CKanturuBattleOfMaya@@QAEXXZ 004a32f0 f   KanturuBattleOfMaya.obj
 0001:000a2370       ?LoadData@CKanturuBattleOfMaya@@QAEHPAD@Z 004a3370 f   KanturuBattleOfMaya.obj
 0001:000a27f0       ?SetState_MAYA1@CKanturuBattleOfMaya@@QAEXXZ 004a37f0 f   KanturuBattleOfMaya.obj
 0001:000a2870       ?SetState_MAYA2@CKanturuBattleOfMaya@@QAEXXZ 004a3870 f   KanturuBattleOfMaya.obj
 0001:000a28f0       ?SetState_MAYA3@CKanturuBattleOfMaya@@QAEXXZ 004a38f0 f   KanturuBattleOfMaya.obj
 0001:000a2980       ??0CKanturuBattleOfMaya@@QAE@XZ 004a3980 f   KanturuBattleOfMaya.obj
 0001:000a2a80       ?SetState@CKanturuBattleOfMaya@@QAEXH@Z 004a3a80 f   KanturuBattleOfMaya.obj
 0001:000a2bf0       ?SetNextState@CKanturuBattleOfMaya@@QAEXH@Z 004a3bf0 f   KanturuBattleOfMaya.obj
 0001:000a2c10       ?ProcState_MAYA1@CKanturuBattleOfMaya@@QAEXXZ 004a3c10 f   KanturuBattleOfMaya.obj
 0001:000a2d00       ?ProcState_MAYA2@CKanturuBattleOfMaya@@QAEXXZ 004a3d00 f   KanturuBattleOfMaya.obj
 0001:000a2df0       ?ProcState_START3@CKanturuBattleOfMaya@@QAEXXZ 004a3df0 f   KanturuBattleOfMaya.obj
 0001:000a2df0       ?ProcState_START1@CKanturuBattleOfMaya@@QAEXXZ 004a3df0 f   KanturuBattleOfMaya.obj
 0001:000a2df0       ?ProcState_START2@CKanturuBattleOfMaya@@QAEXXZ 004a3df0 f   KanturuBattleOfMaya.obj
 0001:000a2e60       ?ProcState_MAYA3@CKanturuBattleOfMaya@@QAEXXZ 004a3e60 f   KanturuBattleOfMaya.obj
 0001:000a2f60       ?CheckStateTime@CKanturuBattleOfMaya@@QAEHXZ 004a3f60 f   KanturuBattleOfMaya.obj
 0001:000a3000       ?CheckMayaBattleUser@CKanturuBattleOfMaya@@QAEXXZ 004a4000 f   KanturuBattleOfMaya.obj
 0001:000a3070       ?Run@CKanturuBattleOfMaya@@QAEXXZ 004a4070 f   KanturuBattleOfMaya.obj
 0001:000a3400       ??1CKanturuBattleOfNightmare@@UAE@XZ 004a4400 f   KanturuBattleOfNightmare.obj
 0001:000a3420       ?SetState_NONE@CKanturuBattleOfNightmare@@QAEXXZ 004a4420 f   KanturuBattleOfNightmare.obj
 0001:000a3460       ?SetState_IDLE@CKanturuBattleOfNightmare@@QAEXXZ 004a4460 f   KanturuBattleOfNightmare.obj
 0001:000a34c0       ?SetState_NOTIFY@CKanturuBattleOfNightmare@@QAEXXZ 004a44c0 f   KanturuBattleOfNightmare.obj
 0001:000a34e0       ?SetState_START@CKanturuBattleOfNightmare@@QAEXXZ 004a44e0 f   KanturuBattleOfNightmare.obj
 0001:000a3560       ?SetState_END@CKanturuBattleOfNightmare@@QAEXXZ 004a4560 f   KanturuBattleOfNightmare.obj
 0001:000a35c0       ?SetState_ENDCYCLE@CKanturuBattleOfNightmare@@QAEXXZ 004a45c0 f   KanturuBattleOfNightmare.obj
 0001:000a3630       ?ProcState_ENDCYCLE@CKanturuBattleOfNightmare@@QAEXXZ 004a4630 f   KanturuBattleOfNightmare.obj
 0001:000a3650       ?GetRemainTime@CKanturuBattleStanby@@QAEHXZ 004a4650 f   KanturuBattleStanby.obj
 0001:000a3650       ?GetRemainTime@CKanturuBattleOfNightmare@@QAEHXZ 004a4650 f   KanturuBattleOfNightmare.obj
 0001:000a3690       ??_ECKanturuBattleOfNightmare@@UAEPAXI@Z 004a4690 f i KanturuBattleOfNightmare.obj
 0001:000a3690       ??_GCKanturuBattleOfNightmare@@UAEPAXI@Z 004a4690 f i KanturuBattleOfNightmare.obj
 0001:000a36c0       ?ResetAllData@CKanturuBattleOfNightmare@@QAEXXZ 004a46c0 f   KanturuBattleOfNightmare.obj
 0001:000a3710       ?LoadData@CKanturuBattleOfNightmare@@QAEHPAD@Z 004a4710 f   KanturuBattleOfNightmare.obj
 0001:000a39e0       ?SetState@CKanturuBattleOfNightmare@@QAEXH@Z 004a49e0 f   KanturuBattleOfNightmare.obj
 0001:000a3aa0       ?SetNextState@CKanturuBattleOfNightmare@@QAEXH@Z 004a4aa0 f   KanturuBattleOfNightmare.obj
 0001:000a3ac0       ?ProcState_START@CKanturuBattleOfNightmare@@QAEXXZ 004a4ac0 f   KanturuBattleOfNightmare.obj
 0001:000a3b40       ?CheckStateTime@CKanturuBattleOfNightmare@@QAEXXZ 004a4b40 f   KanturuBattleOfNightmare.obj
 0001:000a3b70       ?CheckNightmareBattleUser@CKanturuBattleOfNightmare@@QAEXXZ 004a4b70 f   KanturuBattleOfNightmare.obj
 0001:000a3bc0       ??0CKanturuBattleOfNightmare@@QAE@XZ 004a4bc0 f   KanturuBattleOfNightmare.obj
 0001:000a3c10       ?Run@CKanturuBattleOfNightmare@@QAEXXZ 004a4c10 f   KanturuBattleOfNightmare.obj
 0001:000a3f60       ??1CKanturuBattleStanby@@UAE@XZ 004a4f60 f   KanturuBattleStanby.obj
 0001:000a3f80       ?SetState_NONE@CKanturuBattleStanby@@QAEXXZ 004a4f80 f   KanturuBattleStanby.obj
 0001:000a3fa0       ?SetState_START@CKanturuBattleStanby@@QAEXXZ 004a4fa0 f   KanturuBattleStanby.obj
 0001:000a3fc0       ?SetState_NOTIFY@CKanturuBattleStanby@@QAEXXZ 004a4fc0 f   KanturuBattleStanby.obj
 0001:000a4000       ?SetState_END@CKanturuBattleStanby@@QAEXXZ 004a5000 f   KanturuBattleStanby.obj
 0001:000a4020       ??_ECKanturuBattleStanby@@UAEPAXI@Z 004a5020 f i KanturuBattleStanby.obj
 0001:000a4020       ??_GCKanturuBattleStanby@@UAEPAXI@Z 004a5020 f i KanturuBattleStanby.obj
 0001:000a4050       ?ResetAllData@CKanturuBattleStanby@@QAEXXZ 004a5050 f   KanturuBattleStanby.obj
 0001:000a4080       ?LoadData@CKanturuBattleStanby@@QAEHPAD@Z 004a5080 f   KanturuBattleStanby.obj
 0001:000a42e0       ?SetState@CKanturuBattleStanby@@QAEXH@Z 004a52e0 f   KanturuBattleStanby.obj
 0001:000a43a0       ?SetNextState@CKanturuBattleStanby@@QAEXH@Z 004a53a0 f   KanturuBattleStanby.obj
 0001:000a43c0       ?CheckStateTime@CKanturuBattleStanby@@QAEXXZ 004a53c0 f   KanturuBattleStanby.obj
 0001:000a43f0       ??0CKanturuBattleStanby@@QAE@XZ 004a53f0 f   KanturuBattleStanby.obj
 0001:000a4430       ?Run@CKanturuBattleStanby@@QAEXXZ 004a5430 f   KanturuBattleStanby.obj
 0001:000a4440       ??1CKanturuBattleUser@@UAE@XZ 004a5440 f i KanturuBattleUserMng.obj
 0001:000a4450       ??_GCKanturuBattleUser@@UAEPAXI@Z 004a5450 f i KanturuBattleUserMng.obj
 0001:000a4450       ??_ECKanturuBattleUser@@UAEPAXI@Z 004a5450 f i KanturuBattleUserMng.obj
 0001:000a4480       ??1CKanturuBattleUserMng@@UAE@XZ 004a5480 f   KanturuBattleUserMng.obj
 0001:000a44a0       ?DeleteUserData@CKanturuBattleUserMng@@QAEHH@Z 004a54a0 f   KanturuBattleUserMng.obj
 0001:000a4550       ?CheckUserState@CKanturuBattleUserMng@@QAEXXZ 004a5550 f   KanturuBattleUserMng.obj
 0001:000a4620       ?MoveAllUser@CKanturuBattleUserMng@@QAEHH@Z 004a5620 f   KanturuBattleUserMng.obj
 0001:000a46d0       ?SetMaxUser@CKanturuBattleUserMng@@QAEXH@Z 004a56d0 f   KanturuBattleUserMng.obj
 0001:000a4700       ?GetUserCount@CKanturuBattleUserMng@@QAEHXZ 004a5700 f   KanturuBattleUserMng.obj
 0001:000a4710       ?IsEmpty@CKanturuBattleUserMng@@QAEHXZ 004a5710 f   KanturuBattleUserMng.obj
 0001:000a4720       ?IsOverMaxUser@CKanturuBattleUserMng@@QAEHXZ 004a5720 f   KanturuBattleUserMng.obj
 0001:000a4730       ?LogBattleWinnerUserInfo@CKanturuBattleUserMng@@QAEXEH@Z 004a5730 f   KanturuBattleUserMng.obj
 0001:000a47b0       ??0CKanturuBattleUser@@QAE@XZ 004a57b0 f i KanturuBattleUserMng.obj
 0001:000a47d0       ??_GCKanturuBattleUserMng@@UAEPAXI@Z 004a57d0 f i KanturuBattleUserMng.obj
 0001:000a47d0       ??_ECKanturuBattleUserMng@@UAEPAXI@Z 004a57d0 f i KanturuBattleUserMng.obj
 0001:000a4800       ?ResetAllData@CKanturuBattleUserMng@@QAEXXZ 004a5800 f   KanturuBattleUserMng.obj
 0001:000a4830       ?AddUserData@CKanturuBattleUserMng@@QAEHH@Z 004a5830 f   KanturuBattleUserMng.obj
 0001:000a48f0       ??0CKanturuBattleUserMng@@QAE@XZ 004a58f0 f   KanturuBattleUserMng.obj
 0001:000a4960       ??0CKanturuEntranceNPC@@QAE@XZ 004a5960 f   KanturuEntranceNPC.obj
 0001:000a4970       ??1CKanturuEntranceNPC@@UAE@XZ 004a5970 f   KanturuEntranceNPC.obj
 0001:000a4980       ?NotifyEntranceInfo@CKanturuEntranceNPC@@QAEXH@Z 004a5980 f   KanturuEntranceNPC.obj
 0001:000a4a20       ?NotifyResultEnterKanturuBossMap@CKanturuEntranceNPC@@QAEXH@Z 004a5a20 f   KanturuEntranceNPC.obj
 0001:000a4c10       ??_GCKanturuEntranceNPC@@UAEPAXI@Z 004a5c10 f i KanturuEntranceNPC.obj
 0001:000a4c10       ??_ECKanturuEntranceNPC@@UAEPAXI@Z 004a5c10 f i KanturuEntranceNPC.obj
 0001:000a4c40       ??1CKanturuMaya@@UAE@XZ    004a5c40 f   KanturuMaya.obj
 0001:000a4c50       ?Init@CKanturuMaya@@QAEXXZ 004a5c50 f   KanturuMaya.obj
 0001:000a4c60       ?KanturuMayaAct_IceStorm@CKanturuMaya@@QAEXH@Z 004a5c60 f   KanturuMaya.obj
 0001:000a4d30       ?KanturuMayaAct_Hands@CKanturuMaya@@QAEXXZ 004a5d30 f   KanturuMaya.obj
 0001:000a4ed0       ??0CKanturuMaya@@QAE@XZ    004a5ed0 f   KanturuMaya.obj
 0001:000a4ee0       ??_ECKanturuMaya@@UAEPAXI@Z 004a5ee0 f i KanturuMaya.obj
 0001:000a4ee0       ??_GCKanturuMaya@@UAEPAXI@Z 004a5ee0 f i KanturuMaya.obj
 0001:000a4f10       ??1CKanturuObjInfo@@UAE@XZ 004a5f10 f i KanturuMonsterMng.obj
 0001:000a4f20       ?AddObj@CKanturuObjInfo@@QAEHH@Z 004a5f20 f i KanturuMonsterMng.obj
 0001:000a4f50       ??_ECKanturuObjInfo@@UAEPAXI@Z 004a5f50 f i KanturuMonsterMng.obj
 0001:000a4f50       ??_GCKanturuObjInfo@@UAEPAXI@Z 004a5f50 f i KanturuMonsterMng.obj
 0001:000a5270       ??1CKanturuMonsterMng@@UAE@XZ 004a6270 f   KanturuMonsterMng.obj
 0001:000a5290       ?ResetLoadData@CKanturuMonsterMng@@QAEXXZ 004a6290 f   KanturuMonsterMng.obj
 0001:000a52c0       ?ResetRegenMonsterObjData@CKanturuMonsterMng@@QAEXXZ 004a62c0 f   KanturuMonsterMng.obj
 0001:000a5340       ?MonsterDie@CKanturuMonsterMng@@QAEXH@Z 004a6340 f   KanturuMonsterMng.obj
 0001:000a5380       ?SetMonsterSetBaseInfo@CKanturuMonsterMng@@QAEXHEGEEEEE@Z 004a6380 f   KanturuMonsterMng.obj
 0001:000a53c0       ?GetPosition@CKanturuMonsterMng@@QAEHHFAAF0@Z 004a63c0 f   KanturuMonsterMng.obj
 0001:000a54b0       ?IsExistAliveMonster@CKanturuMonsterMng@@QAEHXZ 004a64b0 f   KanturuMonsterMng.obj
 0001:000a54c0       ??0CKanturuMonsterMng@@QAE@XZ 004a64c0 f   KanturuMonsterMng.obj
 0001:000a5540       ??_GCKanturuMonsterMng@@UAEPAXI@Z 004a6540 f i KanturuMonsterMng.obj
 0001:000a5540       ??_ECKanturuMonsterMng@@UAEPAXI@Z 004a6540 f i KanturuMonsterMng.obj
 0001:000a5570       ?LoadData@CKanturuMonsterMng@@QAEHPAD@Z 004a6570 f   KanturuMonsterMng.obj
 0001:000a58d0       ?SetKanturuMonster@CKanturuMonsterMng@@QAEHH@Z 004a68d0 f   KanturuMonsterMng.obj
 0001:000a5b30       ??1CKanturuStateInfo@@UAE@XZ 004a6b30 f   KanturuStateInfo.obj
 0001:000a5b40       ??0CKanturuStateInfo@@QAE@XZ 004a6b40 f   KanturuStateInfo.obj
 0001:000a5b60       ??_GCKanturuStateInfo@@UAEPAXI@Z 004a6b60 f i KanturuStateInfo.obj
 0001:000a5b60       ??_ECKanturuStateInfo@@UAEPAXI@Z 004a6b60 f i KanturuStateInfo.obj
 0001:000a5e80       ??0CKanturuTowerOfRefinement@@QAE@XZ 004a6e80 f   KanturuTowerOfRefinement.obj
 0001:000a5ec0       ??1CKanturuTowerOfRefinement@@UAE@XZ 004a6ec0 f   KanturuTowerOfRefinement.obj
 0001:000a5ee0       ?SetState_NONE@CKanturuTowerOfRefinement@@QAEXXZ 004a6ee0 f   KanturuTowerOfRefinement.obj
 0001:000a5f10       ?SetState_REVITALIZATION@CKanturuTowerOfRefinement@@QAEXXZ 004a6f10 f   KanturuTowerOfRefinement.obj
 0001:000a5f40       ?SetState_NOTIFY1@CKanturuTowerOfRefinement@@QAEXXZ 004a6f40 f   KanturuTowerOfRefinement.obj
 0001:000a5f90       ?SetState_CLOSE@CKanturuTowerOfRefinement@@QAEXXZ 004a6f90 f   KanturuTowerOfRefinement.obj
 0001:000a5fe0       ?SetState_NOTIFY2@CKanturuTowerOfRefinement@@QAEXXZ 004a6fe0 f   KanturuTowerOfRefinement.obj
 0001:000a6010       ?SetState_END@CKanturuTowerOfRefinement@@QAEXXZ 004a7010 f   KanturuTowerOfRefinement.obj
 0001:000a60a0       ?GetRemainTime@CKanturuTowerOfRefinement@@QAEHXZ 004a70a0 f   KanturuTowerOfRefinement.obj
 0001:000a60e0       ??_ECKanturuTowerOfRefinement@@UAEPAXI@Z 004a70e0 f i KanturuTowerOfRefinement.obj
 0001:000a60e0       ??_GCKanturuTowerOfRefinement@@UAEPAXI@Z 004a70e0 f i KanturuTowerOfRefinement.obj
 0001:000a6110       ?LoadData@CKanturuTowerOfRefinement@@QAEHPAD@Z 004a7110 f   KanturuTowerOfRefinement.obj
 0001:000a6370       ?SetState@CKanturuTowerOfRefinement@@QAEXH@Z 004a7370 f   KanturuTowerOfRefinement.obj
 0001:000a6410       ?SetNextState@CKanturuTowerOfRefinement@@QAEXH@Z 004a7410 f   KanturuTowerOfRefinement.obj
 0001:000a6430       ?CheckStateTime@CKanturuTowerOfRefinement@@QAEXXZ 004a7430 f   KanturuTowerOfRefinement.obj
 0001:000a6460       ?Run@CKanturuTowerOfRefinement@@QAEXXZ 004a7460 f   KanturuTowerOfRefinement.obj
 0001:000a6470       ??0CKanturuUtil@@QAE@XZ    004a7470 f   KanturuUtil.obj
 0001:000a6480       ??1CKanturuUtil@@UAE@XZ    004a7480 f   KanturuUtil.obj
 0001:000a6490       ?NotifyKanturuEntranceReqResult@CKanturuUtil@@QAEXHH@Z 004a7490 f   KanturuUtil.obj
 0001:000a64d0       ?NotifyKanturuCurrentState@CKanturuUtil@@QAEXHHH@Z 004a74d0 f   KanturuUtil.obj
 0001:000a6520       ?SendMsgKanturuBattleUser@CKanturuUtil@@QAAXPADZZ 004a7520 f   KanturuUtil.obj
 0001:000a65e0       ?SendDataKanturuBattleUser@CKanturuUtil@@QAEXPAEH@Z 004a75e0 f   KanturuUtil.obj
 0001:000a6640       ?SendDataKanturuBossMapUser@CKanturuUtil@@QAEXPAEH@Z 004a7640 f   KanturuUtil.obj
 0001:000a66a0       ?SendMsgKauturuMapUser@CKanturuUtil@@QAAXPADZZ 004a76a0 f   KanturuUtil.obj
 0001:000a6770       ?SendDataToUser@CKanturuUtil@@QAEXHPAEH@Z 004a7770 f   KanturuUtil.obj
 0001:000a67b0       ??_ECKanturuUtil@@UAEPAXI@Z 004a77b0 f i KanturuUtil.obj
 0001:000a67b0       ??_GCKanturuUtil@@UAEPAXI@Z 004a77b0 f i KanturuUtil.obj
 0001:000a67e0       ?NotifyKanturuChangeState@CKanturuUtil@@QAEXHH@Z 004a77e0 f   KanturuUtil.obj
 0001:000a6830       ?NotifyKanturuSuccessValue@CKanturuUtil@@QAEXH@Z 004a7830 f   KanturuUtil.obj
 0001:000a6870       ?NotifyKanturuBattleTime@CKanturuUtil@@QAEXH@Z 004a7870 f   KanturuUtil.obj
 0001:000a68b0       ?NotifyKanturuWideAreaAttack@CKanturuUtil@@QAEXHHH@Z 004a78b0 f   KanturuUtil.obj
 0001:000a6910       ?NotifyKanturuUserMonsterCount@CKanturuUtil@@QAEXHH@Z 004a7910 f   KanturuUtil.obj
 0001:000a6950       ??0CLargeRand@@QAE@XZ      004a7950 f   LargeRand.obj
 0001:000a6970       ??1CLargeRand@@UAE@XZ      004a7970 f   LargeRand.obj
 0001:000a6980       ?seedMT@CLargeRand@@QAEXK@Z 004a7980 f   LargeRand.obj
 0001:000a69c0       ?reloadMT@CLargeRand@@QAEKXZ 004a79c0 f   LargeRand.obj
 0001:000a6af0       ?GetLargeRand@@YAKXZ       004a7af0 f   LargeRand.obj
 0001:000a6b40       ??_ECLargeRand@@UAEPAXI@Z  004a7b40 f i LargeRand.obj
 0001:000a6b40       ??_GCLargeRand@@UAEPAXI@Z  004a7b40 f i LargeRand.obj
 0001:000a6b70       ??0CLifeStone@@QAE@XZ      004a7b70 f   LifeStone.obj
 0001:000a6b80       ??1CLifeStone@@UAE@XZ      004a7b80 f   LifeStone.obj
 0001:000a6b90       ?CreateLifeStone@CLifeStone@@QAEHH@Z 004a7b90 f   LifeStone.obj
 0001:000a6f90       ?DeleteLifeStone@CLifeStone@@QAEHH@Z 004a7f90 f   LifeStone.obj
 0001:000a6ff0       ?SetReSpawnUserXY@CLifeStone@@QAEHH@Z 004a7ff0 f   LifeStone.obj
 0001:000a7070       ?LifeStoneAct@CLifeStone@@QAEXH@Z 004a8070 f   LifeStone.obj
 0001:000a7370       ??_ECLifeStone@@UAEPAXI@Z  004a8370 f i LifeStone.obj
 0001:000a7370       ??_GCLifeStone@@UAEPAXI@Z  004a8370 f i LifeStone.obj
 0001:000a73a0       ?LogDataSet@@YAXXZ         004a83a0 f   logproc.obj
 0001:000a7480       ?LogDateChange@@YAHXZ      004a8480 f   logproc.obj
 0001:000a7590       ?LogTextAdd@@YAXEPADH@Z    004a8590 f   logproc.obj
 0001:000a7610       ?LogAddFunc@@YAXPADZZ      004a8610 f   logproc.obj
 0001:000a76d0       ?LogAddFuncColor@@YAXEPADZZ 004a86d0 f   logproc.obj
 0001:000a7790       ?LogAddTimeDateFunc@@YAXPADZZ 004a8790 f   logproc.obj
 0001:000a78e0       ?LogAddStrHexFunc@@YAXPAD0H@Z 004a88e0 f   logproc.obj
 0001:000a79b0       ?gObjGiveItemSearch@@YAXPAUOBJECTSTRUCT@@H@Z 004a89b0 f   user.obj
 0001:000a79b0       ??$_Dest_val@V?$allocator@U?$pair@$$CBKVQuestDropItemInfo@@@std@@@std@@U?$pair@$$CBKVQuestDropItemInfo@@@2@@std@@YAXAAV?$allocator@U?$pair@$$CBKVQuestDropItemInfo@@@std@@@0@PAU?$pair@$$CBKVQuestDropItemInfo@@@0@@Z 004a89b0 f   QuestExpInfo.obj
 0001:000a79b0       ?ItemInit@MapClass@@QAEXXZ 004a89b0 f   MapClass.obj
 0001:000a79b0       ?LogTextPaintProcVoid@@YAXPAUHWND__@@@Z 004a89b0 f   logproc.obj
 0001:000a79b0       ?LogAddLocalFuncVoid@@YAXPADZZ 004a89b0 f   logproc.obj
 0001:000a79b0       ?gObjGiveItemWarehouseSearch@@YAXPAUOBJECTSTRUCT@@H@Z 004a89b0 f   user.obj
 0001:000a79b0       ?LogAddTimeDateVoid@@YAXPADZZ 004a89b0 f   logproc.obj
 0001:000a79b0       ?GDGameServerInfoSave@@YAXXZ 004a89b0 f   DSProtocol.obj
 0001:000a79b0       ??3@YAXPAX0@Z              004a89b0 f   DropEx.obj
 0001:000a79b0       ?IncMonseterHerdIndex@CDoppelganger@@QAEXXZ 004a89b0 f   Doppelganger.obj
 0001:000a79b0       ?LogAddLocalFunc@@YAXPADZZ 004a89b0 f   logproc.obj
 0001:000a79b0       ?UserMonsterCountCheck@CKanturu@@QAEXXZ 004a89b0 f   Kanturu.obj
 0001:000a79b0       ?ChaosEventProtocolCore@@YAXEPAEH@Z 004a89b0 f   MixSystem.obj
 0001:000a79b0       ??1PacketStatistics@@QAE@XZ 004a89b0 f   PacketStatistics.obj
 0001:000a79b0       ??1UserQuestAskInfo@@QAE@XZ 004a89b0 f   user.obj
 0001:000a79b0       ?LogAddFuncVoid@@YAXPADZZ  004a89b0 f   logproc.obj
 0001:000a79b0       ??1CLoginCount@@QAE@XZ     004a89b0 f   CLoginCount.obj
 0001:000a79b0       ?Run@CAttackEvent@@QAEXXZ  004a89b0 f   AttackEvent.obj
 0001:000a79b0       ?Init@CEledoradoEvent@@QAEXXZ 004a89b0 f   EledoradoEvent.obj
 0001:000a79b0       ?GMServerMsgProc@@YAXIJ@Z  004a89b0 f   GameMain.obj
 0001:000a79b0       ?LogAddHeadHexFuncVoid@@YAXPAD0H@Z 004a89b0 f   logproc.obj
 0001:000a79c0       ?LogTextPaintProc@@YAXPAUHWND__@@@Z 004a89c0 f   logproc.obj
 0001:000a7ac0       ?LogClose@@YAXXZ           004a8ac0 f   logproc.obj
 0001:000a7ae0       ?MsgBox@@YAXPADZZ          004a8ae0 f   logproc.obj
 0001:000a7b50       ?LogInit@@YAXH@Z           004a8b50 f   logproc.obj
 0001:000a7c80       ??0CLogToFile@@QAE@QAD0H@Z 004a8c80 f   LogToFile.obj
 0001:000a7d70       ??1CLogToFile@@QAE@XZ      004a8d70 f   LogToFile.obj
 0001:000a7d80       ?Output@CLogToFile@@QAAXPADZZ 004a8d80 f   LogToFile.obj
 0001:000a7e90       ?g_Generic_Call@@YA_NPAUlua_State@@PBD1ZZ 004a8e90 f   LuaFun.obj
 0001:000a80d0       ?TalkRefAdd@CQeustNpcTeleport@@QAEXXZ 004a90d0 f i LuaExport.obj
 0001:000a8100       ??0LuaExport@@QAE@XZ       004a9100 f   LuaExport.obj
 0001:000a8110       ??1LuaExport@@UAE@XZ       004a9110 f   LuaExport.obj
 0001:000a8120       ??_GLuaExport@@UAEPAXI@Z   004a9120 f i LuaExport.obj
 0001:000a8120       ??_ELuaExport@@UAEPAXI@Z   004a9120 f i LuaExport.obj
 0001:000a8150       ??0LuaMonsterDie@@QAE@XZ   004a9150 f   LuaMonsterDie.obj
 0001:000a8160       ??1LuaMonsterDie@@UAE@XZ   004a9160 f   LuaMonsterDie.obj
 0001:000a8170       ??_ELuaMonsterDie@@UAEPAXI@Z 004a9170 f i LuaMonsterDie.obj
 0001:000a8170       ??_GLuaMonsterDie@@UAEPAXI@Z 004a9170 f i LuaMonsterDie.obj
 0001:000a81a0       ??0LuaNPC@@QAE@XZ          004a91a0 f   LuaNPC.obj
 0001:000a81b0       ??1LuaNPC@@UAE@XZ          004a91b0 f   LuaNPC.obj
 0001:000a81c0       ??_GLuaNPC@@UAEPAXI@Z      004a91c0 f i LuaNPC.obj
 0001:000a81c0       ??_ELuaNPC@@UAEPAXI@Z      004a91c0 f i LuaNPC.obj
 0001:000a84e0       ??0_LUCKY_ITEM_INFO@@QAE@XZ 004a94e0 f i LuckyItem.obj
 0001:000a86a0       ?LoadLuckyItemEquipment@LuckyItemManager@@QAEHHPAU_LUCKY_ITEM_INFO@@@Z 004a96a0 f   LuckyItem.obj
 0001:000a87c0       ?GetLuckyItemEquipment@LuckyItemManager@@QAEPAU_LUCKY_ITEM_EQUIPMENT@@PAU_LUCKY_ITEM_INFO@@H@Z 004a97c0 f   LuckyItem.obj
 0001:000a8800       ?GambleGetLevel@LuckyItemManager@@QAEEPAU_ITEM_LEVEL_RATE@@H@Z 004a9800 f   LuckyItem.obj
 0001:000a8850       ?GetLuckyItemDurabilityTime@LuckyItemManager@@QAEHXZ 004a9850 f   LuckyItem.obj
 0001:000a8860       ?GDReqLuckyItemInsert@LuckyItemManager@@QAEHFJFH@Z 004a9860 f   LuckyItem.obj
 0001:000a88f0       ?GDReqLuckyItemDelete@LuckyItemManager@@QAEXFJH@Z 004a98f0 f   LuckyItem.obj
 0001:000a89a0       ?DGAnsLuckyItemList@LuckyItemManager@@QAEXPAUPMSG_ANS_LUCKYITEM_SELECT@@@Z 004a99a0 f   LuckyItem.obj
 0001:000a8b20       ?GDReqLuckyItemSelect@LuckyItemManager@@QAEXPAUOBJECTSTRUCT@@@Z 004a9b20 f   LuckyItem.obj
 0001:000a8b90       ?_Max@?$_Tree_val@V?$_Tmap_traits@HU_LUCKY_ITEM_INFO@@U?$less@H@std@@V?$allocator@U?$pair@$$CBHU_LUCKY_ITEM_INFO@@@std@@@3@$0A@@std@@@std@@SAPAU_Node@?$_Tree_nod@V?$_Tmap_traits@HU_LUCKY_ITEM_INFO@@U?$less@H@std@@V?$allocator@U?$pair@$$CBHU_LUCKY_ITEM_INFO@@@std@@@3@$0A@@std@@@2@PAU342@@Z 004a9b90 f i LuckyItem.obj
 0001:000a8bc0       ?_Min@?$_Tree_val@V?$_Tmap_traits@HU_LUCKY_ITEM_INFO@@U?$less@H@std@@V?$allocator@U?$pair@$$CBHU_LUCKY_ITEM_INFO@@@std@@@3@$0A@@std@@@std@@SAPAU_Node@?$_Tree_nod@V?$_Tmap_traits@HU_LUCKY_ITEM_INFO@@U?$less@H@std@@V?$allocator@U?$pair@$$CBHU_LUCKY_ITEM_INFO@@@std@@@3@$0A@@std@@@2@PAU342@@Z 004a9bc0 f i LuckyItem.obj
 0001:000a8be0       ??F?$_Tree_unchecked_const_iterator@V?$_Tree_val@V?$_Tmap_traits@HU_LUCKY_ITEM_INFO@@U?$less@H@std@@V?$allocator@U?$pair@$$CBHU_LUCKY_ITEM_INFO@@@std@@@3@$0A@@std@@@std@@U_Iterator_base0@2@@std@@QAEAAV01@XZ 004a9be0 f i LuckyItem.obj
 0001:000a8c60       ?GDReqLuckyItemInsert@LuckyItemManager@@QAEHPAVCItem@@H@Z 004a9c60 f   LuckyItem.obj
 0001:000a8c90       ??1?$_Tree_val@V?$_Tmap_traits@V?$basic_string@DU?$char_traits@D@std@@V?$allocator@D@2@@std@@PAU_GUILD_INFO_STRUCT@@U?$less@V?$basic_string@DU?$char_traits@D@std@@V?$allocator@D@2@@std@@@2@V?$allocator@U?$pair@$$CBV?$basic_string@DU?$char_traits@D@std@@V?$allocator@D@2@@std@@PAU_GUILD_INFO_STRUCT@@@std@@@2@$0A@@std@@@std@@QAE@XZ 004a9c90 f i GuildClass.obj
 0001:000a8c90       ??1?$_Tree_val@V?$_Tmap_traits@HV?$vector@UCASTLEDEEP_MONSTERINFO@@V?$allocator@UCASTLEDEEP_MONSTERINFO@@@std@@@std@@U?$less@H@2@V?$allocator@U?$pair@$$CBHV?$vector@UCASTLEDEEP_MONSTERINFO@@V?$allocator@UCASTLEDEEP_MONSTERINFO@@@std@@@std@@@std@@@2@$0A@@std@@@std@@QAE@XZ 004a9c90 f i CastleDeepEvent.obj
 0001:000a8c90       ??1?$_Tree_val@V?$_Tmap_traits@V?$basic_string@DU?$char_traits@D@std@@V?$allocator@D@2@@std@@HU?$less@V?$basic_string@DU?$char_traits@D@std@@V?$allocator@D@2@@std@@@2@V?$allocator@U?$pair@$$CBV?$basic_string@DU?$char_traits@D@std@@V?$allocator@D@2@@std@@H@std@@@2@$0A@@std@@@std@@QAE@XZ 004a9c90 f i ConMember.obj
 0001:000a8c90       ??1?$_Tree_val@V?$_Tmap_traits@HPAVQuestExpAsk@@U?$less@H@std@@V?$allocator@U?$pair@$$CBHPAVQuestExpAsk@@@std@@@3@$0A@@std@@@std@@QAE@XZ 004a9c90 f i QuestExpInfo.obj
 0001:000a8c90       ??1?$_Tree_val@V?$_Tmap_traits@HUDOPPELGANGER_EVENT_INFO@@U?$less@H@std@@V?$allocator@U?$pair@$$CBHUDOPPELGANGER_EVENT_INFO@@@std@@@3@$0A@@std@@@std@@QAE@XZ 004a9c90 f i DoppelgangerEventInfo.obj
 0001:000a8c90       ??1?$_Tree_val@V?$_Tmap_traits@KVQuestDropItemInfo@@U?$less@K@std@@V?$allocator@U?$pair@$$CBKVQuestDropItemInfo@@@std@@@3@$0A@@std@@@std@@QAE@XZ 004a9c90 f i QuestExpInfo.obj
 0001:000a8c90       ??1?$_Tree_val@V?$_Tmap_traits@HPAU_MAPSVR_DATA@@U?$less@H@std@@V?$allocator@U?$pair@$$CBHPAU_MAPSVR_DATA@@@std@@@3@$0A@@std@@@std@@QAE@XZ 004a9c90 f i MapServerManager.obj
 0001:000a8c90       ??1?$_Tree_val@V?$_Tmap_traits@HU_tagWaiting@@U?$less@H@std@@V?$allocator@U?$pair@$$CBHU_tagWaiting@@@std@@@3@$0A@@std@@@std@@QAE@XZ 004a9c90 f i NewPVP.obj
 0001:000a8c90       ??1?$_Tree_val@V?$_Tmap_traits@IHU?$less@I@std@@V?$allocator@U?$pair@$$CBIH@std@@@2@$0A@@std@@@std@@QAE@XZ 004a9c90 f i CastleSiege.obj
 0001:000a8c90       ??1?$_Tree_val@V?$_Tmap_traits@HU_LUCKY_ITEM_INFO@@U?$less@H@std@@V?$allocator@U?$pair@$$CBHU_LUCKY_ITEM_INFO@@@std@@@3@$0A@@std@@@std@@QAE@XZ 004a9c90 f i LuckyItem.obj
 0001:000a8c90       ??1?$_Tree_val@V?$_Tmap_traits@HV?$vector@UCASTLEDEEP_SPAWNTIME@@V?$allocator@UCASTLEDEEP_SPAWNTIME@@@std@@@std@@U?$less@H@2@V?$allocator@U?$pair@$$CBHV?$vector@UCASTLEDEEP_SPAWNTIME@@V?$allocator@UCASTLEDEEP_SPAWNTIME@@@std@@@std@@@std@@@2@$0A@@std@@@std@@QAE@XZ 004a9c90 f i CastleDeepEvent.obj
 0001:000a8c90       ??1?$_Tree_val@V?$_Tmap_traits@HPAUGAMESHOP_ITEM_DATA@@U?$less@H@std@@V?$allocator@U?$pair@$$CBHPAUGAMESHOP_ITEM_DATA@@@std@@@3@$0A@@std@@@std@@QAE@XZ 004a9c90 f i GameShop.obj
 0001:000a8c90       ??1?$_Tree_val@V?$_Tmap_traits@HPAVQuestExpReward@@U?$less@H@std@@V?$allocator@U?$pair@$$CBHPAVQuestExpReward@@@std@@@3@$0A@@std@@@std@@QAE@XZ 004a9c90 f i QuestExpInfo.obj
 0001:000a8c90       ??1?$_Tree_val@V?$_Tmap_traits@HPAVTUnionInfo@@U?$less@H@std@@V?$allocator@U?$pair@$$CBHPAVTUnionInfo@@@std@@@3@$0A@@std@@@std@@QAE@XZ 004a9c90 f i TUnion.obj
 0001:000a8c90       ??1?$_Tree_val@V?$_Tmap_traits@HPAXU?$less@H@std@@V?$allocator@U?$pair@$$CBHPAX@std@@@2@$0A@@std@@@std@@QAE@XZ 004a9c90 f i EventManagement.obj
 0001:000a8c90       ??1?$_Tree_val@V?$_Tmap_traits@HPAU_GUILD_INFO_STRUCT@@U?$less@H@std@@V?$allocator@U?$pair@$$CBHPAU_GUILD_INFO_STRUCT@@@std@@@3@$0A@@std@@@std@@QAE@XZ 004a9c90 f i GuildClass.obj
 0001:000a8c90       ??1?$_Tree_val@V?$_Tmap_traits@HU_MONSTER_ITEM_DROP@@U?$less@H@std@@V?$allocator@U?$pair@$$CBHU_MONSTER_ITEM_DROP@@@std@@@3@$0A@@std@@@std@@QAE@XZ 004a9c90 f i ChaosCastle.obj
 0001:000a8c90       ??1?$_Tree_val@V?$_Tmap_traits@HU_MONSTER_HERD_DATA@@U?$less@H@std@@V?$allocator@U?$pair@$$CBHU_MONSTER_HERD_DATA@@@std@@@3@$0A@@std@@@std@@QAE@XZ 004a9c90 f i MonsterHerd.obj
 0001:000a8c90       ??1?$_Tree_val@V?$_Tmap_traits@KPAVQuestExpRewardKind@@U?$less@K@std@@V?$allocator@U?$pair@$$CBKPAVQuestExpRewardKind@@@std@@@3@$0A@@std@@@std@@QAE@XZ 004a9c90 f i QuestExpInfo.obj
 0001:000a8c90       ??1?$_Tree_val@V?$_Tmap_traits@HU_CS_MINIMAP_DATA@@U?$less@H@std@@V?$allocator@U?$pair@$$CBHU_CS_MINIMAP_DATA@@@std@@@3@$0A@@std@@@std@@QAE@XZ 004a9c90 f i CastleSiege.obj
 0001:000a8c90       ??1?$_Tree_val@V?$_Tset_traits@PAUOBJECTSTRUCT@@VCCrywolfScoreSort@@V?$allocator@PAUOBJECTSTRUCT@@@std@@$0A@@std@@@std@@QAE@XZ 004a9c90 f i Crywolf.obj
 0001:000a8c90       ??1?$_Tree_val@V?$_Tmap_traits@HPAUGAMESHOP_PACKAGE_DATA@@U?$less@H@std@@V?$allocator@U?$pair@$$CBHPAUGAMESHOP_PACKAGE_DATA@@@std@@@3@$0A@@std@@@std@@QAE@XZ 004a9c90 f i GameShop.obj
 0001:000a8c90       ??1?$_Tree_val@V?$_Tmap_traits@HHU?$less@H@std@@V?$allocator@U?$pair@$$CBHH@std@@@2@$0A@@std@@@std@@QAE@XZ 004a9c90 f i CastleDeepEvent.obj
 0001:000a8c90       ??1?$_Tree_val@V?$_Tmap_traits@HU_tagObserverInfo@@U?$less@H@std@@V?$allocator@U?$pair@$$CBHU_tagObserverInfo@@@std@@@3@$0A@@std@@@std@@QAE@XZ 004a9c90 f i NewPVP.obj
 0001:000a8c90       ??1?$_Tree_val@V?$_Tmap_traits@HVQuestExpInfo@@U?$less@H@std@@V?$allocator@U?$pair@$$CBHVQuestExpInfo@@@std@@@3@$0A@@std@@@std@@QAE@XZ 004a9c90 f i QuestExpInfo.obj
 0001:000a8c90       ??1?$_Tree_val@V?$_Tmap_traits@V?$basic_string@DU?$char_traits@D@std@@V?$allocator@D@2@@std@@U_CS_TOTAL_GUILD_DATA@@U?$less@V?$basic_string@DU?$char_traits@D@std@@V?$allocator@D@2@@std@@@2@V?$allocator@U?$pair@$$CBV?$basic_string@DU?$char_traits@D@std@@V?$allocator@D@2@@std@@U_CS_TOTAL_GUILD_DATA@@@std@@@2@$0A@@std@@@std@@QAE@XZ 004a9c90 f i CastleSiege.obj
 0001:000a8ca0       ??E?$_Tree_unchecked_const_iterator@V?$_Tree_val@V?$_Tmap_traits@HU_LUCKY_ITEM_INFO@@U?$less@H@std@@V?$allocator@U?$pair@$$CBHU_LUCKY_ITEM_INFO@@@std@@@3@$0A@@std@@@std@@U_Iterator_base0@2@@std@@QAEAAV01@XZ 004a9ca0 f i LuckyItem.obj
 0001:000a8d00       ?_Lrotate@?$_Tree@V?$_Tmap_traits@HU_LUCKY_ITEM_INFO@@U?$less@H@std@@V?$allocator@U?$pair@$$CBHU_LUCKY_ITEM_INFO@@@std@@@3@$0A@@std@@@std@@IAEXPAU_Node@?$_Tree_nod@V?$_Tmap_traits@HU_LUCKY_ITEM_INFO@@U?$less@H@std@@V?$allocator@U?$pair@$$CBHU_LUCKY_ITEM_INFO@@@std@@@3@$0A@@std@@@2@@Z 004a9d00 f i LuckyItem.obj
 0001:000a8d60       ?_Rrotate@?$_Tree@V?$_Tmap_traits@HU_LUCKY_ITEM_INFO@@U?$less@H@std@@V?$allocator@U?$pair@$$CBHU_LUCKY_ITEM_INFO@@@std@@@3@$0A@@std@@@std@@IAEXPAU_Node@?$_Tree_nod@V?$_Tmap_traits@HU_LUCKY_ITEM_INFO@@U?$less@H@std@@V?$allocator@U?$pair@$$CBHU_LUCKY_ITEM_INFO@@@std@@@3@$0A@@std@@@2@@Z 004a9d60 f i LuckyItem.obj
 0001:000a8dc0       ?erase@?$_Tree@V?$_Tmap_traits@HU_LUCKY_ITEM_INFO@@U?$less@H@std@@V?$allocator@U?$pair@$$CBHU_LUCKY_ITEM_INFO@@@std@@@3@$0A@@std@@@std@@QAE?AV?$_Tree_iterator@V?$_Tree_val@V?$_Tmap_traits@HU_LUCKY_ITEM_INFO@@U?$less@H@std@@V?$allocator@U?$pair@$$CBHU_LUCKY_ITEM_INFO@@@std@@@3@$0A@@std@@@std@@@2@V?$_Tree_const_iterator@V?$_Tree_val@V?$_Tmap_traits@HU_LUCKY_ITEM_INFO@@U?$less@H@std@@V?$allocator@U?$pair@$$CBHU_LUCKY_ITEM_INFO@@@std@@@3@$0A@@std@@@std@@@2@@Z 004a9dc0 f i LuckyItem.obj
 0001:000a90a0       ?_Erase@?$_Tree@V?$_Tmap_traits@HU_LUCKY_ITEM_INFO@@U?$less@H@std@@V?$allocator@U?$pair@$$CBHU_LUCKY_ITEM_INFO@@@std@@@3@$0A@@std@@@std@@IAEXPAU_Node@?$_Tree_nod@V?$_Tmap_traits@HU_LUCKY_ITEM_INFO@@U?$less@H@std@@V?$allocator@U?$pair@$$CBHU_LUCKY_ITEM_INFO@@@std@@@3@$0A@@std@@@2@@Z 004aa0a0 f i LuckyItem.obj
 0001:000a90e0       ?_Insert@?$_Tree@V?$_Tmap_traits@HU_LUCKY_ITEM_INFO@@U?$less@H@std@@V?$allocator@U?$pair@$$CBHU_LUCKY_ITEM_INFO@@@std@@@3@$0A@@std@@@std@@IAE?AV?$_Tree_iterator@V?$_Tree_val@V?$_Tmap_traits@HU_LUCKY_ITEM_INFO@@U?$less@H@std@@V?$allocator@U?$pair@$$CBHU_LUCKY_ITEM_INFO@@@std@@@3@$0A@@std@@@std@@@2@_NPAU_Node@?$_Tree_nod@V?$_Tmap_traits@HU_LUCKY_ITEM_INFO@@U?$less@H@std@@V?$allocator@U?$pair@$$CBHU_LUCKY_ITEM_INFO@@@std@@@3@$0A@@std@@@2@1@Z 004aa0e0 f i LuckyItem.obj
 0001:000a92f0       ?clear@?$_Tree@V?$_Tmap_traits@HU_LUCKY_ITEM_INFO@@U?$less@H@std@@V?$allocator@U?$pair@$$CBHU_LUCKY_ITEM_INFO@@@std@@@3@$0A@@std@@@std@@QAEXXZ 004aa2f0 f i LuckyItem.obj
 0001:000a9350       ?_Linsert@?$_Tree@V?$_Tmap_traits@HU_LUCKY_ITEM_INFO@@U?$less@H@std@@V?$allocator@U?$pair@$$CBHU_LUCKY_ITEM_INFO@@@std@@@3@$0A@@std@@@std@@QAE?AU?$pair@V?$_Tree_iterator@V?$_Tree_val@V?$_Tmap_traits@HU_LUCKY_ITEM_INFO@@U?$less@H@std@@V?$allocator@U?$pair@$$CBHU_LUCKY_ITEM_INFO@@@std@@@3@$0A@@std@@@std@@@std@@_N@2@PAU_Node@?$_Tree_nod@V?$_Tmap_traits@HU_LUCKY_ITEM_INFO@@U?$less@H@std@@V?$allocator@U?$pair@$$CBHU_LUCKY_ITEM_INFO@@@std@@@3@$0A@@std@@@2@_N@Z 004aa350 f i LuckyItem.obj
 0001:000a9430       ??$_Cons_val@V?$allocator@U?$pair@$$CBHU_LUCKY_ITEM_INFO@@@std@@@std@@U?$pair@$$CBHU_LUCKY_ITEM_INFO@@@2@U32@@std@@YAXAAV?$allocator@U?$pair@$$CBHU_LUCKY_ITEM_INFO@@@std@@@0@PAU?$pair@$$CBHU_LUCKY_ITEM_INFO@@@0@$$QAU20@@Z 004aa430 f i LuckyItem.obj
 0001:000a9460       ?IsLuckyItemEquipment@LuckyItemManager@@QAEHH@Z 004aa460 f   LuckyItem.obj
 0001:000a9510       ?GetSmeltingRateInfo@LuckyItemManager@@QAEPAU_SMELT_RATE@@H@Z 004aa510 f   LuckyItem.obj
 0001:000a95c0       ?GambleLuckyItemSmelting@LuckyItemManager@@QAEHHH@Z 004aa5c0 f   LuckyItem.obj
 0001:000a9630       ?LuckyItemRepaire@LuckyItemManager@@QAEHPAUOBJECTSTRUCT@@HH@Z 004aa630 f   LuckyItem.obj
 0001:000a9820       ?GDReqLuckyItemInsert2nd@LuckyItemManager@@QAEXH@Z 004aa820 f   LuckyItem.obj
 0001:000a9950       ?find@?$_Tree@V?$_Tmap_traits@HU_LUCKY_ITEM_INFO@@U?$less@H@std@@V?$allocator@U?$pair@$$CBHU_LUCKY_ITEM_INFO@@@std@@@3@$0A@@std@@@std@@QAE?AV?$_Tree_iterator@V?$_Tree_val@V?$_Tmap_traits@HU_LUCKY_ITEM_INFO@@U?$less@H@std@@V?$allocator@U?$pair@$$CBHU_LUCKY_ITEM_INFO@@@std@@@3@$0A@@std@@@std@@@2@ABH@Z 004aa950 f i LuckyItem.obj
 0001:000a99c0       ?erase@?$_Tree@V?$_Tmap_traits@HU_LUCKY_ITEM_INFO@@U?$less@H@std@@V?$allocator@U?$pair@$$CBHU_LUCKY_ITEM_INFO@@@std@@@3@$0A@@std@@@std@@QAE?AV?$_Tree_iterator@V?$_Tree_val@V?$_Tmap_traits@HU_LUCKY_ITEM_INFO@@U?$less@H@std@@V?$allocator@U?$pair@$$CBHU_LUCKY_ITEM_INFO@@@std@@@3@$0A@@std@@@std@@@2@V?$_Tree_const_iterator@V?$_Tree_val@V?$_Tmap_traits@HU_LUCKY_ITEM_INFO@@U?$less@H@std@@V?$allocator@U?$pair@$$CBHU_LUCKY_ITEM_INFO@@@std@@@3@$0A@@std@@@std@@@2@0@Z 004aa9c0 f i LuckyItem.obj
 0001:000a9a80       ?_Insert@?$_Tree@V?$_Tmap_traits@HU_LUCKY_ITEM_INFO@@U?$less@H@std@@V?$allocator@U?$pair@$$CBHU_LUCKY_ITEM_INFO@@@std@@@3@$0A@@std@@@std@@QAE?AV?$_Tree_iterator@V?$_Tree_val@V?$_Tmap_traits@HU_LUCKY_ITEM_INFO@@U?$less@H@std@@V?$allocator@U?$pair@$$CBHU_LUCKY_ITEM_INFO@@@std@@@3@$0A@@std@@@std@@@2@V?$_Tree_const_iterator@V?$_Tree_val@V?$_Tmap_traits@HU_LUCKY_ITEM_INFO@@U?$less@H@std@@V?$allocator@U?$pair@$$CBHU_LUCKY_ITEM_INFO@@@std@@@3@$0A@@std@@@std@@@2@PAU_Node@?$_Tree_nod@V?$_Tmap_traits@HU_LUCKY_ITEM_INFO@@U?$less@H@std@@V?$allocator@U?$pair@$$CBHU_LUCKY_ITEM_INFO@@@std@@@3@$0A@@std@@@2@@Z 004aaa80 f i LuckyItem.obj
 0001:000a9be0       ??$_Buynode@U?$pair@$$CBHU_LUCKY_ITEM_INFO@@@std@@@?$_Tree_val@V?$_Tmap_traits@HU_LUCKY_ITEM_INFO@@U?$less@H@std@@V?$allocator@U?$pair@$$CBHU_LUCKY_ITEM_INFO@@@std@@@3@$0A@@std@@@std@@QAEPAU_Node@?$_Tree_nod@V?$_Tmap_traits@HU_LUCKY_ITEM_INFO@@U?$less@H@std@@V?$allocator@U?$pair@$$CBHU_LUCKY_ITEM_INFO@@@std@@@3@$0A@@std@@@1@$$QAU?$pair@$$CBHU_LUCKY_ITEM_INFO@@@1@@Z 004aabe0 f i LuckyItem.obj
 0001:000a9c60       ?GetLuckyItemInfo@LuckyItemManager@@QAEPAU_LUCKY_ITEM_INFO@@H@Z 004aac60 f   LuckyItem.obj
 0001:000a9ca0       ?GetCharClassLuckyItemInfo@LuckyItemManager@@QAEPAU_LUCKY_ITEM_INFO@@HH@Z 004aaca0 f   LuckyItem.obj
 0001:000a9ce0       ?IsLuckyItemTicket@LuckyItemManager@@QAEHH@Z 004aace0 f   LuckyItem.obj
 0001:000a9d20       ?LuckyItemTicketExchange@LuckyItemManager@@QAEXPAUOBJECTSTRUCT@@@Z 004aad20 f   LuckyItem.obj
 0001:000aa1c0       ?LuckyItemSmelting@LuckyItemManager@@QAEXPAUOBJECTSTRUCT@@@Z 004ab1c0 f   LuckyItem.obj
 0001:000aa420       ??1LuckyItemManager@@QAE@XZ 004ab420 f   LuckyItem.obj
 0001:000aa490       ?AddLuckyItemInfo@LuckyItemManager@@QAEXPAU_LUCKY_ITEM_INFO@@H@Z 004ab490 f   LuckyItem.obj
 0001:000aa5a0       ??0LuckyItemManager@@QAE@XZ 004ab5a0 f   LuckyItem.obj
 0001:000aa620       ?LoadLuckyItemInfo@LuckyItemManager@@QAEHPAD@Z 004ab620 f   LuckyItem.obj
 0001:000aaa70       ??0CMagicDamage@@QAE@XZ    004aba70 f   MagicDamage.obj
 0001:000aaa80       ??1CMagicDamage@@UAE@XZ    004aba80 f   MagicDamage.obj
 0001:000aaa90       ?Init@CMagicDamage@@QAEXXZ 004aba90 f   MagicDamage.obj
 0001:000aaaa0       ?LogSkillNameList@CMagicDamage@@QAEXPADH@Z 004abaa0 f   MagicDamage.obj
 0001:000aabb0       ?SetMasterLevelSkillInfo@CMagicDamage@@AAEXHHHHHHGHH@Z 004abbb0 f   MagicDamage.obj
 0001:000aac60       ?SetEx@CMagicDamage@@AAEXHHHHPAH@Z 004abc60 f   MagicDamage.obj
 0001:000aacf0       ?Set@CMagicDamage@@AAEXPADHHHHHHHHPAEHHHEE@Z 004abcf0 f   MagicDamage.obj
 0001:000ab3d0       ?SkillGet@CMagicDamage@@QAEHH@Z 004ac3d0 f   MagicDamage.obj
 0001:000ab460       ?SkillGetMana@CMagicDamage@@QAEHH@Z 004ac460 f   MagicDamage.obj
 0001:000ab4e0       ?SkillGetBP@CMagicDamage@@QAEHH@Z 004ac4e0 f   MagicDamage.obj
 0001:000ab540       ?SkillGetRequireEnergy@CMagicDamage@@QAEHH@Z 004ac540 f   MagicDamage.obj
 0001:000ab5a0       ?SkillGetRequireClass@CMagicDamage@@QAEHHHHH@Z 004ac5a0 f   MagicDamage.obj
 0001:000ab640       ?GetSkillAttr@CMagicDamage@@QAEHH@Z 004ac640 f   MagicDamage.obj
 0001:000ab660       ?GetskillRequireLeadership@CMagicDamage@@QAEHH@Z 004ac660 f   MagicDamage.obj
 0001:000ab6c0       ?GetSkillType@CMagicDamage@@QAEHH@Z 004ac6c0 f   MagicDamage.obj
 0001:000ab710       ?SkillGetRequireLevel@CMagicDamage@@QAEHH@Z 004ac710 f   MagicDamage.obj
 0001:000ab760       ?CheckStatus@CMagicDamage@@QAEHHH@Z 004ac760 f   MagicDamage.obj
 0001:000ab820       ?CheckKillCount@CMagicDamage@@QAEHHH@Z 004ac820 f   MagicDamage.obj
 0001:000ab870       ?GetSkillDistance@CMagicDamage@@QAEHH@Z 004ac870 f   MagicDamage.obj
 0001:000ab8c0       ?GetRequireStrength@CMagicDamage@@QAEHH@Z 004ac8c0 f   MagicDamage.obj
 0001:000ab910       ?GetRequireDexterity@CMagicDamage@@QAEHH@Z 004ac910 f   MagicDamage.obj
 0001:000ab960       ?GetBrandOfSkill@CMagicDamage@@QAEGH@Z 004ac960 f   MagicDamage.obj
 0001:000ab9b0       ?GetNormalBrandOfSkill@CMagicDamage@@QAEGH@Z 004ac9b0 f   MagicDamage.obj
 0001:000aba60       ?IsItemAttachedSkill@CMagicDamage@@QAEEH@Z 004aca60 f   MagicDamage.obj
 0001:000abab0       ?GetSkillUseType@CMagicDamage@@QAEHH@Z 004acab0 f   MagicDamage.obj
 0001:000abb00       ?GetSkillGroup@CMagicDamage@@QAEHH@Z 004acb00 f   MagicDamage.obj
 0001:000abb50       ?GetSkillRank@CMagicDamage@@QAEHH@Z 004acb50 f   MagicDamage.obj
 0001:000abba0       ??_ECMagicDamage@@UAEPAXI@Z 004acba0 f i MagicDamage.obj
 0001:000abba0       ??_GCMagicDamage@@UAEPAXI@Z 004acba0 f i MagicDamage.obj
 0001:000abbd0       ?LogSkillList@CMagicDamage@@QAEXPADH@Z 004acbd0 f   MagicDamage.obj
 0001:000ac190       ??1CMagicInf@@UAE@XZ       004ad190 f   MagicInf.obj
 0001:000ac1a0       ?Clear@CMagicInf@@QAEXXZ   004ad1a0 f   MagicInf.obj
 0001:000ac1b0       ?IsMagic@CMagicInf@@QAEHXZ 004ad1b0 f   MagicInf.obj
 0001:000ac1c0       ?GetSkillNumberInex@@YAHHHH@Z 004ad1c0 f   MagicInf.obj
 0001:000ac430       ?Set@CMagicInf@@QAEHEEE@Z  004ad430 f   MagicInf.obj
 0001:000ac4c0       ?GetDamage@CMagicInf@@QAEHXZ 004ad4c0 f   MagicInf.obj
 0001:000ac5d0       ?Set@CMagicInf@@QAEHHE@Z   004ad5d0 f   MagicInf.obj
 0001:000ac6a0       ?UpdateMasterSkill@CMagicInf@@QAEHHE@Z 004ad6a0 f   MagicInf.obj
 0001:000ac780       ?MagicByteConvert@@YAXPAEQAVCMagicInf@@H@Z 004ad780 f   MagicInf.obj
 0001:000ac810       ??0CMagicInf@@QAE@XZ       004ad810 f   MagicInf.obj
 0001:000ac820       ?FindNextDir@PATH@@AAEHHHHHH_N0@Z 004ad820 f i MapClass.obj
 0001:000acdd0       ?FindNextDir2@PATH@@AAEHHHHHH_N0@Z 004addd0 f i MapClass.obj
 0001:000ad380       ?FindNextDir3@PATH@@AAEHHHHHH_N0@Z 004ae380 f i MapClass.obj
 0001:000ad9b0       ?FindPath@PATH@@QAE_NHHHH_N@Z 004ae9b0 f i MapClass.obj
 0001:000adab0       ?FindPath2@PATH@@QAE_NHHHH_N@Z 004aeab0 f i MapClass.obj
 0001:000adbb0       ?FindPath3@PATH@@QAE_NHHHH_N@Z 004aebb0 f i MapClass.obj
 0001:000adcb0       ?init@MapClass@@QAEXXZ     004aecb0 f i MapClass.obj
 0001:000ae030       ??0MapClass@@QAE@XZ        004af030 f   MapClass.obj
 0001:000ae1e0       ?LoadMapSettings@@YAXPAD@Z 004af1e0 f   MapClass.obj
 0001:000ae330       ?MapNumberCheck@@YAHH@Z    004af330 f   MapClass.obj
 0001:000ae340       ?GetWeather@MapClass@@QAEEXZ 004af340 f   MapClass.obj
 0001:000ae350       ?WeatherVariationProcess@MapClass@@QAEXXZ 004af350 f   MapClass.obj
 0001:000ae410       ?ItemGive@MapClass@@QAEHHH_N@Z 004af410 f   MapClass.obj
 0001:000ae6c0       ?StateSetDestroy@MapClass@@QAEXXZ 004af6c0 f   MapClass.obj
 0001:000ae7c0       ?AttrLoad@MapClass@@QAEHPAD@Z 004af7c0 f   MapClass.obj
 0001:000ae8c0       ?GetAttr@MapClass@@QAEEHH@Z 004af8c0 f   MapClass.obj
 0001:000ae900       ?GetStandAttr@MapClass@@QAEHHH@Z 004af900 f   MapClass.obj
 0001:000ae950       ?SetStandAttr@MapClass@@QAEXHH@Z 004af950 f   MapClass.obj
 0001:000ae980       ?ClearStandAttr@MapClass@@QAEXHH@Z 004af980 f   MapClass.obj
 0001:000ae9e0       ?PathFinding2@MapClass@@QAE_NHHHHPAUPATH_t@@@Z 004af9e0 f   MapClass.obj
 0001:000aea80       ?TERRAIN_INDEX_REPEAT@@YAHHH@Z 004afa80 f   MapClass.obj
 0001:000aeaa0       ?PathFinding3@MapClass@@QAE_NHHHHPAUPATH_t@@@Z 004afaa0 f   MapClass.obj
 0001:000aeb40       ?PathFinding4@MapClass@@QAE_NHHHHPAUPATH_t@@@Z 004afb40 f   MapClass.obj
 0001:000aebe0       ?CheckWall2@MapClass@@QAEEHHHH@Z 004afbe0 f   MapClass.obj
 0001:000aecc0       ??1MapClass@@UAE@XZ        004afcc0 f   MapClass.obj
 0001:000aed10       ?MapSettingsInit@@YAXXZ    004afd10 f   MapClass.obj
 0001:000aed50       ?GetLevelPos@MapClass@@QAEXFAAF0@Z 004afd50 f   MapClass.obj
 0001:000aeea0       ?GetRandomLengthPos@MapClass@@QAEXAAF0H@Z 004afea0 f   MapClass.obj
 0001:000aef20       ?GetMapPos@MapClass@@QAEXFAAF0@Z 004aff20 f   MapClass.obj
 0001:000af0d0       ?LoadMapAttr@MapClass@@QAEXPADH@Z 004b00d0 f   MapClass.obj
 0001:000af110       ?MonsterItemDrop@MapClass@@QAEHHHMHHEEEEEHKEQAEE@Z 004b0110 f   MapClass.obj
 0001:000af230       ?ItemDrop@MapClass@@QAEHHHMHHEEEEEKHHHEQAEE@Z 004b0230 f   MapClass.obj
 0001:000af3e0       ?MoneyItemDrop@MapClass@@QAEHHHH@Z 004b03e0 f   MapClass.obj
 0001:000af500       ?GetVisibleItemCount@MapClass@@QAEHPAUOBJECTSTRUCT@@H@Z 004b0500 f   MapClass.obj
 0001:000af5d0       ?CheckWall@MapClass@@QAEHHHHH@Z 004b05d0 f   MapClass.obj
 0001:000af690       ??_GMapClass@@UAEPAXI@Z    004b0690 f i MapClass.obj
 0001:000af690       ??_EMapClass@@UAEPAXI@Z    004b0690 f i MapClass.obj
 0001:000af6c0       ??1CMapItem@@UAE@XZ        004b06c0 f   MapItem.obj
 0001:000af6d0       ?Init@CMapItem@@QAEXXZ     004b06d0 f   MapItem.obj
 0001:000af700       ?CreateItem@CMapItem@@QAEXHHHHMEEEEEKEQAEE@Z 004b0700 f   MapItem.obj
 0001:000af7e0       ?DropCreateItem@CMapItem@@QAEXHHHHMEEEEEKHHEQAEE@Z 004b07e0 f   MapItem.obj
 0001:000af940       ??0CMapItem@@QAE@XZ        004b0940 f   MapItem.obj
 0001:000af960       ??_ECMapItem@@UAEPAXI@Z    004b0960 f i MapItem.obj
 0001:000af960       ??_GCMapItem@@UAEPAXI@Z    004b0960 f i MapItem.obj
 0001:000afc80       ??1_MAPSVR_DATA@@UAE@XZ    004b0c80 f   MapServerManager.obj
 0001:000afc90       ?Clear@_MAPSVR_DATA@@QAEXH@Z 004b0c90 f   MapServerManager.obj
 0001:000afcf0       ?CheckMapCanMove@CMapServerManager@@QAEHH@Z 004b0cf0 f   MapServerManager.obj
 0001:000afd40       ?_Min@?$_Tree_val@V?$_Tmap_traits@HPAU_MAPSVR_DATA@@U?$less@H@std@@V?$allocator@U?$pair@$$CBHPAU_MAPSVR_DATA@@@std@@@3@$0A@@std@@@std@@SAPAU_Node@?$_Tree_nod@V?$_Tmap_traits@HPAU_MAPSVR_DATA@@U?$less@H@std@@V?$allocator@U?$pair@$$CBHPAU_MAPSVR_DATA@@@std@@@3@$0A@@std@@@2@PAU342@@Z 004b0d40 f i MapServerManager.obj
 0001:000afd40       ?_Min@?$_Tree_val@V?$_Tmap_traits@HPAVTUnionInfo@@U?$less@H@std@@V?$allocator@U?$pair@$$CBHPAVTUnionInfo@@@std@@@3@$0A@@std@@@std@@SAPAU_Node@?$_Tree_nod@V?$_Tmap_traits@HPAVTUnionInfo@@U?$less@H@std@@V?$allocator@U?$pair@$$CBHPAVTUnionInfo@@@std@@@3@$0A@@std@@@2@PAU342@@Z 004b0d40 f i TUnion.obj
 0001:000afd40       ?_Min@?$_Tree_val@V?$_Tmap_traits@HPAU_GUILD_INFO_STRUCT@@U?$less@H@std@@V?$allocator@U?$pair@$$CBHPAU_GUILD_INFO_STRUCT@@@std@@@3@$0A@@std@@@std@@SAPAU_Node@?$_Tree_nod@V?$_Tmap_traits@HPAU_GUILD_INFO_STRUCT@@U?$less@H@std@@V?$allocator@U?$pair@$$CBHPAU_GUILD_INFO_STRUCT@@@std@@@3@$0A@@std@@@2@PAU342@@Z 004b0d40 f i GuildClass.obj
 0001:000afd40       ?_Min@?$_Tree_val@V?$_Tmap_traits@HPAUGAMESHOP_PACKAGE_DATA@@U?$less@H@std@@V?$allocator@U?$pair@$$CBHPAUGAMESHOP_PACKAGE_DATA@@@std@@@3@$0A@@std@@@std@@SAPAU_Node@?$_Tree_nod@V?$_Tmap_traits@HPAUGAMESHOP_PACKAGE_DATA@@U?$less@H@std@@V?$allocator@U?$pair@$$CBHPAUGAMESHOP_PACKAGE_DATA@@@std@@@3@$0A@@std@@@2@PAU342@@Z 004b0d40 f i GameShop.obj
 0001:000afd40       ?_Min@?$_Tree_val@V?$_Tmap_traits@HPAVQuestExpReward@@U?$less@H@std@@V?$allocator@U?$pair@$$CBHPAVQuestExpReward@@@std@@@3@$0A@@std@@@std@@SAPAU_Node@?$_Tree_nod@V?$_Tmap_traits@HPAVQuestExpReward@@U?$less@H@std@@V?$allocator@U?$pair@$$CBHPAVQuestExpReward@@@std@@@3@$0A@@std@@@2@PAU342@@Z 004b0d40 f i QuestExpInfo.obj
 0001:000afd40       ?_Min@?$_Tree_val@V?$_Tmap_traits@KPAVQuestExpRewardKind@@U?$less@K@std@@V?$allocator@U?$pair@$$CBKPAVQuestExpRewardKind@@@std@@@3@$0A@@std@@@std@@SAPAU_Node@?$_Tree_nod@V?$_Tmap_traits@KPAVQuestExpRewardKind@@U?$less@K@std@@V?$allocator@U?$pair@$$CBKPAVQuestExpRewardKind@@@std@@@3@$0A@@std@@@2@PAU342@@Z 004b0d40 f i QuestExpInfo.obj
 0001:000afd40       ?_Min@?$_Tree_val@V?$_Tmap_traits@HPAVQuestExpAsk@@U?$less@H@std@@V?$allocator@U?$pair@$$CBHPAVQuestExpAsk@@@std@@@3@$0A@@std@@@std@@SAPAU_Node@?$_Tree_nod@V?$_Tmap_traits@HPAVQuestExpAsk@@U?$less@H@std@@V?$allocator@U?$pair@$$CBHPAVQuestExpAsk@@@std@@@3@$0A@@std@@@2@PAU342@@Z 004b0d40 f i QuestExpInfo.obj
 0001:000afd40       ?_Min@?$_Tree_val@V?$_Tmap_traits@HPAXU?$less@H@std@@V?$allocator@U?$pair@$$CBHPAX@std@@@2@$0A@@std@@@std@@SAPAU_Node@?$_Tree_nod@V?$_Tmap_traits@HPAXU?$less@H@std@@V?$allocator@U?$pair@$$CBHPAX@std@@@2@$0A@@std@@@2@PAU342@@Z 004b0d40 f i EventManagement.obj
 0001:000afd40       ?_Min@?$_Tree_val@V?$_Tmap_traits@HPAUGAMESHOP_ITEM_DATA@@U?$less@H@std@@V?$allocator@U?$pair@$$CBHPAUGAMESHOP_ITEM_DATA@@@std@@@3@$0A@@std@@@std@@SAPAU_Node@?$_Tree_nod@V?$_Tmap_traits@HPAUGAMESHOP_ITEM_DATA@@U?$less@H@std@@V?$allocator@U?$pair@$$CBHPAUGAMESHOP_ITEM_DATA@@@std@@@3@$0A@@std@@@2@PAU342@@Z 004b0d40 f i GameShop.obj
 0001:000afd40       ?_Min@?$_Tree_val@V?$_Tmap_traits@HHU?$less@H@std@@V?$allocator@U?$pair@$$CBHH@std@@@2@$0A@@std@@@std@@SAPAU_Node@?$_Tree_nod@V?$_Tmap_traits@HHU?$less@H@std@@V?$allocator@U?$pair@$$CBHH@std@@@2@$0A@@std@@@2@PAU342@@Z 004b0d40 f i CastleDeepEvent.obj
 0001:000afd40       ?_Min@?$_Tree_val@V?$_Tmap_traits@IHU?$less@I@std@@V?$allocator@U?$pair@$$CBIH@std@@@2@$0A@@std@@@std@@SAPAU_Node@?$_Tree_nod@V?$_Tmap_traits@IHU?$less@I@std@@V?$allocator@U?$pair@$$CBIH@std@@@2@$0A@@std@@@2@PAU342@@Z 004b0d40 f i CastleSiege.obj
 0001:000afd60       ??0_MAPSVR_DATA@@QAE@XZ    004b0d60 f   MapServerManager.obj
 0001:000afd80       ??_G_MAPSVR_DATA@@UAEPAXI@Z 004b0d80 f i MapServerManager.obj
 0001:000afd80       ??_E_MAPSVR_DATA@@UAEPAXI@Z 004b0d80 f i MapServerManager.obj
 0001:000afdb0       ?allocate@?$allocator@UItemRank_List@@@std@@QAEPAUItemRank_List@@I@Z 004b0db0 f i ItemRank.obj
 0001:000afdb0       ?allocate@?$allocator@PAVCXMasMonsterHerd@@@std@@QAEPAPAVCXMasMonsterHerd@@I@Z 004b0db0 f i XMasAttackEvent.obj
 0001:000afdb0       ?allocate@?$allocator@PAU_MAPSVR_DATA@@@std@@QAEPAPAU_MAPSVR_DATA@@I@Z 004b0db0 f i MapServerManager.obj
 0001:000afdb0       ?allocate@?$allocator@PAUOBJECTSTRUCT@@@std@@QAEPAPAUOBJECTSTRUCT@@I@Z 004b0db0 f i DevilSquareGround.obj
 0001:000afdb0       ?allocate@?$allocator@H@std@@QAEPAHI@Z 004b0db0 f i CastleDeepEvent.obj
 0001:000afe10       ?erase@?$_Tree@V?$_Tmap_traits@HPAUGAMESHOP_PACKAGE_DATA@@U?$less@H@std@@V?$allocator@U?$pair@$$CBHPAUGAMESHOP_PACKAGE_DATA@@@std@@@3@$0A@@std@@@std@@QAE?AV?$_Tree_iterator@V?$_Tree_val@V?$_Tmap_traits@HPAUGAMESHOP_PACKAGE_DATA@@U?$less@H@std@@V?$allocator@U?$pair@$$CBHPAUGAMESHOP_PACKAGE_DATA@@@std@@@3@$0A@@std@@@std@@@2@V?$_Tree_const_iterator@V?$_Tree_val@V?$_Tmap_traits@HPAUGAMESHOP_PACKAGE_DATA@@U?$less@H@std@@V?$allocator@U?$pair@$$CBHPAUGAMESHOP_PACKAGE_DATA@@@std@@@3@$0A@@std@@@std@@@2@@Z 004b0e10 f i GameShop.obj
 0001:000afe10       ?erase@?$_Tree@V?$_Tmap_traits@HPAVQuestExpAsk@@U?$less@H@std@@V?$allocator@U?$pair@$$CBHPAVQuestExpAsk@@@std@@@3@$0A@@std@@@std@@QAE?AV?$_Tree_iterator@V?$_Tree_val@V?$_Tmap_traits@HPAVQuestExpAsk@@U?$less@H@std@@V?$allocator@U?$pair@$$CBHPAVQuestExpAsk@@@std@@@3@$0A@@std@@@std@@@2@V?$_Tree_const_iterator@V?$_Tree_val@V?$_Tmap_traits@HPAVQuestExpAsk@@U?$less@H@std@@V?$allocator@U?$pair@$$CBHPAVQuestExpAsk@@@std@@@3@$0A@@std@@@std@@@2@@Z 004b0e10 f i QuestExpInfo.obj
 0001:000afe10       ?erase@?$_Tree@V?$_Tmap_traits@HPAXU?$less@H@std@@V?$allocator@U?$pair@$$CBHPAX@std@@@2@$0A@@std@@@std@@QAE?AV?$_Tree_iterator@V?$_Tree_val@V?$_Tmap_traits@HPAXU?$less@H@std@@V?$allocator@U?$pair@$$CBHPAX@std@@@2@$0A@@std@@@std@@@2@V?$_Tree_const_iterator@V?$_Tree_val@V?$_Tmap_traits@HPAXU?$less@H@std@@V?$allocator@U?$pair@$$CBHPAX@std@@@2@$0A@@std@@@std@@@2@@Z 004b0e10 f i EventManagement.obj
 0001:000afe10       ?erase@?$_Tree@V?$_Tmap_traits@HPAU_MAPSVR_DATA@@U?$less@H@std@@V?$allocator@U?$pair@$$CBHPAU_MAPSVR_DATA@@@std@@@3@$0A@@std@@@std@@QAE?AV?$_Tree_iterator@V?$_Tree_val@V?$_Tmap_traits@HPAU_MAPSVR_DATA@@U?$less@H@std@@V?$allocator@U?$pair@$$CBHPAU_MAPSVR_DATA@@@std@@@3@$0A@@std@@@std@@@2@V?$_Tree_const_iterator@V?$_Tree_val@V?$_Tmap_traits@HPAU_MAPSVR_DATA@@U?$less@H@std@@V?$allocator@U?$pair@$$CBHPAU_MAPSVR_DATA@@@std@@@3@$0A@@std@@@std@@@2@@Z 004b0e10 f i MapServerManager.obj
 0001:000afe10       ?erase@?$_Tree@V?$_Tmap_traits@HPAVTUnionInfo@@U?$less@H@std@@V?$allocator@U?$pair@$$CBHPAVTUnionInfo@@@std@@@3@$0A@@std@@@std@@QAE?AV?$_Tree_iterator@V?$_Tree_val@V?$_Tmap_traits@HPAVTUnionInfo@@U?$less@H@std@@V?$allocator@U?$pair@$$CBHPAVTUnionInfo@@@std@@@3@$0A@@std@@@std@@@2@V?$_Tree_const_iterator@V?$_Tree_val@V?$_Tmap_traits@HPAVTUnionInfo@@U?$less@H@std@@V?$allocator@U?$pair@$$CBHPAVTUnionInfo@@@std@@@3@$0A@@std@@@std@@@2@@Z 004b0e10 f i TUnion.obj
 0001:000afe10       ?erase@?$_Tree@V?$_Tmap_traits@HPAUGAMESHOP_ITEM_DATA@@U?$less@H@std@@V?$allocator@U?$pair@$$CBHPAUGAMESHOP_ITEM_DATA@@@std@@@3@$0A@@std@@@std@@QAE?AV?$_Tree_iterator@V?$_Tree_val@V?$_Tmap_traits@HPAUGAMESHOP_ITEM_DATA@@U?$less@H@std@@V?$allocator@U?$pair@$$CBHPAUGAMESHOP_ITEM_DATA@@@std@@@3@$0A@@std@@@std@@@2@V?$_Tree_const_iterator@V?$_Tree_val@V?$_Tmap_traits@HPAUGAMESHOP_ITEM_DATA@@U?$less@H@std@@V?$allocator@U?$pair@$$CBHPAUGAMESHOP_ITEM_DATA@@@std@@@3@$0A@@std@@@std@@@2@@Z 004b0e10 f i GameShop.obj
 0001:000afe10       ?erase@?$_Tree@V?$_Tmap_traits@HHU?$less@H@std@@V?$allocator@U?$pair@$$CBHH@std@@@2@$0A@@std@@@std@@QAE?AV?$_Tree_iterator@V?$_Tree_val@V?$_Tmap_traits@HHU?$less@H@std@@V?$allocator@U?$pair@$$CBHH@std@@@2@$0A@@std@@@std@@@2@V?$_Tree_const_iterator@V?$_Tree_val@V?$_Tmap_traits@HHU?$less@H@std@@V?$allocator@U?$pair@$$CBHH@std@@@2@$0A@@std@@@std@@@2@@Z 004b0e10 f i CastleDeepEvent.obj
 0001:000afe10       ?erase@?$_Tree@V?$_Tmap_traits@HPAVQuestExpReward@@U?$less@H@std@@V?$allocator@U?$pair@$$CBHPAVQuestExpReward@@@std@@@3@$0A@@std@@@std@@QAE?AV?$_Tree_iterator@V?$_Tree_val@V?$_Tmap_traits@HPAVQuestExpReward@@U?$less@H@std@@V?$allocator@U?$pair@$$CBHPAVQuestExpReward@@@std@@@3@$0A@@std@@@std@@@2@V?$_Tree_const_iterator@V?$_Tree_val@V?$_Tmap_traits@HPAVQuestExpReward@@U?$less@H@std@@V?$allocator@U?$pair@$$CBHPAVQuestExpReward@@@std@@@3@$0A@@std@@@std@@@2@@Z 004b0e10 f i QuestExpInfo.obj
 0001:000afe10       ?erase@?$_Tree@V?$_Tmap_traits@KPAVQuestExpRewardKind@@U?$less@K@std@@V?$allocator@U?$pair@$$CBKPAVQuestExpRewardKind@@@std@@@3@$0A@@std@@@std@@QAE?AV?$_Tree_iterator@V?$_Tree_val@V?$_Tmap_traits@KPAVQuestExpRewardKind@@U?$less@K@std@@V?$allocator@U?$pair@$$CBKPAVQuestExpRewardKind@@@std@@@3@$0A@@std@@@std@@@2@V?$_Tree_const_iterator@V?$_Tree_val@V?$_Tmap_traits@KPAVQuestExpRewardKind@@U?$less@K@std@@V?$allocator@U?$pair@$$CBKPAVQuestExpRewardKind@@@std@@@3@$0A@@std@@@std@@@2@@Z 004b0e10 f i QuestExpInfo.obj
 0001:000afe10       ?erase@?$_Tree@V?$_Tmap_traits@HPAU_GUILD_INFO_STRUCT@@U?$less@H@std@@V?$allocator@U?$pair@$$CBHPAU_GUILD_INFO_STRUCT@@@std@@@3@$0A@@std@@@std@@QAE?AV?$_Tree_iterator@V?$_Tree_val@V?$_Tmap_traits@HPAU_GUILD_INFO_STRUCT@@U?$less@H@std@@V?$allocator@U?$pair@$$CBHPAU_GUILD_INFO_STRUCT@@@std@@@3@$0A@@std@@@std@@@2@V?$_Tree_const_iterator@V?$_Tree_val@V?$_Tmap_traits@HPAU_GUILD_INFO_STRUCT@@U?$less@H@std@@V?$allocator@U?$pair@$$CBHPAU_GUILD_INFO_STRUCT@@@std@@@3@$0A@@std@@@std@@@2@@Z 004b0e10 f i GuildClass.obj
 0001:000afe10       ?erase@?$_Tree@V?$_Tmap_traits@IHU?$less@I@std@@V?$allocator@U?$pair@$$CBIH@std@@@2@$0A@@std@@@std@@QAE?AV?$_Tree_iterator@V?$_Tree_val@V?$_Tmap_traits@IHU?$less@I@std@@V?$allocator@U?$pair@$$CBIH@std@@@2@$0A@@std@@@std@@@2@V?$_Tree_const_iterator@V?$_Tree_val@V?$_Tmap_traits@IHU?$less@I@std@@V?$allocator@U?$pair@$$CBIH@std@@@2@$0A@@std@@@std@@@2@@Z 004b0e10 f i CastleSiege.obj
 0001:000b0060       ?_Reserve@?$vector@PAUOBJECTSTRUCT@@V?$allocator@PAUOBJECTSTRUCT@@@std@@@std@@IAEXI@Z 004b1060 f i DevilSquareGround.obj
 0001:000b0060       ?_Reserve@?$vector@PAU_MAPSVR_DATA@@V?$allocator@PAU_MAPSVR_DATA@@@std@@@std@@IAEXI@Z 004b1060 f i MapServerManager.obj
 0001:000b0060       ?_Reserve@?$vector@HV?$allocator@H@std@@@std@@IAEXI@Z 004b1060 f i CastleDeepEvent.obj
 0001:000b00c0       ?erase@?$_Tree@V?$_Tmap_traits@HPAU_MAPSVR_DATA@@U?$less@H@std@@V?$allocator@U?$pair@$$CBHPAU_MAPSVR_DATA@@@std@@@3@$0A@@std@@@std@@QAE?AV?$_Tree_iterator@V?$_Tree_val@V?$_Tmap_traits@HPAU_MAPSVR_DATA@@U?$less@H@std@@V?$allocator@U?$pair@$$CBHPAU_MAPSVR_DATA@@@std@@@3@$0A@@std@@@std@@@2@V?$_Tree_const_iterator@V?$_Tree_val@V?$_Tmap_traits@HPAU_MAPSVR_DATA@@U?$less@H@std@@V?$allocator@U?$pair@$$CBHPAU_MAPSVR_DATA@@@std@@@3@$0A@@std@@@std@@@2@0@Z 004b10c0 f i MapServerManager.obj
 0001:000b00c0       ?erase@?$_Tree@V?$_Tmap_traits@KPAVQuestExpRewardKind@@U?$less@K@std@@V?$allocator@U?$pair@$$CBKPAVQuestExpRewardKind@@@std@@@3@$0A@@std@@@std@@QAE?AV?$_Tree_iterator@V?$_Tree_val@V?$_Tmap_traits@KPAVQuestExpRewardKind@@U?$less@K@std@@V?$allocator@U?$pair@$$CBKPAVQuestExpRewardKind@@@std@@@3@$0A@@std@@@std@@@2@V?$_Tree_const_iterator@V?$_Tree_val@V?$_Tmap_traits@KPAVQuestExpRewardKind@@U?$less@K@std@@V?$allocator@U?$pair@$$CBKPAVQuestExpRewardKind@@@std@@@3@$0A@@std@@@std@@@2@0@Z 004b10c0 f i QuestExpInfo.obj
 0001:000b00c0       ?erase@?$_Tree@V?$_Tmap_traits@IHU?$less@I@std@@V?$allocator@U?$pair@$$CBIH@std@@@2@$0A@@std@@@std@@QAE?AV?$_Tree_iterator@V?$_Tree_val@V?$_Tmap_traits@IHU?$less@I@std@@V?$allocator@U?$pair@$$CBIH@std@@@2@$0A@@std@@@std@@@2@V?$_Tree_const_iterator@V?$_Tree_val@V?$_Tmap_traits@IHU?$less@I@std@@V?$allocator@U?$pair@$$CBIH@std@@@2@$0A@@std@@@std@@@2@0@Z 004b10c0 f i CastleSiege.obj
 0001:000b00c0       ?erase@?$_Tree@V?$_Tmap_traits@HPAVQuestExpReward@@U?$less@H@std@@V?$allocator@U?$pair@$$CBHPAVQuestExpReward@@@std@@@3@$0A@@std@@@std@@QAE?AV?$_Tree_iterator@V?$_Tree_val@V?$_Tmap_traits@HPAVQuestExpReward@@U?$less@H@std@@V?$allocator@U?$pair@$$CBHPAVQuestExpReward@@@std@@@3@$0A@@std@@@std@@@2@V?$_Tree_const_iterator@V?$_Tree_val@V?$_Tmap_traits@HPAVQuestExpReward@@U?$less@H@std@@V?$allocator@U?$pair@$$CBHPAVQuestExpReward@@@std@@@3@$0A@@std@@@std@@@2@0@Z 004b10c0 f i QuestExpInfo.obj
 0001:000b00c0       ?erase@?$_Tree@V?$_Tmap_traits@HPAUGAMESHOP_PACKAGE_DATA@@U?$less@H@std@@V?$allocator@U?$pair@$$CBHPAUGAMESHOP_PACKAGE_DATA@@@std@@@3@$0A@@std@@@std@@QAE?AV?$_Tree_iterator@V?$_Tree_val@V?$_Tmap_traits@HPAUGAMESHOP_PACKAGE_DATA@@U?$less@H@std@@V?$allocator@U?$pair@$$CBHPAUGAMESHOP_PACKAGE_DATA@@@std@@@3@$0A@@std@@@std@@@2@V?$_Tree_const_iterator@V?$_Tree_val@V?$_Tmap_traits@HPAUGAMESHOP_PACKAGE_DATA@@U?$less@H@std@@V?$allocator@U?$pair@$$CBHPAUGAMESHOP_PACKAGE_DATA@@@std@@@3@$0A@@std@@@std@@@2@0@Z 004b10c0 f i GameShop.obj
 0001:000b00c0       ?erase@?$_Tree@V?$_Tmap_traits@HPAVTUnionInfo@@U?$less@H@std@@V?$allocator@U?$pair@$$CBHPAVTUnionInfo@@@std@@@3@$0A@@std@@@std@@QAE?AV?$_Tree_iterator@V?$_Tree_val@V?$_Tmap_traits@HPAVTUnionInfo@@U?$less@H@std@@V?$allocator@U?$pair@$$CBHPAVTUnionInfo@@@std@@@3@$0A@@std@@@std@@@2@V?$_Tree_const_iterator@V?$_Tree_val@V?$_Tmap_traits@HPAVTUnionInfo@@U?$less@H@std@@V?$allocator@U?$pair@$$CBHPAVTUnionInfo@@@std@@@3@$0A@@std@@@std@@@2@0@Z 004b10c0 f i TUnion.obj
 0001:000b00c0       ?erase@?$_Tree@V?$_Tmap_traits@HPAUGAMESHOP_ITEM_DATA@@U?$less@H@std@@V?$allocator@U?$pair@$$CBHPAUGAMESHOP_ITEM_DATA@@@std@@@3@$0A@@std@@@std@@QAE?AV?$_Tree_iterator@V?$_Tree_val@V?$_Tmap_traits@HPAUGAMESHOP_ITEM_DATA@@U?$less@H@std@@V?$allocator@U?$pair@$$CBHPAUGAMESHOP_ITEM_DATA@@@std@@@3@$0A@@std@@@std@@@2@V?$_Tree_const_iterator@V?$_Tree_val@V?$_Tmap_traits@HPAUGAMESHOP_ITEM_DATA@@U?$less@H@std@@V?$allocator@U?$pair@$$CBHPAUGAMESHOP_ITEM_DATA@@@std@@@3@$0A@@std@@@std@@@2@0@Z 004b10c0 f i GameShop.obj
 0001:000b00c0       ?erase@?$_Tree@V?$_Tmap_traits@HPAVQuestExpAsk@@U?$less@H@std@@V?$allocator@U?$pair@$$CBHPAVQuestExpAsk@@@std@@@3@$0A@@std@@@std@@QAE?AV?$_Tree_iterator@V?$_Tree_val@V?$_Tmap_traits@HPAVQuestExpAsk@@U?$less@H@std@@V?$allocator@U?$pair@$$CBHPAVQuestExpAsk@@@std@@@3@$0A@@std@@@std@@@2@V?$_Tree_const_iterator@V?$_Tree_val@V?$_Tmap_traits@HPAVQuestExpAsk@@U?$less@H@std@@V?$allocator@U?$pair@$$CBHPAVQuestExpAsk@@@std@@@3@$0A@@std@@@std@@@2@0@Z 004b10c0 f i QuestExpInfo.obj
 0001:000b00c0       ?erase@?$_Tree@V?$_Tmap_traits@HPAXU?$less@H@std@@V?$allocator@U?$pair@$$CBHPAX@std@@@2@$0A@@std@@@std@@QAE?AV?$_Tree_iterator@V?$_Tree_val@V?$_Tmap_traits@HPAXU?$less@H@std@@V?$allocator@U?$pair@$$CBHPAX@std@@@2@$0A@@std@@@std@@@2@V?$_Tree_const_iterator@V?$_Tree_val@V?$_Tmap_traits@HPAXU?$less@H@std@@V?$allocator@U?$pair@$$CBHPAX@std@@@2@$0A@@std@@@std@@@2@0@Z 004b10c0 f i EventManagement.obj
 0001:000b00c0       ?erase@?$_Tree@V?$_Tmap_traits@HHU?$less@H@std@@V?$allocator@U?$pair@$$CBHH@std@@@2@$0A@@std@@@std@@QAE?AV?$_Tree_iterator@V?$_Tree_val@V?$_Tmap_traits@HHU?$less@H@std@@V?$allocator@U?$pair@$$CBHH@std@@@2@$0A@@std@@@std@@@2@V?$_Tree_const_iterator@V?$_Tree_val@V?$_Tmap_traits@HHU?$less@H@std@@V?$allocator@U?$pair@$$CBHH@std@@@2@$0A@@std@@@std@@@2@0@Z 004b10c0 f i CastleDeepEvent.obj
 0001:000b00c0       ?erase@?$_Tree@V?$_Tmap_traits@HPAU_GUILD_INFO_STRUCT@@U?$less@H@std@@V?$allocator@U?$pair@$$CBHPAU_GUILD_INFO_STRUCT@@@std@@@3@$0A@@std@@@std@@QAE?AV?$_Tree_iterator@V?$_Tree_val@V?$_Tmap_traits@HPAU_GUILD_INFO_STRUCT@@U?$less@H@std@@V?$allocator@U?$pair@$$CBHPAU_GUILD_INFO_STRUCT@@@std@@@3@$0A@@std@@@std@@@2@V?$_Tree_const_iterator@V?$_Tree_val@V?$_Tmap_traits@HPAU_GUILD_INFO_STRUCT@@U?$less@H@std@@V?$allocator@U?$pair@$$CBHPAU_GUILD_INFO_STRUCT@@@std@@@3@$0A@@std@@@std@@@2@0@Z 004b10c0 f i GuildClass.obj
 0001:000b0160       ?Clear@CMapServerManager@@QAEXXZ 004b1160 f   MapServerManager.obj
 0001:000b0210       ?push_back@?$vector@PAUOBJECTSTRUCT@@V?$allocator@PAUOBJECTSTRUCT@@@std@@@std@@QAEXABQAUOBJECTSTRUCT@@@Z 004b1210 f i DevilSquareGround.obj
 0001:000b0210       ?push_back@?$vector@PAU_MAPSVR_DATA@@V?$allocator@PAU_MAPSVR_DATA@@@std@@@std@@QAEXABQAU_MAPSVR_DATA@@@Z 004b1210 f i MapServerManager.obj
 0001:000b0210       ?push_back@?$vector@HV?$allocator@H@std@@@std@@QAEXABH@Z 004b1210 f i CastleDeepEvent.obj
 0001:000b0290       ?LoadData@CMapServerManager@@QAEHPAD@Z 004b1290 f   MapServerManager.obj
 0001:000b0910       ?CheckMoveMapSvr@CMapServerManager@@QAEFHHF@Z 004b1910 f   MapServerManager.obj
 0001:000b0e80       ?GetSvrCodeData@CMapServerManager@@QAEHGPADPAG@Z 004b1e80 f   MapServerManager.obj
 0001:000b0f20       ??1CMapServerManager@@UAE@XZ 004b1f20 f   MapServerManager.obj
 0001:000b0fd0       ??0CMapServerManager@@QAE@XZ 004b1fd0 f   MapServerManager.obj
 0001:000b10d0       ??_ECMapServerManager@@UAEPAXI@Z 004b20d0 f i MapServerManager.obj
 0001:000b10d0       ??_GCMapServerManager@@UAEPAXI@Z 004b20d0 f i MapServerManager.obj
 0001:000b13f0       ??0CMasterLevelSkillTreeSystem@@QAE@XZ 004b23f0 f   MasterLevelSkillTreeSystem.obj
 0001:000b1410       ??1CMasterLevelSkillTreeSystem@@UAE@XZ 004b2410 f   MasterLevelSkillTreeSystem.obj
 0001:000b1430       ?InitPassiveSkillData@CMasterLevelSkillTreeSystem@@QAEXPAUOBJECTSTRUCT@@@Z 004b2430 f   MasterLevelSkillTreeSystem.obj
 0001:000b1450       ?CheckMasterLevelSkill@CMasterLevelSkillTreeSystem@@QAEHH@Z 004b2450 f   MasterLevelSkillTreeSystem.obj
 0001:000b1480       ?IsExistMLSBasedSkill@CMasterLevelSkillTreeSystem@@QAEHPAUOBJECTSTRUCT@@H@Z 004b2480 f   MasterLevelSkillTreeSystem.obj
 0001:000b1500       ?GetBaseMasterLevelSkill@CMasterLevelSkillTreeSystem@@QAEHH@Z 004b2500 f   MasterLevelSkillTreeSystem.obj
 0001:000b1520       ?gObjMagicAdd_MLS@CMasterLevelSkillTreeSystem@@QAEHPAUOBJECTSTRUCT@@HH@Z 004b2520 f   MasterLevelSkillTreeSystem.obj
 0001:000b1840       ?MLS_Wheel@CMasterLevelSkillTreeSystem@@QAEXPAUOBJECTSTRUCT@@PAVCMagicInf@@HH@Z 004b2840 f   MasterLevelSkillTreeSystem.obj
 0001:000b19b0       ?MLS_SkillSword4_Magumsa@CMasterLevelSkillTreeSystem@@QAEXPAUOBJECTSTRUCT@@PAVCMagicInf@@HH@Z 004b29b0 f   MasterLevelSkillTreeSystem.obj
 0001:000b1a30       ?MLS_SkillSword4@CMasterLevelSkillTreeSystem@@QAEXPAUOBJECTSTRUCT@@PAVCMagicInf@@HH@Z 004b2a30 f   MasterLevelSkillTreeSystem.obj
 0001:000b1a30       ?MLS_SkillSword1@CMasterLevelSkillTreeSystem@@QAEXPAUOBJECTSTRUCT@@PAVCMagicInf@@HH@Z 004b2a30 f   MasterLevelSkillTreeSystem.obj
 0001:000b1a30       ?MLS_SkillSword2@CMasterLevelSkillTreeSystem@@QAEXPAUOBJECTSTRUCT@@PAVCMagicInf@@HH@Z 004b2a30 f   MasterLevelSkillTreeSystem.obj
 0001:000b1a30       ?MLS_SkillSword5@CMasterLevelSkillTreeSystem@@QAEXPAUOBJECTSTRUCT@@PAVCMagicInf@@HH@Z 004b2a30 f   MasterLevelSkillTreeSystem.obj
 0001:000b1ab0       ?MLS_SkillStrengthenThunder@CMasterLevelSkillTreeSystem@@QAEXPAUOBJECTSTRUCT@@PAVCMagicInf@@H@Z 004b2ab0 f   MasterLevelSkillTreeSystem.obj
 0001:000b1ab0       ?MLS_SkillStrengthenIce@CMasterLevelSkillTreeSystem@@QAEXPAUOBJECTSTRUCT@@PAVCMagicInf@@H@Z 004b2ab0 f   MasterLevelSkillTreeSystem.obj
 0001:000b1ab0       ?MLS_SkillStrengthenPoison@CMasterLevelSkillTreeSystem@@QAEXPAUOBJECTSTRUCT@@PAVCMagicInf@@H@Z 004b2ab0 f   MasterLevelSkillTreeSystem.obj
 0001:000b1b00       ?MLS_SkillMeteorit@CMasterLevelSkillTreeSystem@@QAEXPAUOBJECTSTRUCT@@HPAVCMagicInf@@@Z 004b2b00 f   MasterLevelSkillTreeSystem.obj
 0001:000b1b40       ?MLS_DarkHorseAttack@CMasterLevelSkillTreeSystem@@QAEHPAUOBJECTSTRUCT@@HPAVCMagicInf@@@Z 004b2b40 f   MasterLevelSkillTreeSystem.obj
 0001:000b1ca0       ?MLS_FireBurst@CMasterLevelSkillTreeSystem@@QAEHPAUOBJECTSTRUCT@@HPAVCMagicInf@@@Z 004b2ca0 f   MasterLevelSkillTreeSystem.obj
 0001:000b1e40       ?MLS_GetAngle@CMasterLevelSkillTreeSystem@@QAEHHHHH@Z 004b2e40 f   MasterLevelSkillTreeSystem.obj
 0001:000b1e90       ?MLS_KnightBlow@CMasterLevelSkillTreeSystem@@QAEHHHPAVCMagicInf@@H@Z 004b2e90 f   MasterLevelSkillTreeSystem.obj
 0001:000b20f0       ?MLS_SkillBlowOfFury@CMasterLevelSkillTreeSystem@@QAEXHPAVCMagicInf@@EEHH@Z 004b30f0 f   MasterLevelSkillTreeSystem.obj
 0001:000b2250       ?MLS_MaGumSkillDefenseDown@CMasterLevelSkillTreeSystem@@QAEXHH@Z 004b3250 f   MasterLevelSkillTreeSystem.obj
 0001:000b22c0       ?MLS_PowerSlash@CMasterLevelSkillTreeSystem@@QAEXHPAVCMagicInf@@EEEH@Z 004b32c0 f   MasterLevelSkillTreeSystem.obj
 0001:000b24a0       ?MLS_FireScream@CMasterLevelSkillTreeSystem@@QAEHHHPAVCMagicInf@@@Z 004b34a0 f   MasterLevelSkillTreeSystem.obj
 0001:000b24a0       ?SkillFireScream@CObjUseSkill@@QAEHHHPAVCMagicInf@@@Z 004b34a0 f   ObjUseSkill.obj
 0001:000b2530       ?MLS_WeaponSkillDel@CMasterLevelSkillTreeSystem@@QAEHPAUOBJECTSTRUCT@@EE@Z 004b3530 f   MasterLevelSkillTreeSystem.obj
 0001:000b2600       ?MLS_WeaponSkillAdd@CMasterLevelSkillTreeSystem@@QAEHPAUOBJECTSTRUCT@@EE@Z 004b3600 f   MasterLevelSkillTreeSystem.obj
 0001:000b26e0       ?CheckUsableWeaponSkill@CMasterLevelSkillTreeSystem@@QAEHPAUOBJECTSTRUCT@@H@Z 004b36e0 f   MasterLevelSkillTreeSystem.obj
 0001:000b27d0       ?MLS_SkillSleep@CMasterLevelSkillTreeSystem@@QAEHHHPAVCMagicInf@@@Z 004b37d0 f   MasterLevelSkillTreeSystem.obj
 0001:000b2990       ?SkillChainLightning@CObjUseSkill@@QAEHHHPAVCMagicInf@@@Z 004b3990 f   ObjUseSkill.obj
 0001:000b2990       ?MLS_SkillChainLightning@CMasterLevelSkillTreeSystem@@QAEHHHPAVCMagicInf@@@Z 004b3990 f   MasterLevelSkillTreeSystem.obj
 0001:000b2d20       ?MLS_SkillLightningShock@CMasterLevelSkillTreeSystem@@QAEHHHPAVCMagicInf@@@Z 004b3d20 f   MasterLevelSkillTreeSystem.obj
 0001:000b2ef0       ?SkillDrainLife@CObjUseSkill@@QAEHHHPAVCMagicInf@@@Z 004b3ef0 f   ObjUseSkill.obj
 0001:000b2ef0       ?MLS_SkillDrainLife@CMasterLevelSkillTreeSystem@@QAEHHHPAVCMagicInf@@@Z 004b3ef0 f   MasterLevelSkillTreeSystem.obj
 0001:000b3050       ?GetRequireMLPoint@CMasterLevelSkillTreeSystem@@QAEHHH@Z 004b4050 f   MasterLevelSkillTreeSystem.obj
 0001:000b3120       ?GetMaxPointOfMasterSkill@CMasterLevelSkillTreeSystem@@QAEHHH@Z 004b4120 f   MasterLevelSkillTreeSystem.obj
 0001:000b31f0       ?GetMasterSkillValue@CMasterLevelSkillTreeSystem@@QAEMHH@Z 004b41f0 f   MasterLevelSkillTreeSystem.obj
 0001:000b3240       ?GetBrandOfMasterSkillValue@CMasterLevelSkillTreeSystem@@QAEMPAUOBJECTSTRUCT@@HH@Z 004b4240 f   MasterLevelSkillTreeSystem.obj
 0001:000b32f0       ?CheckPreviousRankSkill@CMasterLevelSkillTreeSystem@@QAEHPAUOBJECTSTRUCT@@HH@Z 004b42f0 f   MasterLevelSkillTreeSystem.obj
 0001:000b3430       ?CheckSkillLevel@CMasterLevelSkillTreeSystem@@QAEHPAUOBJECTSTRUCT@@H@Z 004b4430 f   MasterLevelSkillTreeSystem.obj
 0001:000b3490       ?GetMasterSkillUIIndex@CMasterLevelSkillTreeSystem@@QAEHHH@Z 004b4490 f   MasterLevelSkillTreeSystem.obj
 0001:000b3560       ?GetParentSkill1@CMasterLevelSkillTreeSystem@@QAEHHH@Z 004b4560 f   MasterLevelSkillTreeSystem.obj
 0001:000b35f0       ?GetParentSkill2@CMasterLevelSkillTreeSystem@@QAEHHH@Z 004b45f0 f   MasterLevelSkillTreeSystem.obj
 0001:000b3680       ?GetCurSkillLevel@CMasterLevelSkillTreeSystem@@QAEHPAUOBJECTSTRUCT@@H@Z 004b4680 f   MasterLevelSkillTreeSystem.obj
 0001:000b36e0       ?RoundValue@CMasterLevelSkillTreeSystem@@QAEMNH@Z 004b46e0 f   MasterLevelSkillTreeSystem.obj
 0001:000b3770       ?GetSkillAttackDamage@CMasterLevelSkillTreeSystem@@QAEMPAUOBJECTSTRUCT@@H@Z 004b4770 f   MasterLevelSkillTreeSystem.obj
 0001:000b38b0       ?MLS_SkillMonkBuffApplyParty@CMasterLevelSkillTreeSystem@@QAEHHPAVCMagicInf@@@Z 004b48b0 f   MasterLevelSkillTreeSystem.obj
 0001:000b3c40       ?MLS_SkillMonkBuffApplyPartyMastery@CMasterLevelSkillTreeSystem@@QAEHHPAVCMagicInf@@@Z 004b4c40 f   MasterLevelSkillTreeSystem.obj
 0001:000b3ed0       ?MLS_SkillHellFire2Start@CMasterLevelSkillTreeSystem@@QAEHHPAVCMagicInf@@@Z 004b4ed0 f   MasterLevelSkillTreeSystem.obj
 0001:000b3f40       ?MLS_SkillEarthPrison@CMasterLevelSkillTreeSystem@@QAEXHHPAVCMagicInf@@@Z 004b4f40 f   MasterLevelSkillTreeSystem.obj
 0001:000b4140       ?MLS_SkillCure@CMasterLevelSkillTreeSystem@@QAEHHHPAVCMagicInf@@@Z 004b5140 f   MasterLevelSkillTreeSystem.obj
 0001:000b4190       ?MLS_SkillBless@CMasterLevelSkillTreeSystem@@QAEHHHPAVCMagicInf@@@Z 004b5190 f   MasterLevelSkillTreeSystem.obj
 0001:000b4270       ?MLS_SkillFlameStrike@CMasterLevelSkillTreeSystem@@QAEXHPAVCMagicInf@@EH@Z 004b5270 f   MasterLevelSkillTreeSystem.obj
 0001:000b44c0       ?MLS_SkillWeakness@CMasterLevelSkillTreeSystem@@QAEHHPAVCMagicInf@@EEH@Z 004b54c0 f   MasterLevelSkillTreeSystem.obj
 0001:000b44c0       ?MLS_SkillInnovation@CMasterLevelSkillTreeSystem@@QAEHHPAVCMagicInf@@EEH@Z 004b54c0 f   MasterLevelSkillTreeSystem.obj
 0001:000b4690       ?MLS_SkillBlind@CMasterLevelSkillTreeSystem@@QAEHHHPAVCMagicInf@@@Z 004b5690 f   MasterLevelSkillTreeSystem.obj
 0001:000b4aa0       ?MLS_SkillElectricSpark@CMasterLevelSkillTreeSystem@@QAEXHPAVCMagicInf@@EEEEH@Z 004b5aa0 f   MasterLevelSkillTreeSystem.obj
 0001:000b4c60       ?MLS_SkillChaoticDesier@CMasterLevelSkillTreeSystem@@QAEXHPAVCMagicInf@@EH@Z 004b5c60 f   MasterLevelSkillTreeSystem.obj
 0001:000b4e40       ?MLS_SkillIronDefense@CMasterLevelSkillTreeSystem@@QAEXHHPAVCMagicInf@@@Z 004b5e40 f   MasterLevelSkillTreeSystem.obj
 0001:000b4f10       ?MLS_SkillPartyHeal@CMasterLevelSkillTreeSystem@@QAEXHHPAVCMagicInf@@@Z 004b5f10 f   MasterLevelSkillTreeSystem.obj
 0001:000b5180       ??_ECMasterLevelSkillTreeSystem@@UAEPAXI@Z 004b6180 f i MasterLevelSkillTreeSystem.obj
 0001:000b5180       ??_GCMasterLevelSkillTreeSystem@@UAEPAXI@Z 004b6180 f i MasterLevelSkillTreeSystem.obj
 0001:000b51b0       ?Init@CMasterLevelSkillTreeSystem@@QAEXXZ 004b61b0 f   MasterLevelSkillTreeSystem.obj
 0001:000b59c0       ?Load@CMasterLevelSkillTreeSystem@@QAEXPBD@Z 004b69c0 f   MasterLevelSkillTreeSystem.obj
 0001:000b5d40       ?CalcPassiveSkillData@CMasterLevelSkillTreeSystem@@QAEXPAUOBJECTSTRUCT@@HH@Z 004b6d40 f   MasterLevelSkillTreeSystem.obj
 0001:000b64f0       ?CheckCompleteBrandOfSkill@CMasterLevelSkillTreeSystem@@QAEHPAUOBJECTSTRUCT@@H@Z 004b74f0 f   MasterLevelSkillTreeSystem.obj
 0001:000b6680       ?CGReqGetMasterLevelSkillTree@CMasterLevelSkillTreeSystem@@QAEXH@Z 004b7680 f   MasterLevelSkillTreeSystem.obj
 0001:000b6900       ?MLS_WizardMagicDefense@CMasterLevelSkillTreeSystem@@QAEXPAUOBJECTSTRUCT@@HPAVCMagicInf@@@Z 004b7900 f   MasterLevelSkillTreeSystem.obj
 0001:000b6a80       ?MLS_Healing@CMasterLevelSkillTreeSystem@@QAEXPAUOBJECTSTRUCT@@HPAVCMagicInf@@@Z 004b7a80 f   MasterLevelSkillTreeSystem.obj
 0001:000b6c90       ?MLS_KnightSkillAddLife@CMasterLevelSkillTreeSystem@@QAEXPAUOBJECTSTRUCT@@PAVCMagicInf@@@Z 004b7c90 f   MasterLevelSkillTreeSystem.obj
 0001:000b6f30       ?MLS_SkillFulKnightSkillAddLife@CMasterLevelSkillTreeSystem@@QAEXPAUOBJECTSTRUCT@@PAVCMagicInf@@@Z 004b7f30 f   MasterLevelSkillTreeSystem.obj
 0001:000b72a0       ?MLS_SkillStrengthenMagicPower@CMasterLevelSkillTreeSystem@@QAEHPAUOBJECTSTRUCT@@PAVCMagicInf@@H@Z 004b82a0 f   MasterLevelSkillTreeSystem.obj
 0001:000b7380       ?MLS_SkillSkillfulMagicPower@CMasterLevelSkillTreeSystem@@QAEHPAUOBJECTSTRUCT@@PAVCMagicInf@@H@Z 004b8380 f   MasterLevelSkillTreeSystem.obj
 0001:000b7480       ?MLS_SkillWizardMagicDefense@CMasterLevelSkillTreeSystem@@QAEXPAUOBJECTSTRUCT@@PAVCMagicInf@@H@Z 004b8480 f   MasterLevelSkillTreeSystem.obj
 0001:000b7720       ?MLS_SkillWizardMagicDefenseMastery@CMasterLevelSkillTreeSystem@@QAEXPAUOBJECTSTRUCT@@PAVCMagicInf@@H@Z 004b8720 f   MasterLevelSkillTreeSystem.obj
 0001:000b7960       ?MLS_SkillInfinityArrow@CMasterLevelSkillTreeSystem@@QAEHHHPAVCMagicInf@@@Z 004b8960 f   MasterLevelSkillTreeSystem.obj
 0001:000b7a40       ?MLS_SkillStrengthenBerserker@CMasterLevelSkillTreeSystem@@QAEHHPAVCMagicInf@@@Z 004b8a40 f   MasterLevelSkillTreeSystem.obj
 0001:000b7b30       ?MLS_SkillSkillfulBerserker@CMasterLevelSkillTreeSystem@@QAEHHPAVCMagicInf@@@Z 004b8b30 f   MasterLevelSkillTreeSystem.obj
 0001:000b7c20       ?MLS_SkillMasteryBerserker@CMasterLevelSkillTreeSystem@@QAEHHPAVCMagicInf@@@Z 004b8c20 f   MasterLevelSkillTreeSystem.obj
 0001:000b7d10       ?MLS_SkillStrendthenAddCriticalDamage@CMasterLevelSkillTreeSystem@@QAEXHHPAVCMagicInf@@@Z 004b8d10 f   MasterLevelSkillTreeSystem.obj
 0001:000b7f70       ?MLS_SkillSkillFulAddCriticalDamage@CMasterLevelSkillTreeSystem@@QAEXHHPAVCMagicInf@@@Z 004b8f70 f   MasterLevelSkillTreeSystem.obj
 0001:000b81e0       ?MLS_SkillMasteryAddCriticalDamage@CMasterLevelSkillTreeSystem@@QAEXHHPAVCMagicInf@@@Z 004b91e0 f   MasterLevelSkillTreeSystem.obj
 0001:000b8490       ?MLS_SkillFulMasteryAddCriticalDamage@CMasterLevelSkillTreeSystem@@QAEXHHPAVCMagicInf@@@Z 004b9490 f   MasterLevelSkillTreeSystem.obj
 0001:000b8770       ?MLS_SkillStrengthenSpear@CMasterLevelSkillTreeSystem@@QAEHHHPAVCMagicInf@@@Z 004b9770 f   MasterLevelSkillTreeSystem.obj
 0001:000b8950       ?MLS_CalDistance@CMasterLevelSkillTreeSystem@@QAEHHHHH@Z 004b9950 f   MasterLevelSkillTreeSystem.obj
 0001:000b8950       ?CalDistance@CChaosCastle@@QAEHHHHH@Z 004b9950 f   ChaosCastle.obj
 0001:000b8950       ?CalDistance@CObjUseSkill@@QAEHHHHH@Z 004b9950 f   ObjUseSkill.obj
 0001:000b89b0       ?MLS_SkillDefense@CMasterLevelSkillTreeSystem@@QAEXHHPAVCMagicInf@@@Z 004b99b0 f   MasterLevelSkillTreeSystem.obj
 0001:000b8b10       ?MLS_SkillAttack@CMasterLevelSkillTreeSystem@@QAEXHHPAVCMagicInf@@@Z 004b9b10 f   MasterLevelSkillTreeSystem.obj
 0001:000b8c70       ?MLS_SkillStrengthenAttack@CMasterLevelSkillTreeSystem@@QAEXHHPAVCMagicInf@@@Z 004b9c70 f   MasterLevelSkillTreeSystem.obj
 0001:000b8e70       ?MLS_SkillStrengthenDefense@CMasterLevelSkillTreeSystem@@QAEXHHPAVCMagicInf@@@Z 004b9e70 f   MasterLevelSkillTreeSystem.obj
 0001:000b9070       ?MLS_SkillMonkBarrageJustOneTarget@CMasterLevelSkillTreeSystem@@QAEXHPAVCMagicInf@@H@Z 004ba070 f   MasterLevelSkillTreeSystem.obj
 0001:000b9310       ?MLS_SkillMonkBarrageJustOneTargetMastery@CMasterLevelSkillTreeSystem@@QAEXHPAVCMagicInf@@H@Z 004ba310 f   MasterLevelSkillTreeSystem.obj
 0001:000b9570       ?MLS_SkillHellFire2@CMasterLevelSkillTreeSystem@@QAEHHHPAVCMagicInf@@@Z 004ba570 f   MasterLevelSkillTreeSystem.obj
 0001:000b96f0       ?MLS_SkillMultiShot@CMasterLevelSkillTreeSystem@@QAEXHPAVCMagicInf@@EH@Z 004ba6f0 f   MasterLevelSkillTreeSystem.obj
 0001:000b9bd0       ?CheckSkillCondition@CMasterLevelSkillTreeSystem@@QAEHPAUOBJECTSTRUCT@@HH@Z 004babd0 f   MasterLevelSkillTreeSystem.obj
 0001:000b9ce0       ?CGReqGetMasterLevelSkill@CMasterLevelSkillTreeSystem@@QAEXPAUPMSG_REQ_MASTERLEVEL_SKILL@@H@Z 004bace0 f   MasterLevelSkillTreeSystem.obj
 0001:000b9f80       ?MLS_SkillStrengthenDesruction@CMasterLevelSkillTreeSystem@@QAEHPAUOBJECTSTRUCT@@PAVCMagicInf@@EEHH@Z 004baf80 f   MasterLevelSkillTreeSystem.obj
 0001:000ba1b0       ?MLS_SkillStrengthenExPoison@CMasterLevelSkillTreeSystem@@QAEXHPAVCMagicInf@@EEH@Z 004bb1b0 f   MasterLevelSkillTreeSystem.obj
 0001:000ba320       ?MLS_SkillAreaMonsterAttack@CMasterLevelSkillTreeSystem@@QAEHHPAVCMagicInf@@EEHHHHH@Z 004bb320 f   MasterLevelSkillTreeSystem.obj
 0001:000ba610       ?MLS_SuddenIce@CMasterLevelSkillTreeSystem@@QAEHHPAVCMagicInf@@EEH@Z 004bb610 f   MasterLevelSkillTreeSystem.obj
 0001:000ba780       ?MLS_SkillGiganticStorm@CMasterLevelSkillTreeSystem@@QAEXHPAVCMagicInf@@EEH@Z 004bb780 f   MasterLevelSkillTreeSystem.obj
 0001:000ba7b0       ?RunningSkill_MLS@CMasterLevelSkillTreeSystem@@QAEHPAUOBJECTSTRUCT@@HPAVCMagicInf@@HEEEE@Z 004bb7b0 f   MasterLevelSkillTreeSystem.obj
 0001:000bb200       ??0CMercenary@@QAE@XZ      004bc200 f   Mercenary.obj
 0001:000bb210       ??1CMercenary@@UAE@XZ      004bc210 f   Mercenary.obj
 0001:000bb220       ?CreateMercenary@CMercenary@@QAEHHHEE@Z 004bc220 f   Mercenary.obj
 0001:000bb5f0       ?DeleteMercenary@CMercenary@@QAEHH@Z 004bc5f0 f   Mercenary.obj
 0001:000bb640       ??_GCMercenary@@UAEPAXI@Z  004bc640 f i Mercenary.obj
 0001:000bb640       ??_ECMercenary@@UAEPAXI@Z  004bc640 f i Mercenary.obj
 0001:000bb670       ?SearchEnemy@CMercenary@@QAEHPAUOBJECTSTRUCT@@@Z 004bc670 f   Mercenary.obj
 0001:000bb850       ?MercenaryAct@CMercenary@@QAEXH@Z 004bc850 f   Mercenary.obj
 0001:000bb8c0       ??0CMixSystem@@QAE@XZ      004bc8c0 f   MixSystem.obj
 0001:000bb970       ??1CMixSystem@@UAE@XZ      004bc970 f   MixSystem.obj
 0001:000bb980       ?ChaosBoxInit@CMixSystem@@QAEHPAUOBJECTSTRUCT@@@Z 004bc980 f   MixSystem.obj
 0001:000bbaa0       ?ChaosBoxItemDown@CMixSystem@@QAEHPAUOBJECTSTRUCT@@@Z 004bcaa0 f   MixSystem.obj
 0001:000bbd30       ?ChaosBoxMix@CMixSystem@@QAEHPAUOBJECTSTRUCT@@AAH1@Z 004bcd30 f   MixSystem.obj
 0001:000bc0f0       ?LogDQChaosItem@CMixSystem@@QAEXPAUOBJECTSTRUCT@@@Z 004bd0f0 f   MixSystem.obj
 0001:000bc230       ?CheckDevilSquareItem@CMixSystem@@QAEHPAUOBJECTSTRUCT@@AAH1@Z 004bd230 f   MixSystem.obj
 0001:000bc400       ?DevilSquareEventChaosMix@CMixSystem@@QAEHPAUOBJECTSTRUCT@@HH@Z 004bd400 f   MixSystem.obj
 0001:000bc750       ?DevilSquareItemChaosMix@CMixSystem@@QAEXPAUOBJECTSTRUCT@@@Z 004bd750 f   MixSystem.obj
 0001:000bc8d0       ?LogPlusItemLevelChaosItem@CMixSystem@@QAEXPAUOBJECTSTRUCT@@H@Z 004bd8d0 f   MixSystem.obj
 0001:000bca50       ?LogChaosItem@CMixSystem@@QAEXPAUOBJECTSTRUCT@@PAD@Z 004bda50 f   MixSystem.obj
 0001:000bcbb0       ?IsDeleteItem@CMixSystem@@QAEHH@Z 004bdbb0 f   MixSystem.obj
 0001:000bcbf0       ?PegasiaChaosMix@CMixSystem@@QAEHPAUOBJECTSTRUCT@@@Z 004bdbf0 f   MixSystem.obj
 0001:000bcf10       ?CircleChaosMix@CMixSystem@@QAEHPAUOBJECTSTRUCT@@@Z 004bdf10 f   MixSystem.obj
 0001:000bd230       ?WingChaosMix@CMixSystem@@QAEHPAUOBJECTSTRUCT@@@Z 004be230 f   MixSystem.obj
 0001:000bd880       ?BloodCastleItemChaosMix@CMixSystem@@QAEXPAUOBJECTSTRUCT@@@Z 004be880 f   MixSystem.obj
 0001:000bd9b0       ?DarkHorseChaosMix@CMixSystem@@QAEXPAUOBJECTSTRUCT@@@Z 004be9b0 f   MixSystem.obj
 0001:000bdd40       ?DarkSpiritChaosMix@CMixSystem@@QAEXPAUOBJECTSTRUCT@@@Z 004bed40 f   MixSystem.obj
 0001:000be0e0       ?BlessPotionChaosMix@CMixSystem@@QAEXPAUOBJECTSTRUCT@@@Z 004bf0e0 f   MixSystem.obj
 0001:000be350       ?SoulPotionChaosMix@CMixSystem@@QAEXPAUOBJECTSTRUCT@@@Z 004bf350 f   MixSystem.obj
 0001:000be5c0       ?LifeStoneChaosMix@CMixSystem@@QAEXPAUOBJECTSTRUCT@@@Z 004bf5c0 f   MixSystem.obj
 0001:000be850       ?CastleSpecialItemMix@CMixSystem@@QAEXPAUOBJECTSTRUCT@@@Z 004bf850 f   MixSystem.obj
 0001:000bed80       ?HiddenTreasureBoxItemMix@CMixSystem@@QAEXPAUOBJECTSTRUCT@@@Z 004bfd80 f   MixSystem.obj
 0001:000bf0d0       ?Fenrir_01Level_Mix@CMixSystem@@QAEXPAUOBJECTSTRUCT@@@Z 004c00d0 f   MixSystem.obj
 0001:000bf390       ?Fenrir_02Level_Mix@CMixSystem@@QAEXPAUOBJECTSTRUCT@@@Z 004c0390 f   MixSystem.obj
 0001:000bf600       ?Fenrir_03Level_Mix@CMixSystem@@QAEXPAUOBJECTSTRUCT@@@Z 004c0600 f   MixSystem.obj
 0001:000bf8c0       ?Fenrir_04Upgrade_Mix@CMixSystem@@QAEXPAUOBJECTSTRUCT@@@Z 004c08c0 f   MixSystem.obj
 0001:000bfcb0       ?ShieldPotionLv1_Mix@CMixSystem@@QAEXPAUOBJECTSTRUCT@@@Z 004c0cb0 f   MixSystem.obj
 0001:000bff50       ?ShieldPotionLv2_Mix@CMixSystem@@QAEXPAUOBJECTSTRUCT@@@Z 004c0f50 f   MixSystem.obj
 0001:000c01e0       ?ShieldPotionLv3_Mix@CMixSystem@@QAEXPAUOBJECTSTRUCT@@@Z 004c11e0 f   MixSystem.obj
 0001:000c0470       ?IsMixPossibleItem@CMixSystem@@QAEHH@Z 004c1470 f   MixSystem.obj
 0001:000c04b0       ?Check2ndWingItem@CMixSystem@@QAEHH@Z 004c14b0 f   MixSystem.obj
 0001:000c0500       ?CheckLevelCondition@CMixSystem@@QAEHPAVCItem@@FEEEEE@Z 004c1500 f   MixSystem.obj
 0001:000c0580       ?ThirdWingMixFailItemPanalty@CMixSystem@@QAEXPAVCItem@@@Z 004c1580 f   MixSystem.obj
 0001:000c0610       ?CBUPS_ItemRequest@CMixSystem@@QAEXHPAD0@Z 004c1610 f   MixSystem.obj
 0001:000c0690       ?ChaosCardMix@CMixSystem@@QAEXPAUOBJECTSTRUCT@@@Z 004c1690 f   MixSystem.obj
 0001:000c09c0       ?CherryBlossomMix@CMixSystem@@QAEXPAUOBJECTSTRUCT@@@Z 004c19c0 f   MixSystem.obj
 0001:000c0d10       ?MixExtractSeed@CMixSystem@@QAEXPAUOBJECTSTRUCT@@@Z 004c1d10 f   MixSystem.obj
 0001:000c1160       ?MixCompositeSeedSphere@CMixSystem@@QAEXPAUOBJECTSTRUCT@@@Z 004c2160 f   MixSystem.obj
 0001:000c14d0       ?MixSetSeedSphere@CMixSystem@@QAEXPAUOBJECTSTRUCT@@E@Z 004c24d0 f   MixSystem.obj
 0001:000c1a00       ?MixRemoveSeedSphere@CMixSystem@@QAEXPAUOBJECTSTRUCT@@E@Z 004c2a00 f   MixSystem.obj
 0001:000c1c80       ?EventDungeonKeyItemMix@CMixSystem@@QAEXPAUOBJECTSTRUCT@@@Z 004c2c80 f   MixSystem.obj
 0001:000c1e60       ?GoldenNSilverBoxMix@CMixSystem@@QAEXPAUOBJECTSTRUCT@@@Z 004c2e60 f   MixSystem.obj
 0001:000c1fd0       ?Check4thWingItem@CMixSystem@@QAEHH@Z 004c2fd0 f   MixSystem.obj
 0001:000c2050       ??_GCMixSystem@@UAEPAXI@Z  004c3050 f i MixSystem.obj
 0001:000c2050       ??_ECMixSystem@@UAEPAXI@Z  004c3050 f i MixSystem.obj
 0001:000c2080       ?DefaultChaosMix@CMixSystem@@QAEXPAUOBJECTSTRUCT@@@Z 004c3080 f   MixSystem.obj
 0001:000c2470       ?ChaosMixCharmItemUsed@CMixSystem@@QAEXPAUOBJECTSTRUCT@@@Z 004c3470 f   MixSystem.obj
 0001:000c24f0       ?ThirdWingMixFail@CMixSystem@@QAEXPAUOBJECTSTRUCT@@@Z 004c34f0 f   MixSystem.obj
 0001:000c25b0       ?FourthWingMixFail@CMixSystem@@QAEXPAUOBJECTSTRUCT@@@Z 004c35b0 f   MixSystem.obj
 0001:000c2670       ?PlusItemLevelChaosMix@CMixSystem@@QAEHPAUOBJECTSTRUCT@@H@Z 004c3670 f   MixSystem.obj
 0001:000c3060       ?ThirdWingLevel1_Mix@CMixSystem@@QAEXPAUOBJECTSTRUCT@@@Z 004c4060 f   MixSystem.obj
 0001:000c33c0       ?ThirdWingLevel2_Mix@CMixSystem@@QAEXPAUOBJECTSTRUCT@@@Z 004c43c0 f   MixSystem.obj
 0001:000c38c0       ?NewWingsMix_Part1@CMixSystem@@QAEXPAUOBJECTSTRUCT@@@Z 004c48c0 f   MixSystem.obj
 0001:000c3ce0       ??0CMonsterAttr@@QAE@XZ    004c4ce0 f   MonsterAttr.obj
 0001:000c3cf0       ??1CMonsterAttr@@UAE@XZ    004c4cf0 f   MonsterAttr.obj
 0001:000c3d00       ?GetAttr@CMonsterAttr@@QAEPAUMONSTER_ATTRIBUTE@@H@Z 004c4d00 f   MonsterAttr.obj
 0001:000c3d40       ?GetAttr@CMonsterAttr@@QAEPAUMONSTER_ATTRIBUTE@@PAD@Z 004c4d40 f   MonsterAttr.obj
 0001:000c3db0       ?LoadAttr@CMonsterAttr@@QAEXPADH@Z 004c4db0 f   MonsterAttr.obj
 0001:000c4230       ??_ECMonsterAttr@@UAEPAXI@Z 004c5230 f i MonsterAttr.obj
 0001:000c4230       ??_GCMonsterAttr@@UAEPAXI@Z 004c5230 f i MonsterAttr.obj
 0001:000c4260       ?SetTotalInfo@MonsterHerd@@UAEHHHHH@Z 004c5260 f   MonsterHerd.obj
 0001:000c4300       ?SetRadius@MonsterHerd@@UAEXH@Z 004c5300 f   MonsterHerd.obj
 0001:000c4320       ?SetPosition@MonsterHerd@@UAEXEE@Z 004c5320 f   MonsterHerd.obj
 0001:000c4360       ?Start@MonsterHerd@@UAEHXZ 004c5360 f   MonsterHerd.obj
 0001:000c4380       ?CheckInRadius@MonsterHerd@@UAEHH@Z 004c5380 f   MonsterHerd.obj
 0001:000c43f0       ?GetCurrentLocation@MonsterHerd@@UAEHAAE0@Z 004c53f0 f   MonsterHerd.obj
 0001:000c4420       ?GetRandomLocation@MonsterHerd@@UAEHAAE0@Z 004c5420 f   MonsterHerd.obj
 0001:000c44f0       ?CheckLocation@MonsterHerd@@UAEHAAE0@Z 004c54f0 f   MonsterHerd.obj
 0001:000c4530       ?MoveHerd@MonsterHerd@@UAEHEE@Z 004c5530 f   MonsterHerd.obj
 0001:000c4590       ?MonsterMoveAction@MonsterHerd@@UAEXPAUOBJECTSTRUCT@@@Z 004c5590 f   MonsterHerd.obj
 0001:000c4640       ?MonsterAttackAction@MonsterHerd@@UAEXPAUOBJECTSTRUCT@@0@Z 004c5640 f   MonsterHerd.obj
 0001:000c4660       ?MonsterBaseAct@MonsterHerd@@UAEXPAUOBJECTSTRUCT@@@Z 004c5660 f   MonsterHerd.obj
 0001:000c49f0       ?MonsterRegenAction@MonsterHerd@@UAEHPAUOBJECTSTRUCT@@@Z 004c59f0 f   MonsterHerd.obj
 0001:000c4bd0       ?BeenAttacked@MonsterHerd@@UAEXPAUOBJECTSTRUCT@@0@Z 004c5bd0 f   MonsterHerd.obj
 0001:000c4d30       ?OrderAttack@MonsterHerd@@UAEXPAUOBJECTSTRUCT@@0H@Z 004c5d30 f   MonsterHerd.obj
 0001:000c4e90       ?AddMonster@MonsterHerd@@UAEHHHH@Z 004c5e90 f   MonsterHerd.obj
 0001:000c50b0       ?Stop@MonsterHerd@@UAEXXZ  004c60b0 f   MonsterHerd.obj
 0001:000c5180       ?GetMonsterData@MonsterHerd@@UAEPAU_MONSTER_HERD_DATA@@H@Z 004c6180 f   MonsterHerd.obj
 0001:000c5210       ??1MonsterHerd@@UAE@XZ     004c6210 f   MonsterHerd.obj
 0001:000c5290       ??0MonsterHerd@@QAE@XZ     004c6290 f   MonsterHerd.obj
 0001:000c5320       ??_EMonsterHerd@@UAEPAXI@Z 004c6320 f i MonsterHerd.obj
 0001:000c5320       ??_GMonsterHerd@@UAEPAXI@Z 004c6320 f i MonsterHerd.obj
 0001:000c5640       ??0CMonsterItemMng@@QAE@XZ 004c6640 f   MonsterItemMng.obj
 0001:000c5680       ?Clear@CMonsterItemMng@@QAEXXZ 004c6680 f   MonsterItemMng.obj
 0001:000c5770       ?InsertItem@CMonsterItemMng@@QAEEHHHHHHH@Z 004c6770 f   MonsterItemMng.obj
 0001:000c5840       ?LoadMonsterItemDropRate@CMonsterItemMng@@QAEXXZ 004c6840 f   MonsterItemMng.obj
 0001:000c5a50       ?MakeJewelItem@CMonsterItemMng@@QAEXXZ 004c6a50 f   MonsterItemMng.obj
 0001:000c5ca0       ?MagicBookGiveItemSearch@CMonsterItemMng@@QAEXHH@Z 004c6ca0 f   MonsterItemMng.obj
 0001:000c5ed0       ?CheckMonsterDropItem@CMonsterItemMng@@QAEHHH@Z 004c6ed0 f   MonsterItemMng.obj
 0001:000c6020       ?GetItemEx@CMonsterItemMng@@QAEPAVCItem@@H@Z 004c7020 f   MonsterItemMng.obj
 0001:000c6150       ??1CMonsterItemMng@@UAE@XZ 004c7150 f   MonsterItemMng.obj
 0001:000c6160       ?NormalGiveItemSearch@CMonsterItemMng@@QAEXHH@Z 004c7160 f   MonsterItemMng.obj
 0001:000c63a0       ??_ECMonsterItemMng@@UAEPAXI@Z 004c73a0 f i MonsterItemMng.obj
 0001:000c63a0       ??_GCMonsterItemMng@@UAEPAXI@Z 004c73a0 f i MonsterItemMng.obj
 0001:000c63d0       ?gObjGiveItemSearchEx@CMonsterItemMng@@QAEXHH@Z 004c73d0 f   MonsterItemMng.obj
 0001:000c6400       ?Init@CMonsterItemMng@@QAEXXZ 004c7400 f   MonsterItemMng.obj
 0001:000c65a0       ??0_stRegenArea@@QAE@XZ    004c75a0 f i MonsterRegenSystem.obj
 0001:000c65c0       ??0_stMonsterIndexInf@@QAE@XZ 004c75c0 f i MonsterRegenSystem.obj
 0001:000c65d0       ??0_stRegenTimeTable@@QAE@XZ 004c75d0 f i MonsterRegenSystem.obj
 0001:000c65f0       ??0_stMonsterAccountNumInfo@@QAE@XZ 004c75f0 f i MonsterRegenSystem.obj
 0001:000c68f0       ??1CMonsterRegenSystem@@UAE@XZ 004c78f0 f   MonsterRegenSystem.obj
 0001:000c6900       ?LoadScript@CMonsterRegenSystem@@QAEXPBD@Z 004c7900 f   MonsterRegenSystem.obj
 0001:000c6d80       ?GetBoxPosition@CMonsterRegenSystem@@AAEHHHHHHAAF0@Z 004c7d80 f   MonsterRegenSystem.obj
 0001:000c6e90       ?IsLiveBossState@CMonsterRegenSystem@@QAE_NH@Z 004c7e90 f   MonsterRegenSystem.obj
 0001:000c6ef0       ?DeleteMonster@CMonsterRegenSystem@@QAEXH@Z 004c7ef0 f   MonsterRegenSystem.obj
 0001:000c6f60       ?SetRegenTimeTable@CMonsterRegenSystem@@QAEXXZ 004c7f60 f   MonsterRegenSystem.obj
 0001:000c7010       ?IsRegenTime@CMonsterRegenSystem@@QAE_NHHH_N@Z 004c8010 f   MonsterRegenSystem.obj
 0001:000c7070       ??0CMonsterRegenSystem@@QAE@XZ 004c8070 f   MonsterRegenSystem.obj
 0001:000c7160       ??_GCMonsterRegenSystem@@UAEPAXI@Z 004c8160 f i MonsterRegenSystem.obj
 0001:000c7160       ??_ECMonsterRegenSystem@@UAEPAXI@Z 004c8160 f i MonsterRegenSystem.obj
 0001:000c7190       ?SetPosMonster@CMonsterRegenSystem@@AAEHHHHHHH@Z 004c8190 f   MonsterRegenSystem.obj
 0001:000c7270       ?RegenMonster@CMonsterRegenSystem@@QAEXH@Z 004c8270 f   MonsterRegenSystem.obj
 0001:000c74a0       ?Run@CMonsterRegenSystem@@QAEXXZ 004c84a0 f   MonsterRegenSystem.obj
 0001:000c7650       ??0CMonsterSetBase@@QAE@XZ 004c8650 f   MonsterSetBase.obj
 0001:000c7660       ??1CMonsterSetBase@@UAE@XZ 004c8660 f   MonsterSetBase.obj
 0001:000c7670       ?GetBoxPosition@CMonsterSetBase@@QAEHHHHHHAAF0@Z 004c8670 f   MonsterSetBase.obj
 0001:000c7780       ?GetPosition@CMonsterSetBase@@QAEHHFAAF0@Z 004c8780 f   MonsterSetBase.obj
 0001:000c7980       ?LoadSetBase@CMonsterSetBase@@QAEXPADH@Z 004c8980 f   MonsterSetBase.obj
 0001:000c7f00       ??_ECMonsterSetBase@@UAEPAXI@Z 004c8f00 f i MonsterSetBase.obj
 0001:000c7f00       ??_GCMonsterSetBase@@UAEPAXI@Z 004c8f00 f i MonsterSetBase.obj
 0001:000c8270       ?ConvertMonsterStat@CMonsterStatCalc@@QAEHPAUOBJECTSTRUCT@@HH@Z 004c9270 f   MonsterStatCalc.obj
 0001:000c8580       ?allocate@?$allocator@U_stMonsterStatRef@@@std@@QAEPAU_stMonsterStatRef@@I@Z 004c9580 f i MonsterStatCalc.obj
 0001:000c85e0       ??$_Cons_val@V?$allocator@U_stMonsterStatRef@@@std@@U_stMonsterStatRef@@U3@@std@@YAXAAV?$allocator@U_stMonsterStatRef@@@0@PAU_stMonsterStatRef@@$$QAU2@@Z 004c95e0 f i MonsterStatCalc.obj
 0001:000c85e0       ??$_Cons_val@V?$allocator@U_stMonsterStatRef@@@std@@U_stMonsterStatRef@@AAU3@@std@@YAXAAV?$allocator@U_stMonsterStatRef@@@0@PAU_stMonsterStatRef@@AAU2@@Z 004c95e0 f i MonsterStatCalc.obj
 0001:000c85e0       ??$_Cons_val@V?$allocator@U_stMonsterStatRef@@@std@@U_stMonsterStatRef@@ABU3@@std@@YAXAAV?$allocator@U_stMonsterStatRef@@@0@PAU_stMonsterStatRef@@ABU2@@Z 004c95e0 f i MonsterStatCalc.obj
 0001:000c8600       ??$_Uninit_move@PAU_stMonsterStatRef@@PAU1@V?$allocator@U_stMonsterStatRef@@@std@@U1@@std@@YAPAU_stMonsterStatRef@@PAU1@00AAV?$allocator@U_stMonsterStatRef@@@0@0U_Nonscalar_ptr_iterator_tag@0@@Z 004c9600 f i MonsterStatCalc.obj
 0001:000c8640       ?reserve@?$vector@U_stMonsterStatRef@@V?$allocator@U_stMonsterStatRef@@@std@@@std@@QAEXI@Z 004c9640 f i MonsterStatCalc.obj
 0001:000c8730       ??0CMonsterStatCalc@@QAE@XZ 004c9730 f   MonsterStatCalc.obj
 0001:000c8750       ??1CMonsterStatCalc@@UAE@XZ 004c9750 f   MonsterStatCalc.obj
 0001:000c8780       ??_ECMonsterStatCalc@@UAEPAXI@Z 004c9780 f i MonsterStatCalc.obj
 0001:000c8780       ??_GCMonsterStatCalc@@UAEPAXI@Z 004c9780 f i MonsterStatCalc.obj
 0001:000c87b0       ?LoadScript@CMonsterStatCalc@@QAEXPBD@Z 004c97b0 f   MonsterStatCalc.obj
 0001:000c8d90       ??0CMoveCommand@@QAE@XZ    004c9d90 f   MoveCommand.obj
 0001:000c8da0       ??1CMoveCommand@@UAE@XZ    004c9da0 f   MoveCommand.obj
 0001:000c8db0       ?Init@CMoveCommand@@QAEXXZ 004c9db0 f   MoveCommand.obj
 0001:000c8de0       ?Load@CMoveCommand@@QAEHPADH@Z 004c9de0 f   MoveCommand.obj
 0001:000c8f80       ?LoadMoveLevel@CMoveCommand@@QAEHPAD@Z 004c9f80 f   MoveCommand.obj
 0001:000c90b0       ?GetMoveLevel@CMoveCommand@@QAEHHHHH@Z 004ca0b0 f   MoveCommand.obj
 0001:000c9160       ?CheckMainToMove@CMoveCommand@@QAEHPAUOBJECTSTRUCT@@@Z 004ca160 f   MoveCommand.obj
 0001:000c91f0       ?CheckEquipmentToMove@CMoveCommand@@QAEHPAUOBJECTSTRUCT@@H@Z 004ca1f0 f   MoveCommand.obj
 0001:000c9400       ?CheckInterfaceToMove@CMoveCommand@@QAEHPAUOBJECTSTRUCT@@@Z 004ca400 f   MoveCommand.obj
 0001:000c9430       ?FindIndex@CMoveCommand@@AAEHPAD@Z 004ca430 f   MoveCommand.obj
 0001:000c94b0       ?Move@CMoveCommand@@QAEHPAUOBJECTSTRUCT@@PAD@Z 004ca4b0 f   MoveCommand.obj
 0001:000c9770       ?GetKalimaGateLevel@@YAHPAUOBJECTSTRUCT@@@Z 004ca770 f   MoveCommand.obj
 0001:000c97f0       ?MoveFree2Kalima@CMoveCommand@@QAEHPAUOBJECTSTRUCT@@@Z 004ca7f0 f   MoveCommand.obj
 0001:000c9830       ?FindIndex@CMoveCommand@@QAEHH@Z 004ca830 f   MoveCommand.obj
 0001:000c9860       ?CheckMoveNum@CMoveCommand@@QAEHH@Z 004ca860 f   MoveCommand.obj
 0001:000c9890       ?GetMoveCommandData@CMoveCommand@@QAEPAUMOVE_COMMAND_DATA@@H@Z 004ca890 f   MoveCommand.obj
 0001:000c98d0       ??_ECMoveCommand@@UAEPAXI@Z 004ca8d0 f i MoveCommand.obj
 0001:000c98d0       ??_GCMoveCommand@@UAEPAXI@Z 004ca8d0 f i MoveCommand.obj
 0001:000c9900       ?Move@CMoveCommand@@QAEHPAUOBJECTSTRUCT@@H@Z 004ca900 f   MoveCommand.obj
 0001:000c9e70       ??1MUHelper@@UAE@XZ        004cae70 f   MUHelper.obj
 0001:000c9e80       ?Init@MUHelper@@QAEXXZ     004cae80 f   MUHelper.obj
 0001:000c9ea0       ?ReadData@MUHelper@@QAEXPAD@Z 004caea0 f   MUHelper.obj
 0001:000ca040       ?Load@MUHelper@@QAEXXZ     004cb040 f   MUHelper.obj
 0001:000ca060       ?Close@MUHelper@@QAEXPAUOBJECTSTRUCT@@@Z 004cb060 f   MUHelper.obj
 0001:000ca0f0       ?SetStage@MUHelper@@QAEXPAUOBJECTSTRUCT@@G@Z 004cb0f0 f   MUHelper.obj
 0001:000ca130       ?GetMoney@MUHelper@@QAEHPAUOBJECTSTRUCT@@@Z 004cb130 f   MUHelper.obj
 0001:000ca160       ?CheckMoney@MUHelper@@QAE_NPAUOBJECTSTRUCT@@@Z 004cb160 f   MUHelper.obj
 0001:000ca200       ?SendMoney@MUHelper@@QAEXPAUOBJECTSTRUCT@@G@Z 004cb200 f   MUHelper.obj
 0001:000ca2a0       ?SaveMacro@MUHelper@@QAEXHPAUMUHELPER_MACRO_CLIENT@@@Z 004cb2a0 f   MUHelper.obj
 0001:000ca380       ?ReqMacro@MUHelper@@QAEXH@Z 004cb380 f   MUHelper.obj
 0001:000ca440       ?SendMacro@MUHelper@@QAEXPAUMUHELPER_MACRO_DS@@@Z 004cb440 f   MUHelper.obj
 0001:000ca4e0       ??0MUHelper@@QAE@XZ        004cb4e0 f   MUHelper.obj
 0001:000ca4f0       ??_GMUHelper@@UAEPAXI@Z    004cb4f0 f i MUHelper.obj
 0001:000ca4f0       ??_EMUHelper@@UAEPAXI@Z    004cb4f0 f i MUHelper.obj
 0001:000ca520       ?Start@MUHelper@@QAEXPAUOBJECTSTRUCT@@@Z 004cb520 f   MUHelper.obj
 0001:000ca5e0       ?Work@MUHelper@@QAEXPAUOBJECTSTRUCT@@@Z 004cb5e0 f   MUHelper.obj
 0001:000ca690       ?Manager@MUHelper@@QAEXHPAUMUHELPER_REQ_ACTION@@@Z 004cb690 f   MUHelper.obj
 0001:000ca6f0       ??1CMultiAttackHackCheck@@UAE@XZ 004cb6f0 f   MultiAttackHackCheck.obj
 0001:000ca700       ?Init@CMultiAttackHackCheck@@QAEXXZ 004cb700 f   MultiAttackHackCheck.obj
 0001:000ca740       ?CheckPenetrationSkill@CMultiAttackHackCheck@@QAEHHEE@Z 004cb740 f   MultiAttackHackCheck.obj
 0001:000ca820       ?CheckFireScreamSkill@CMultiAttackHackCheck@@QAEHHEE@Z 004cb820 f   MultiAttackHackCheck.obj
 0001:000ca8d0       ??0CMultiAttackHackCheck@@QAE@XZ 004cb8d0 f   MultiAttackHackCheck.obj
 0001:000ca8f0       ??_ECMultiAttackHackCheck@@UAEPAXI@Z 004cb8f0 f i MultiAttackHackCheck.obj
 0001:000ca8f0       ??_GCMultiAttackHackCheck@@UAEPAXI@Z 004cb8f0 f i MultiAttackHackCheck.obj
 0001:000ca920       ??1CMultiCheckSum@@UAE@XZ  004cb920 f   MultiCheckSum.obj
 0001:000ca930       ?Init@CMultiCheckSum@@QAEXXZ 004cb930 f   MultiCheckSum.obj
 0001:000ca960       ??0CMultiCheckSum@@QAE@XZ  004cb960 f   MultiCheckSum.obj
 0001:000ca970       ??_ECMultiCheckSum@@UAEPAXI@Z 004cb970 f i MultiCheckSum.obj
 0001:000ca970       ??_GCMultiCheckSum@@UAEPAXI@Z 004cb970 f i MultiCheckSum.obj
 0001:000ca9a0       ??1MyWinsockBase@@QAE@XZ   004cb9a0 f   MyWinsockBase.obj
 0001:000ca9b0       ?Startup@MyWinsockBase@@AAEHXZ 004cb9b0 f   MyWinsockBase.obj
 0001:000caa60       ?CreateSocket@MyWinsockBase@@QAEHPAUHWND__@@@Z 004cba60 f   MyWinsockBase.obj
 0001:000caaa0       ?Close@MyWinsockBase@@QAEHXZ 004cbaa0 f   MyWinsockBase.obj
 0001:000caad0       ?Close@MyWinsockBase@@QAEHI@Z 004cbad0 f   MyWinsockBase.obj
 0001:000cab10       ?GetRaklionState@CRaklion@@QAEHXZ 004cbb10 f   Raklion.obj
 0001:000cab10       ?GetSocket@MyWinsockBase@@QAEIXZ 004cbb10 f   MyWinsockBase.obj
 0001:000cab10       ?GetItemCode@CSeedSphereItem@@QAEHXZ 004cbb10 f   ItemSocketOptionSystem.obj
 0001:000cab10       ?GetMapNumber@CXMasMonsterHerd@@QAEHXZ 004cbb10 f   XMasAttackEvent.obj
 0001:000cab20       ?GetOccupationState@CCrywolfSync@@QAEHXZ 004cbb20 f   CrywolfSync.obj
 0001:000cab20       ?GetConnect@MyWinsockBase@@QAEHXZ 004cbb20 f   MyWinsockBase.obj
 0001:000cab30       ??0MyWinsockBase@@QAE@XZ   004cbb30 f   MyWinsockBase.obj
 0001:000cab50       ?DoFile@MULua@@QAE_NPBD@Z  004cbb50 f   MuLua.obj
 0001:000cabd0       ?Get@CLoginCount@@QAEHXZ   004cbbd0 f   CLoginCount.obj
 0001:000cabd0       ?GetNumber@CItem@@QAEKXZ   004cbbd0 f   zzzitem.obj
 0001:000cabd0       ?GetLua@MULua@@QAEPAUlua_State@@XZ 004cbbd0 f   MuLua.obj
 0001:000cabe0       ?Release@MULua@@QAEXXZ     004cbbe0 f   MuLua.obj
 0001:000cac00       ?MuRequire@@YAHPAUlua_State@@@Z 004cbc00 f   MuLua.obj
 0001:000cadc0       ??1MULua@@QAE@XZ           004cbdc0 f   MuLua.obj
 0001:000cadd0       ?Create@MULua@@AAE_NXZ     004cbdd0 f   MuLua.obj
 0001:000cae20       ??0MULua@@QAE@XZ           004cbe20 f   MuLua.obj
 0001:000cae40       ??0CMsg@@QAE@XZ            004cbe40 f   MuMsg.obj
 0001:000cae80       ?XorBuffer@CMsg@@AAEXPADH@Z 004cbe80 f   MuMsg.obj
 0001:000caea0       ?lMsgListInit@CMsg@@AAEHXZ 004cbea0 f   MuMsg.obj
 0001:000caef0       ?lMsgFree@CMsg@@AAEXXZ     004cbef0 f   MuMsg.obj
 0001:000caf30       ?lMsgListNew@CMsg@@AAEPAUMSG_STRUCT@@XZ 004cbf30 f   MuMsg.obj
 0001:000caf40       ?lMsgListAdd@CMsg@@AAEHHPAE@Z 004cbf40 f   MuMsg.obj
 0001:000cb000       ?Get@CMsg@@QAEPADH@Z       004cc000 f   MuMsg.obj
 0001:000cb030       ??1CMsg@@QAE@XZ            004cc030 f   MuMsg.obj
 0001:000cb040       ?DataFileLoadVer01@CMsg@@AAEXPAU_iobuf@@@Z 004cc040 f   MuMsg.obj
 0001:000cb130       ?LoadWTF@CMsg@@QAEXPAD@Z   004cc130 f   MuMsg.obj
 0001:000cb220       ?IsDuel@CNewPVP@@QAEHAAUOBJECTSTRUCT@@@Z 004cc220 f i NewPVP.obj
 0001:000cb250       ?GetDuelStatus@CNewPVP@@AAEHAAUOBJECTSTRUCT@@@Z 004cc250 f i NewPVP.obj
 0001:000cb2d0       ?GetDuelStatusByResponsor@CNewPVP@@AAEHAAUOBJECTSTRUCT@@@Z 004cc2d0 f i NewPVP.obj
 0001:000cb350       ?LoadData@CNewPVP@@QAEXXZ  004cc350 f   NewPVP.obj
 0001:000cb430       ?GetDuelChannelId@CNewPVP@@AAEHXZ 004cc430 f   NewPVP.obj
 0001:000cb450       ?GetDuelChannelId@CNewPVP@@AAEHH@Z 004cc450 f   NewPVP.obj
 0001:000cb480       ?GetDuelChannel@CNewPVP@@AAEPAU_tagDUEL_CHANNEL@@PAD@Z 004cc480 f   NewPVP.obj
 0001:000cb520       ?SetDuelStatus@CNewPVP@@AAEXAAUOBJECTSTRUCT@@0H@Z 004cc520 f   NewPVP.obj
 0001:000cb5f0       ?Leave@CNewPVP@@AAEXAAUOBJECTSTRUCT@@0@Z 004cc5f0 f   NewPVP.obj
 0001:000cb780       ?SetScore@CNewPVP@@QAEXAAUOBJECTSTRUCT@@@Z 004cc780 f   NewPVP.obj
 0001:000cb810       ?ReFill@CNewPVP@@AAEXAAUOBJECTSTRUCT@@@Z 004cc810 f   NewPVP.obj
 0001:000cb8e0       ?MoveGate@CNewPVP@@AAEHHH@Z 004cc8e0 f   NewPVP.obj
 0001:000cb940       ?CheckLimitLevel@CNewPVP@@AAEHHH@Z 004cc940 f   NewPVP.obj
 0001:000cb9a0       ?SetBuff@CNewPVP@@QAEXAAUOBJECTSTRUCT@@H@Z 004cc9a0 f   NewPVP.obj
 0001:000cba00       ?SendChannelList@CNewPVP@@QAEHAAUOBJECTSTRUCT@@0@Z 004cca00 f   NewPVP.obj
 0001:000cba20       ?IsSafeState@CNewPVP@@QAEHAAUOBJECTSTRUCT@@@Z 004cca20 f   NewPVP.obj
 0001:000cba60       ?IsObserver@CNewPVP@@QAEHAAUOBJECTSTRUCT@@@Z 004cca60 f   NewPVP.obj
 0001:000cba80       ?CheckChannelListInfo@CNewPVP@@AAEXH@Z 004cca80 f   NewPVP.obj
 0001:000cbaa0       ?CheckPKPenalty@CNewPVP@@QAEHPAUOBJECTSTRUCT@@@Z 004ccaa0 f   NewPVP.obj
 0001:000cbaf0       ?IsSelfDefense@CNewPVP@@QAEHPAUOBJECTSTRUCT@@@Z 004ccaf0 f   NewPVP.obj
 0001:000cbb20       ?IsGuildWar@CNewPVP@@QAEHPAUOBJECTSTRUCT@@@Z 004ccb20 f   NewPVP.obj
 0001:000cbb50       ?DropItem@CNewPVP@@QAEHPAUOBJECTSTRUCT@@EEEH@Z 004ccb50 f   NewPVP.obj
 0001:000cbc50       ?_Max@?$_Tree_val@V?$_Tmap_traits@HU_tagObserverInfo@@U?$less@H@std@@V?$allocator@U?$pair@$$CBHU_tagObserverInfo@@@std@@@3@$0A@@std@@@std@@SAPAU_Node@?$_Tree_nod@V?$_Tmap_traits@HU_tagObserverInfo@@U?$less@H@std@@V?$allocator@U?$pair@$$CBHU_tagObserverInfo@@@std@@@3@$0A@@std@@@2@PAU342@@Z 004ccc50 f i NewPVP.obj
 0001:000cbc70       ?_Min@?$_Tree_val@V?$_Tmap_traits@HU_tagObserverInfo@@U?$less@H@std@@V?$allocator@U?$pair@$$CBHU_tagObserverInfo@@@std@@@3@$0A@@std@@@std@@SAPAU_Node@?$_Tree_nod@V?$_Tmap_traits@HU_tagObserverInfo@@U?$less@H@std@@V?$allocator@U?$pair@$$CBHU_tagObserverInfo@@@std@@@3@$0A@@std@@@2@PAU342@@Z 004ccc70 f i NewPVP.obj
 0001:000cbc90       ??E?$_Tree_unchecked_const_iterator@V?$_Tree_val@V?$_Tmap_traits@HV?$vector@UCASTLEDEEP_SPAWNTIME@@V?$allocator@UCASTLEDEEP_SPAWNTIME@@@std@@@std@@U?$less@H@2@V?$allocator@U?$pair@$$CBHV?$vector@UCASTLEDEEP_SPAWNTIME@@V?$allocator@UCASTLEDEEP_SPAWNTIME@@@std@@@std@@@std@@@2@$0A@@std@@@std@@U_Iterator_base0@2@@std@@QAEAAV01@XZ 004ccc90 f i CastleDeepEvent.obj
 0001:000cbc90       ??E?$_Tree_unchecked_const_iterator@V?$_Tree_val@V?$_Tmap_traits@HU_tagWaiting@@U?$less@H@std@@V?$allocator@U?$pair@$$CBHU_tagWaiting@@@std@@@3@$0A@@std@@@std@@U_Iterator_base0@2@@std@@QAEAAV01@XZ 004ccc90 f i NewPVP.obj
 0001:000cbc90       ??E?$_Tree_unchecked_const_iterator@V?$_Tree_val@V?$_Tmap_traits@HU_MONSTER_HERD_DATA@@U?$less@H@std@@V?$allocator@U?$pair@$$CBHU_MONSTER_HERD_DATA@@@std@@@3@$0A@@std@@@std@@U_Iterator_base0@2@@std@@QAEAAV01@XZ 004ccc90 f i Doppelganger.obj
 0001:000cbc90       ??E?$_Tree_unchecked_const_iterator@V?$_Tree_val@V?$_Tmap_traits@HV?$vector@UCASTLEDEEP_MONSTERINFO@@V?$allocator@UCASTLEDEEP_MONSTERINFO@@@std@@@std@@U?$less@H@2@V?$allocator@U?$pair@$$CBHV?$vector@UCASTLEDEEP_MONSTERINFO@@V?$allocator@UCASTLEDEEP_MONSTERINFO@@@std@@@std@@@std@@@2@$0A@@std@@@std@@U_Iterator_base0@2@@std@@QAEAAV01@XZ 004ccc90 f i CastleDeepEvent.obj
 0001:000cbce0       ??E?$_Tree_unchecked_const_iterator@V?$_Tree_val@V?$_Tmap_traits@HU_tagObserverInfo@@U?$less@H@std@@V?$allocator@U?$pair@$$CBHU_tagObserverInfo@@@std@@@3@$0A@@std@@@std@@U_Iterator_base0@2@@std@@QAEAAV01@XZ 004ccce0 f i NewPVP.obj
 0001:000cbd30       ??F?$_Tree_unchecked_const_iterator@V?$_Tree_val@V?$_Tmap_traits@HU_tagObserverInfo@@U?$less@H@std@@V?$allocator@U?$pair@$$CBHU_tagObserverInfo@@@std@@@3@$0A@@std@@@std@@U_Iterator_base0@2@@std@@QAEAAV01@XZ 004ccd30 f i NewPVP.obj
 0001:000cbd90       ?SetStatus@CNewPVP@@AAEXHHAAUOBJECTSTRUCT@@0@Z 004ccd90 f   NewPVP.obj
 0001:000cbef0       ?_Rrotate@?$_Tree@V?$_Tmap_traits@HU_tagObserverInfo@@U?$less@H@std@@V?$allocator@U?$pair@$$CBHU_tagObserverInfo@@@std@@@3@$0A@@std@@@std@@IAEXPAU_Node@?$_Tree_nod@V?$_Tmap_traits@HU_tagObserverInfo@@U?$less@H@std@@V?$allocator@U?$pair@$$CBHU_tagObserverInfo@@@std@@@3@$0A@@std@@@2@@Z 004ccef0 f i NewPVP.obj
 0001:000cbf50       ?_Lrotate@?$_Tree@V?$_Tmap_traits@HV?$vector@UCASTLEDEEP_MONSTERINFO@@V?$allocator@UCASTLEDEEP_MONSTERINFO@@@std@@@std@@U?$less@H@2@V?$allocator@U?$pair@$$CBHV?$vector@UCASTLEDEEP_MONSTERINFO@@V?$allocator@UCASTLEDEEP_MONSTERINFO@@@std@@@std@@@std@@@2@$0A@@std@@@std@@IAEXPAU_Node@?$_Tree_nod@V?$_Tmap_traits@HV?$vector@UCASTLEDEEP_MONSTERINFO@@V?$allocator@UCASTLEDEEP_MONSTERINFO@@@std@@@std@@U?$less@H@2@V?$allocator@U?$pair@$$CBHV?$vector@UCASTLEDEEP_MONSTERINFO@@V?$allocator@UCASTLEDEEP_MONSTERINFO@@@std@@@std@@@std@@@2@$0A@@std@@@2@@Z 004ccf50 f i CastleDeepEvent.obj
 0001:000cbf50       ?_Lrotate@?$_Tree@V?$_Tmap_traits@HV?$vector@UCASTLEDEEP_SPAWNTIME@@V?$allocator@UCASTLEDEEP_SPAWNTIME@@@std@@@std@@U?$less@H@2@V?$allocator@U?$pair@$$CBHV?$vector@UCASTLEDEEP_SPAWNTIME@@V?$allocator@UCASTLEDEEP_SPAWNTIME@@@std@@@std@@@std@@@2@$0A@@std@@@std@@IAEXPAU_Node@?$_Tree_nod@V?$_Tmap_traits@HV?$vector@UCASTLEDEEP_SPAWNTIME@@V?$allocator@UCASTLEDEEP_SPAWNTIME@@@std@@@std@@U?$less@H@2@V?$allocator@U?$pair@$$CBHV?$vector@UCASTLEDEEP_SPAWNTIME@@V?$allocator@UCASTLEDEEP_SPAWNTIME@@@std@@@std@@@std@@@2@$0A@@std@@@2@@Z 004ccf50 f i CastleDeepEvent.obj
 0001:000cbf50       ?_Lrotate@?$_Tree@V?$_Tmap_traits@HU_tagWaiting@@U?$less@H@std@@V?$allocator@U?$pair@$$CBHU_tagWaiting@@@std@@@3@$0A@@std@@@std@@IAEXPAU_Node@?$_Tree_nod@V?$_Tmap_traits@HU_tagWaiting@@U?$less@H@std@@V?$allocator@U?$pair@$$CBHU_tagWaiting@@@std@@@3@$0A@@std@@@2@@Z 004ccf50 f i NewPVP.obj
 0001:000cbf50       ?_Lrotate@?$_Tree@V?$_Tmap_traits@HU_MONSTER_HERD_DATA@@U?$less@H@std@@V?$allocator@U?$pair@$$CBHU_MONSTER_HERD_DATA@@@std@@@3@$0A@@std@@@std@@IAEXPAU_Node@?$_Tree_nod@V?$_Tmap_traits@HU_MONSTER_HERD_DATA@@U?$less@H@std@@V?$allocator@U?$pair@$$CBHU_MONSTER_HERD_DATA@@@std@@@3@$0A@@std@@@2@@Z 004ccf50 f i Doppelganger.obj
 0001:000cbfb0       ?_Lrotate@?$_Tree@V?$_Tmap_traits@HU_tagObserverInfo@@U?$less@H@std@@V?$allocator@U?$pair@$$CBHU_tagObserverInfo@@@std@@@3@$0A@@std@@@std@@IAEXPAU_Node@?$_Tree_nod@V?$_Tmap_traits@HU_tagObserverInfo@@U?$less@H@std@@V?$allocator@U?$pair@$$CBHU_tagObserverInfo@@@std@@@3@$0A@@std@@@2@@Z 004ccfb0 f i NewPVP.obj
 0001:000cc010       ??$make_pair@AAHAAU_tagObserverInfo@@@std@@YA?AU?$pair@HU_tagObserverInfo@@@0@AAHAAU_tagObserverInfo@@@Z 004cd010 f i NewPVP.obj
 0001:000cc040       ?_Erase@?$_Tree@V?$_Tmap_traits@HU_tagWaiting@@U?$less@H@std@@V?$allocator@U?$pair@$$CBHU_tagWaiting@@@std@@@3@$0A@@std@@@std@@IAEXPAU_Node@?$_Tree_nod@V?$_Tmap_traits@HU_tagWaiting@@U?$less@H@std@@V?$allocator@U?$pair@$$CBHU_tagWaiting@@@std@@@3@$0A@@std@@@2@@Z 004cd040 f i NewPVP.obj
 0001:000cc040       ?_Erase@?$_Tree@V?$_Tmap_traits@HU_MONSTER_HERD_DATA@@U?$less@H@std@@V?$allocator@U?$pair@$$CBHU_MONSTER_HERD_DATA@@@std@@@3@$0A@@std@@@std@@IAEXPAU_Node@?$_Tree_nod@V?$_Tmap_traits@HU_MONSTER_HERD_DATA@@U?$less@H@std@@V?$allocator@U?$pair@$$CBHU_MONSTER_HERD_DATA@@@std@@@3@$0A@@std@@@2@@Z 004cd040 f i MonsterHerd.obj
 0001:000cc080       ?_Erase@?$_Tree@V?$_Tmap_traits@HU_tagObserverInfo@@U?$less@H@std@@V?$allocator@U?$pair@$$CBHU_tagObserverInfo@@@std@@@3@$0A@@std@@@std@@IAEXPAU_Node@?$_Tree_nod@V?$_Tmap_traits@HU_tagObserverInfo@@U?$less@H@std@@V?$allocator@U?$pair@$$CBHU_tagObserverInfo@@@std@@@3@$0A@@std@@@2@@Z 004cd080 f i NewPVP.obj
 0001:000cc0c0       ?_Insert@?$_Tree@V?$_Tmap_traits@HU_tagObserverInfo@@U?$less@H@std@@V?$allocator@U?$pair@$$CBHU_tagObserverInfo@@@std@@@3@$0A@@std@@@std@@IAE?AV?$_Tree_iterator@V?$_Tree_val@V?$_Tmap_traits@HU_tagObserverInfo@@U?$less@H@std@@V?$allocator@U?$pair@$$CBHU_tagObserverInfo@@@std@@@3@$0A@@std@@@std@@@2@_NPAU_Node@?$_Tree_nod@V?$_Tmap_traits@HU_tagObserverInfo@@U?$less@H@std@@V?$allocator@U?$pair@$$CBHU_tagObserverInfo@@@std@@@3@$0A@@std@@@2@1@Z 004cd0c0 f i NewPVP.obj
 0001:000cc2f0       ??$_Cons_val@V?$allocator@U?$pair@$$CBHU_tagObserverInfo@@@std@@@std@@U?$pair@$$CBHU_tagObserverInfo@@@2@U?$pair@HU_tagObserverInfo@@@2@@std@@YAXAAV?$allocator@U?$pair@$$CBHU_tagObserverInfo@@@std@@@0@PAU?$pair@$$CBHU_tagObserverInfo@@@0@$$QAU?$pair@HU_tagObserverInfo@@@0@@Z 004cd2f0 f i NewPVP.obj
 0001:000cc330       ?erase@?$_Tree@V?$_Tmap_traits@HU_tagWaiting@@U?$less@H@std@@V?$allocator@U?$pair@$$CBHU_tagWaiting@@@std@@@3@$0A@@std@@@std@@QAE?AV?$_Tree_iterator@V?$_Tree_val@V?$_Tmap_traits@HU_tagWaiting@@U?$less@H@std@@V?$allocator@U?$pair@$$CBHU_tagWaiting@@@std@@@3@$0A@@std@@@std@@@2@V?$_Tree_const_iterator@V?$_Tree_val@V?$_Tmap_traits@HU_tagWaiting@@U?$less@H@std@@V?$allocator@U?$pair@$$CBHU_tagWaiting@@@std@@@3@$0A@@std@@@std@@@2@@Z 004cd330 f i NewPVP.obj
 0001:000cc330       ?erase@?$_Tree@V?$_Tmap_traits@HU_MONSTER_HERD_DATA@@U?$less@H@std@@V?$allocator@U?$pair@$$CBHU_MONSTER_HERD_DATA@@@std@@@3@$0A@@std@@@std@@QAE?AV?$_Tree_iterator@V?$_Tree_val@V?$_Tmap_traits@HU_MONSTER_HERD_DATA@@U?$less@H@std@@V?$allocator@U?$pair@$$CBHU_MONSTER_HERD_DATA@@@std@@@3@$0A@@std@@@std@@@2@V?$_Tree_const_iterator@V?$_Tree_val@V?$_Tmap_traits@HU_MONSTER_HERD_DATA@@U?$less@H@std@@V?$allocator@U?$pair@$$CBHU_MONSTER_HERD_DATA@@@std@@@3@$0A@@std@@@std@@@2@@Z 004cd330 f i MonsterHerd.obj
 0001:000cc580       ?clear@?$_Tree@V?$_Tmap_traits@HU_tagWaiting@@U?$less@H@std@@V?$allocator@U?$pair@$$CBHU_tagWaiting@@@std@@@3@$0A@@std@@@std@@QAEXXZ 004cd580 f i NewPVP.obj
 0001:000cc580       ?clear@?$_Tree@V?$_Tmap_traits@HU_MONSTER_HERD_DATA@@U?$less@H@std@@V?$allocator@U?$pair@$$CBHU_MONSTER_HERD_DATA@@@std@@@3@$0A@@std@@@std@@QAEXXZ 004cd580 f i MonsterHerd.obj
 0001:000cc5d0       ?erase@?$_Tree@V?$_Tmap_traits@HU_tagObserverInfo@@U?$less@H@std@@V?$allocator@U?$pair@$$CBHU_tagObserverInfo@@@std@@@3@$0A@@std@@@std@@QAE?AV?$_Tree_iterator@V?$_Tree_val@V?$_Tmap_traits@HU_tagObserverInfo@@U?$less@H@std@@V?$allocator@U?$pair@$$CBHU_tagObserverInfo@@@std@@@3@$0A@@std@@@std@@@2@V?$_Tree_const_iterator@V?$_Tree_val@V?$_Tmap_traits@HU_tagObserverInfo@@U?$less@H@std@@V?$allocator@U?$pair@$$CBHU_tagObserverInfo@@@std@@@3@$0A@@std@@@std@@@2@@Z 004cd5d0 f i NewPVP.obj
 0001:000cc820       ?clear@?$_Tree@V?$_Tmap_traits@HU_tagObserverInfo@@U?$less@H@std@@V?$allocator@U?$pair@$$CBHU_tagObserverInfo@@@std@@@3@$0A@@std@@@std@@QAEXXZ 004cd820 f i NewPVP.obj
 0001:000cc870       ?erase@?$_Tree@V?$_Tmap_traits@HU_MONSTER_HERD_DATA@@U?$less@H@std@@V?$allocator@U?$pair@$$CBHU_MONSTER_HERD_DATA@@@std@@@3@$0A@@std@@@std@@QAE?AV?$_Tree_iterator@V?$_Tree_val@V?$_Tmap_traits@HU_MONSTER_HERD_DATA@@U?$less@H@std@@V?$allocator@U?$pair@$$CBHU_MONSTER_HERD_DATA@@@std@@@3@$0A@@std@@@std@@@2@V?$_Tree_const_iterator@V?$_Tree_val@V?$_Tmap_traits@HU_MONSTER_HERD_DATA@@U?$less@H@std@@V?$allocator@U?$pair@$$CBHU_MONSTER_HERD_DATA@@@std@@@3@$0A@@std@@@std@@@2@0@Z 004cd870 f i MonsterHerd.obj
 0001:000cc870       ?erase@?$_Tree@V?$_Tmap_traits@HU_tagWaiting@@U?$less@H@std@@V?$allocator@U?$pair@$$CBHU_tagWaiting@@@std@@@3@$0A@@std@@@std@@QAE?AV?$_Tree_iterator@V?$_Tree_val@V?$_Tmap_traits@HU_tagWaiting@@U?$less@H@std@@V?$allocator@U?$pair@$$CBHU_tagWaiting@@@std@@@3@$0A@@std@@@std@@@2@V?$_Tree_const_iterator@V?$_Tree_val@V?$_Tmap_traits@HU_tagWaiting@@U?$less@H@std@@V?$allocator@U?$pair@$$CBHU_tagWaiting@@@std@@@3@$0A@@std@@@std@@@2@0@Z 004cd870 f i NewPVP.obj
 0001:000cc910       ?erase@?$_Tree@V?$_Tmap_traits@HU_tagObserverInfo@@U?$less@H@std@@V?$allocator@U?$pair@$$CBHU_tagObserverInfo@@@std@@@3@$0A@@std@@@std@@QAE?AV?$_Tree_iterator@V?$_Tree_val@V?$_Tmap_traits@HU_tagObserverInfo@@U?$less@H@std@@V?$allocator@U?$pair@$$CBHU_tagObserverInfo@@@std@@@3@$0A@@std@@@std@@@2@V?$_Tree_const_iterator@V?$_Tree_val@V?$_Tmap_traits@HU_tagObserverInfo@@U?$less@H@std@@V?$allocator@U?$pair@$$CBHU_tagObserverInfo@@@std@@@3@$0A@@std@@@std@@@2@0@Z 004cd910 f i NewPVP.obj
 0001:000cc9b0       ?_Linsert@?$_Tree@V?$_Tmap_traits@HU_tagObserverInfo@@U?$less@H@std@@V?$allocator@U?$pair@$$CBHU_tagObserverInfo@@@std@@@3@$0A@@std@@@std@@QAE?AU?$pair@V?$_Tree_iterator@V?$_Tree_val@V?$_Tmap_traits@HU_tagObserverInfo@@U?$less@H@std@@V?$allocator@U?$pair@$$CBHU_tagObserverInfo@@@std@@@3@$0A@@std@@@std@@@std@@_N@2@PAU_Node@?$_Tree_nod@V?$_Tmap_traits@HU_tagObserverInfo@@U?$less@H@std@@V?$allocator@U?$pair@$$CBHU_tagObserverInfo@@@std@@@3@$0A@@std@@@2@_N@Z 004cd9b0 f i NewPVP.obj
 0001:000cca90       ??$_Buynode@U?$pair@HU_tagObserverInfo@@@std@@@?$_Tree_val@V?$_Tmap_traits@HU_tagObserverInfo@@U?$less@H@std@@V?$allocator@U?$pair@$$CBHU_tagObserverInfo@@@std@@@3@$0A@@std@@@std@@QAEPAU_Node@?$_Tree_nod@V?$_Tmap_traits@HU_tagObserverInfo@@U?$less@H@std@@V?$allocator@U?$pair@$$CBHU_tagObserverInfo@@@std@@@3@$0A@@std@@@1@$$QAU?$pair@HU_tagObserverInfo@@@1@@Z 004cda90 f i NewPVP.obj
 0001:000ccb10       ?GetObserverList@CNewPVP@@AAEXHAAU_tagPMSG_DUEL_OBSERVERLIST_BROADCAST@@@Z 004cdb10 f   NewPVP.obj
 0001:000ccbc0       ?LeaveChannelObserver@CNewPVP@@AAEXH@Z 004cdbc0 f   NewPVP.obj
 0001:000cccb0       ?BroadcastToObserver@CNewPVP@@AAEXHPAEH@Z 004cdcb0 f   NewPVP.obj
 0001:000ccd50       ?BroadcastMessage@CNewPVP@@AAEXHEEH@Z 004cdd50 f   NewPVP.obj
 0001:000ccf10       ?BroadcastRound@CNewPVP@@AAEXHEH@Z 004cdf10 f   NewPVP.obj
 0001:000ccfd0       ?find@?$_Tree@V?$_Tmap_traits@HU_tagObserverInfo@@U?$less@H@std@@V?$allocator@U?$pair@$$CBHU_tagObserverInfo@@@std@@@3@$0A@@std@@@std@@QAE?AV?$_Tree_iterator@V?$_Tree_val@V?$_Tmap_traits@HU_tagObserverInfo@@U?$less@H@std@@V?$allocator@U?$pair@$$CBHU_tagObserverInfo@@@std@@@3@$0A@@std@@@std@@@2@ABH@Z 004cdfd0 f i NewPVP.obj
 0001:000cd040       ?Reserve@CNewPVP@@QAEHAAUOBJECTSTRUCT@@0@Z 004ce040 f   NewPVP.obj
 0001:000cd250       ?Cancel@CNewPVP@@QAEXAAUOBJECTSTRUCT@@0H@Z 004ce250 f   NewPVP.obj
 0001:000cd360       ?Leave@CNewPVP@@QAEHAAUOBJECTSTRUCT@@@Z 004ce360 f   NewPVP.obj
 0001:000cd490       ?GetChannelIdByObserver@CNewPVP@@AAEHAAUOBJECTSTRUCT@@@Z 004ce490 f   NewPVP.obj
 0001:000cd4f0       ?CheckUsersOnConnect@CNewPVP@@AAEHH@Z 004ce4f0 f   NewPVP.obj
 0001:000cd5f0       ?ChatMsgSend@CNewPVP@@QAEXAAUOBJECTSTRUCT@@PAEH@Z 004ce5f0 f   NewPVP.obj
 0001:000cd720       ?BroadcastScore@CNewPVP@@AAEXHE@Z 004ce720 f   NewPVP.obj
 0001:000cd870       ?BroadcastResult@CNewPVP@@AAEXHEAAUOBJECTSTRUCT@@@Z 004ce870 f   NewPVP.obj
 0001:000cda10       ?BroadcastDuelInfo@CNewPVP@@AAEXHE@Z 004cea10 f   NewPVP.obj
 0001:000cdc30       ?BroadcastJoinChannel@CNewPVP@@AAEXHAAUOBJECTSTRUCT@@@Z 004cec30 f   NewPVP.obj
 0001:000cdd00       ?BroadcastLeaveChannel@CNewPVP@@AAEXHAAUOBJECTSTRUCT@@@Z 004ced00 f   NewPVP.obj
 0001:000cddd0       ??1?$map@HU_tagWaiting@@U?$less@H@std@@V?$allocator@U?$pair@$$CBHU_tagWaiting@@@std@@@3@@std@@QAE@XZ 004cedd0 f i NewPVP.obj
 0001:000cde30       ??1?$map@HU_tagObserverInfo@@U?$less@H@std@@V?$allocator@U?$pair@$$CBHU_tagObserverInfo@@@std@@@3@@std@@QAE@XZ 004cee30 f i NewPVP.obj
 0001:000cde90       ??1CNewPVP@@UAE@XZ         004cee90 f   NewPVP.obj
 0001:000cdf60       ?Run@CNewPVP@@QAEXXZ       004cef60 f   NewPVP.obj
 0001:000ce260       ?Join@CNewPVP@@QAEHAAUOBJECTSTRUCT@@0@Z 004cf260 f   NewPVP.obj
 0001:000ce5f0       ?CheckScore@CNewPVP@@QAEXAAUOBJECTSTRUCT@@0@Z 004cf5f0 f   NewPVP.obj
 0001:000ce780       ?JoinChannel@CNewPVP@@QAEHHAAUOBJECTSTRUCT@@@Z 004cf780 f   NewPVP.obj
 0001:000cec70       ?LeaveChannel@CNewPVP@@QAEHHAAUOBJECTSTRUCT@@@Z 004cfc70 f   NewPVP.obj
 0001:000cedc0       ??0CNewPVP@@QAE@XZ         004cfdc0 f   NewPVP.obj
 0001:000cef30       ??_ECNewPVP@@UAEPAXI@Z     004cff30 f i NewPVP.obj
 0001:000cef30       ??_GCNewPVP@@UAEPAXI@Z     004cff30 f i NewPVP.obj
 0001:000cef60       ?Reset@CNewPVP@@QAEXAAUOBJECTSTRUCT@@@Z 004cff60 f   NewPVP.obj
 0001:000cf000       ?NpcMainatenceMachine@@YA_NPAUOBJECTSTRUCT@@0@Z 004d0000 f   NpcTalk.obj
 0001:000cf020       ?NpcDeviasWeapon@@YA_NPAUOBJECTSTRUCT@@0@Z 004d0020 f   NpcTalk.obj
 0001:000cf020       ?NpcPosionGirl@@YA_NPAUOBJECTSTRUCT@@0@Z 004d0020 f   NpcTalk.obj
 0001:000cf020       ?NpcRorensiaSmith@@YA_NPAUOBJECTSTRUCT@@0@Z 004d0020 f   NpcTalk.obj
 0001:000cf020       ?NpcNoriJangIn@@YA_NPAUOBJECTSTRUCT@@0@Z 004d0020 f   NpcTalk.obj
 0001:000cf020       ?NpcRoadMerchant@@YA_NPAUOBJECTSTRUCT@@0@Z 004d0020 f   NpcTalk.obj
 0001:000cf020       ?NpcBattleAnnouncer@@YA_NPAUOBJECTSTRUCT@@0@Z 004d0020 f   NpcTalk.obj
 0001:000cf020       ?NpcRolensiaMadam@@YA_NPAUOBJECTSTRUCT@@0@Z 004d0020 f   NpcTalk.obj
 0001:000cf020       ?NpcDeviasWizard@@YA_NPAUOBJECTSTRUCT@@0@Z 004d0020 f   NpcTalk.obj
 0001:000cf020       ?NpcReira@@YA_NPAUOBJECTSTRUCT@@0@Z 004d0020 f   NpcTalk.obj
 0001:000cf030       ?NpcFasi@@YA_NPAUOBJECTSTRUCT@@0@Z 004d0030 f   NpcTalk.obj
 0001:000cf190       ?NpcGuildMasterTalk@@YA_NPAUOBJECTSTRUCT@@0@Z 004d0190 f   NpcTalk.obj
 0001:000cf290       ?NpcRolensiaGuard@@YA_NPAUOBJECTSTRUCT@@0@Z 004d0290 f   NpcTalk.obj
 0001:000cf2c0       ?NpcChaosGoblelin@@YA_NPAUOBJECTSTRUCT@@0@Z 004d02c0 f   NpcTalk.obj
 0001:000cf2e0       ?NpcChaosCardMaster@@YA_NPAUOBJECTSTRUCT@@0@Z 004d02e0 f   NpcTalk.obj
 0001:000cf3b0       ?NpcRusipher@@YA_NPAUOBJECTSTRUCT@@0@Z 004d03b0 f   NpcTalk.obj
 0001:000cf470       ?NpcWarehouse@@YA_NPAUOBJECTSTRUCT@@0@Z 004d0470 f   NpcTalk.obj
 0001:000cf490       ?NpcNoriaRara@@YA_NPAUOBJECTSTRUCT@@0@Z 004d0490 f   NpcTalk.obj
 0001:000cf4c0       ?NpcDeviasMadam@@YA_NPAUOBJECTSTRUCT@@0@Z 004d04c0 f   NpcTalk.obj
 0001:000cf4f0       ?NpcEventChipNPC@@YA_NPAUOBJECTSTRUCT@@0@Z 004d04f0 f   NpcTalk.obj
 0001:000cf600       ?NpcQuestCheck@@YA_NPAUOBJECTSTRUCT@@0@Z 004d0600 f   NpcTalk.obj
 0001:000cf620       ?NpcServerDivision@@YA_NPAUOBJECTSTRUCT@@0@Z 004d0620 f   NpcTalk.obj
 0001:000cf670       ?NpcAngelKing@@YA_NPAUOBJECTSTRUCT@@0@Z 004d0670 f   NpcTalk.obj
 0001:000cfa90       ?NpcAngelMessanger@@YA_NPAUOBJECTSTRUCT@@0@Z 004d0a90 f   NpcTalk.obj
 0001:000cfc30       ?NpcDarkSpiritTrainer@@YA_NPAUOBJECTSTRUCT@@0@Z 004d0c30 f   NpcTalk.obj
 0001:000cfd80       ?NpcJewelMixDealer@@YA_NPAUOBJECTSTRUCT@@0@Z 004d0d80 f   NpcTalk.obj
 0001:000cfe10       ?NpcSiegeMachine_Attack@@YA_NPAUOBJECTSTRUCT@@0@Z 004d0e10 f   NpcTalk.obj
 0001:000cfed0       ?NpcSiegeMachine_Defense@@YA_NPAUOBJECTSTRUCT@@0@Z 004d0ed0 f   NpcTalk.obj
 0001:000cff90       ?NpcElderCircle@@YA_NPAUOBJECTSTRUCT@@0@Z 004d0f90 f   NpcTalk.obj
 0001:000d0150       ?NpcCastleGuard@@YA_NPAUOBJECTSTRUCT@@0@Z 004d1150 f   NpcTalk.obj
 0001:000d01f0       ?NpcCastleGateLever@@YA_NPAUOBJECTSTRUCT@@0@Z 004d11f0 f   NpcTalk.obj
 0001:000d02c0       ?NpcCastleCrown@@YA_NPAUOBJECTSTRUCT@@0@Z 004d12c0 f   NpcTalk.obj
 0001:000d04f0       ?NpcCastleSwitch@@YA_NPAUOBJECTSTRUCT@@0@Z 004d14f0 f   NpcTalk.obj
 0001:000d0630       ?NpcCastleHuntZoneGuard@@YA_NPAUOBJECTSTRUCT@@0@Z 004d1630 f   NpcTalk.obj
 0001:000d0740       ?NpcShadowPhantom@@YA_NH@Z 004d1740 f   NpcTalk.obj
 0001:000d0810       ?NpcCrywolfAltar@@YA_NPAUOBJECTSTRUCT@@0@Z 004d1810 f   NpcTalk.obj
 0001:000d0830       ?NpcIllusionHolyRelicsStatue@@YA_NPAUOBJECTSTRUCT@@0@Z 004d1830 f   NpcTalk.obj
 0001:000d0870       ?NpcHolyRelicsBoxAllied@@YA_NPAUOBJECTSTRUCT@@0@Z 004d1870 f   NpcTalk.obj
 0001:000d08b0       ?NpcHolyRelicsBoxIllusion@@YA_NPAUOBJECTSTRUCT@@0@Z 004d18b0 f   NpcTalk.obj
 0001:000d08f0       ?NpcPlatformMirage@@YA_NPAUOBJECTSTRUCT@@0@Z 004d18f0 f   NpcTalk.obj
 0001:000d0920       ?NpcRehina@@YA_NPAUOBJECTSTRUCT@@0@Z 004d1920 f   NpcTalk.obj
 0001:000d0920       ?NpcSilviaTalk@@YA_NPAUOBJECTSTRUCT@@0@Z 004d1920 f   NpcTalk.obj
 0001:000d0920       ?NpcMarceTalk@@YA_NPAUOBJECTSTRUCT@@0@Z 004d1920 f   NpcTalk.obj
 0001:000d0920       ?NpcLuckyCoinDelgado@@YA_NPAUOBJECTSTRUCT@@0@Z 004d1920 f   NpcTalk.obj
 0001:000d0920       ?NpcCherryTalk@@YA_NPAUOBJECTSTRUCT@@0@Z 004d1920 f   NpcTalk.obj
 0001:000d0920       ?NpcQuartermasterPamella@@YA_NPAUOBJECTSTRUCT@@0@Z 004d1920 f   NpcTalk.obj
 0001:000d0920       ?NpcRheaTalk@@YA_NPAUOBJECTSTRUCT@@0@Z 004d1920 f   NpcTalk.obj
 0001:000d0920       ?NpcVolo@@YA_NPAUOBJECTSTRUCT@@0@Z 004d1920 f   NpcTalk.obj
 0001:000d0920       ?NpcQuartermasterAngela@@YA_NPAUOBJECTSTRUCT@@0@Z 004d1920 f   NpcTalk.obj
 0001:000d0920       ?NPcFireCrackerStore@@YA_NPAUOBJECTSTRUCT@@0@Z 004d1920 f   NpcTalk.obj
 0001:000d0920       ?NpcKristenTalk@@YA_NPAUOBJECTSTRUCT@@0@Z 004d1920 f   NpcTalk.obj
 0001:000d0940       ?NpcSeedMaster@@YA_NPAUOBJECTSTRUCT@@0@Z 004d1940 f   NpcTalk.obj
 0001:000d0a30       ?NpcSeedResearcher@@YA_NPAUOBJECTSTRUCT@@0@Z 004d1a30 f   NpcTalk.obj
 0001:000d0b20       ?Npc_SantaTalk@@YA_NPAUOBJECTSTRUCT@@0@Z 004d1b20 f   NpcTalk.obj
 0001:000d0b50       ?Npc_SnowManTalk@@YA_NPAUOBJECTSTRUCT@@0@Z 004d1b50 f   NpcTalk.obj
 0001:000d0b80       ?Npc_LittleSantaTalk@@YA_NPAUOBJECTSTRUCT@@0H@Z 004d1b80 f   NpcTalk.obj
 0001:000d0d80       ?Npc_EventDungeonTalk@@YA_NPAUOBJECTSTRUCT@@0@Z 004d1d80 f   NpcTalk.obj
 0001:000d0de0       ?Npc_LugardTalk@@YA_NPAUOBJECTSTRUCT@@0@Z 004d1de0 f   NpcTalk.obj
 0001:000d0e10       ?Npc_MiddleTreasureTalk@@YA_NPAUOBJECTSTRUCT@@0@Z 004d1e10 f   NpcTalk.obj
 0001:000d0e40       ?Npc_LastTreasureTalk@@YA_NPAUOBJECTSTRUCT@@0@Z 004d1e40 f   NpcTalk.obj
 0001:000d0e70       ?Npc_Dialog@@YA_NPAUOBJECTSTRUCT@@0@Z 004d1e70 f   NpcTalk.obj
 0001:000d0f80       ?NpcRaulTalk@@YA_NPAUOBJECTSTRUCT@@0@Z 004d1f80 f   NpcTalk.obj
 0001:000d0fa0       ?NpcJuliaTalk@@YA_NPAUOBJECTSTRUCT@@0@Z 004d1fa0 f   NpcTalk.obj
 0001:000d0ff0       ?NpcDabide@@YA_NPAUOBJECTSTRUCT@@0@Z 004d1ff0 f   NpcTalk.obj
 0001:000d10f0       ?NpcTalk@@YA_NPAUOBJECTSTRUCT@@0@Z 004d20f0 f   NpcTalk.obj
 0001:000d1ed0       ??1NSerialCheck@@UAE@XZ    004d2ed0 f   NSerialCheck.obj
 0001:000d1ee0       ?init@NSerialCheck@@QAEXXZ 004d2ee0 f   NSerialCheck.obj
 0001:000d1ef0       ?InCheck@NSerialCheck@@QAEHE@Z 004d2ef0 f   NSerialCheck.obj
 0001:000d1f20       ?GetSerial@NSerialCheck@@QAEHXZ 004d2f20 f   NSerialCheck.obj
 0001:000d1f30       ?GetSendSerial@NSerialCheck@@QAEEXZ 004d2f30 f   NSerialCheck.obj
 0001:000d1f40       ??0NSerialCheck@@QAE@XZ    004d2f40 f   NSerialCheck.obj
 0001:000d1f50       ??_ENSerialCheck@@UAEPAXI@Z 004d2f50 f i NSerialCheck.obj
 0001:000d1f50       ??_GNSerialCheck@@UAEPAXI@Z 004d2f50 f i NSerialCheck.obj
 0001:000d1f80       ??0CObjAttack@@QAE@XZ      004d2f80 f   ObjAttack.obj
 0001:000d1fa0       ??1CObjAttack@@UAE@XZ      004d2fa0 f   ObjAttack.obj
 0001:000d1fb0       ?GetAttackDamageWizard@CObjAttack@@QAEHPAUOBJECTSTRUCT@@HPAVCMagicInf@@AAEH@Z 004d2fb0 f   ObjAttack.obj
 0001:000d2480       ?gObjDenorantSprite@@YAHPAUOBJECTSTRUCT@@@Z 004d3480 f   ObjAttack.obj
 0001:000d24e0       ?gObjDarkHorse@@YAHPAUOBJECTSTRUCT@@@Z 004d34e0 f   ObjAttack.obj
 0001:000d2540       ?gObjFenrir@@YAHPAUOBJECTSTRUCT@@@Z 004d3540 f   ObjAttack.obj
 0001:000d25a0       ?GetShieldDamage@CObjAttack@@QAEHPAUOBJECTSTRUCT@@0H@Z 004d35a0 f   ObjAttack.obj
 0001:000d25a0       ?GetShieldDamage@CDarkSpirit@@QAEHPAUOBJECTSTRUCT@@0H@Z 004d35a0 f   DarkSpirit.obj
 0001:000d26e0       ?GetAttackDamageSummoner@CObjAttack@@QAEHPAUOBJECTSTRUCT@@HPAVCMagicInf@@AAEH@Z 004d36e0 f   ObjAttack.obj
 0001:000d2f40       ?GetBerserkerSkillAttackDamage@CObjAttack@@QAEEPAUOBJECTSTRUCT@@AAH1@Z 004d3f40 f   ObjAttack.obj
 0001:000d3020       ??_ECObjAttack@@UAEPAXI@Z  004d4020 f i ObjAttack.obj
 0001:000d3020       ??_GCObjAttack@@UAEPAXI@Z  004d4020 f i ObjAttack.obj
 0001:000d3050       ?GetAttackDamage@CObjAttack@@QAEHPAUOBJECTSTRUCT@@HAAEHPAVCMagicInf@@@Z 004d4050 f   ObjAttack.obj
 0001:000d3ce0       ?Attack@CObjAttack@@QAEHPAUOBJECTSTRUCT@@0PAVCMagicInf@@HEHHEE@Z 004d4ce0 f   ObjAttack.obj
 0001:000d8880       ??0CObjBaseAttack@@QAE@XZ  004d9880 f   ObjBaseAttack.obj
 0001:000d8890       ??1CObjBaseAttack@@UAE@XZ  004d9890 f   ObjBaseAttack.obj
 0001:000d88a0       ?DecreaseArrow@CObjBaseAttack@@QAEHPAUOBJECTSTRUCT@@@Z 004d98a0 f   ObjBaseAttack.obj
 0001:000d8aa0       ?CheckAttackArea@CObjBaseAttack@@QAEHPAUOBJECTSTRUCT@@0@Z 004d9aa0 f   ObjBaseAttack.obj
 0001:000d8b30       ?PkCheck@CObjBaseAttack@@QAEHPAUOBJECTSTRUCT@@0@Z 004d9b30 f   ObjBaseAttack.obj
 0001:000d8dd0       ?ResistanceCheck@CObjBaseAttack@@QAEHPAUOBJECTSTRUCT@@0H@Z 004d9dd0 f   ObjBaseAttack.obj
 0001:000d9170       ?MissCheck@CObjBaseAttack@@UAEHPAUOBJECTSTRUCT@@0HHHAAHE@Z 004da170 f   ObjBaseAttack.obj
 0001:000d9530       ?GetTargetDefense@CObjBaseAttack@@QAEHPAUOBJECTSTRUCT@@0AAE@Z 004da530 f   ObjBaseAttack.obj
 0001:000d9620       ?GetPartyMemberCount@CObjBaseAttack@@QAEHPAUOBJECTSTRUCT@@@Z 004da620 f   ObjBaseAttack.obj
 0001:000d96d0       ?Init@ComboSkillData@@QAEXXZ 004da6d0 f   ObjBaseAttack.obj
 0001:000d9700       ??_GCObjBaseAttack@@UAEPAXI@Z 004da700 f i ObjBaseAttack.obj
 0001:000d9700       ??_ECObjBaseAttack@@UAEPAXI@Z 004da700 f i ObjBaseAttack.obj
 0001:000d9730       ?MissCheckPvP@CObjBaseAttack@@QAEHPAUOBJECTSTRUCT@@0HHHAAHE@Z 004da730 f   ObjBaseAttack.obj
 0001:000d9db0       ?GObjExtItemApply@@YAXPAUOBJECTSTRUCT@@@Z 004dadb0 f   ObjCalCharacter.obj
 0001:000da370       ?gObjCalcSetItemStat@@YAXPAUOBJECTSTRUCT@@@Z 004db370 f   ObjCalCharacter.obj
 0001:000da430       ?gObjGetSetItemOption@@YAXPAUOBJECTSTRUCT@@PAE1PAH@Z 004db430 f   ObjCalCharacter.obj
 0001:000da5a0       ?gObjSetItemStatPlusSpecial@@YAXPAUOBJECTSTRUCT@@HH@Z 004db5a0 f   ObjCalCharacter.obj
 0001:000da620       ?gObjSetItemPlusSpecial@@YAXPAUOBJECTSTRUCT@@HH@Z 004db620 f   ObjCalCharacter.obj
 0001:000da8e0       ?gObjSetItemApply@@YAXPAUOBJECTSTRUCT@@@Z 004db8e0 f   ObjCalCharacter.obj
 0001:000dac20       ?gObjCalcMLSkillItemOption@@YAXPAUOBJECTSTRUCT@@@Z 004dbc20 f   ObjCalCharacter.obj
 0001:000db440       ?gObjCalcShieldPoint@@YAXPAUOBJECTSTRUCT@@@Z 004dc440 f   ObjCalCharacter.obj
 0001:000db520       ?gObjCalcSetItemOption@@YAXPAUOBJECTSTRUCT@@@Z 004dc520 f   ObjCalCharacter.obj
 0001:000db8a0       ?gObjCalCharacter@@YAXH@Z  004dc8a0 f   ObjCalCharacter.obj
 0001:000dea70       ??0CObjUseSkill@@QAE@XZ    004dfa70 f   ObjUseSkill.obj
 0001:000dea80       ??1CObjUseSkill@@UAE@XZ    004dfa80 f   ObjUseSkill.obj
 0001:000dea90       ?SpeedHackCheck@CObjUseSkill@@QAEHH@Z 004dfa90 f   ObjUseSkill.obj
 0001:000dec10       ?EnableSkill@CObjUseSkill@@QAEHKH@Z 004dfc10 f   ObjUseSkill.obj
 0001:000df3d0       ?GetAddUseMana@CObjUseSkill@@QAEHPAUOBJECTSTRUCT@@PAVCMagicInf@@@Z 004e03d0 f   ObjUseSkill.obj
 0001:000df570       ?GetUseBP@CObjUseSkill@@QAEHHPAVCMagicInf@@@Z 004e0570 f   ObjUseSkill.obj
 0001:000df610       ?MaGumSkillDefenseDown@CObjUseSkill@@QAEXHHH@Z 004e0610 f   ObjUseSkill.obj
 0001:000df690       ?KnightSkillAddLife@CObjUseSkill@@QAEXHH@Z 004e0690 f   ObjUseSkill.obj
 0001:000df900       ?WizardMagicDefense@CObjUseSkill@@QAEXHHH@Z 004e0900 f   ObjUseSkill.obj
 0001:000dfa10       ?SkillDefense@CObjUseSkill@@QAEXHHH@Z 004e0a10 f   ObjUseSkill.obj
 0001:000dfbe0       ?SkillAttack@CObjUseSkill@@QAEXHHH@Z 004e0be0 f   ObjUseSkill.obj
 0001:000dfdb0       ?SkillChangeUse@CObjUseSkill@@QAEHH@Z 004e0db0 f   ObjUseSkill.obj
 0001:000e0560       ?SkillHealing@CObjUseSkill@@QAEXHHH@Z 004e1560 f   ObjUseSkill.obj
 0001:000e0710       ?SkillMonsterCall@CObjUseSkill@@QAEHHHHH@Z 004e1710 f   ObjUseSkill.obj
 0001:000e09c0       ?SkillBlowOfFury@CObjUseSkill@@QAEXHPAVCMagicInf@@EEEEHH@Z 004e19c0 f   ObjUseSkill.obj
 0001:000e0b00       ?SkillWheel@CObjUseSkill@@QAEXHPAVCMagicInf@@HH@Z 004e1b00 f   ObjUseSkill.obj
 0001:000e0c40       ?SkillPowerSlash@CObjUseSkill@@QAEXHPAVCMagicInf@@EEEEH@Z 004e1c40 f   ObjUseSkill.obj
 0001:000e0db0       ?SkillHellFire2Start@CObjUseSkill@@QAEHHPAVCMagicInf@@@Z 004e1db0 f   ObjUseSkill.obj
 0001:000e0e20       ?SkillFrustrum@CObjUseSkill@@QAEXHMMM@Z 004e1e20 f   ObjUseSkill.obj
 0001:000e0e20       ?MLS_SkillFrustrum@CMasterLevelSkillTreeSystem@@QAEXHMMM@Z 004e1e20 f   MasterLevelSkillTreeSystem.obj
 0001:000e0f20       ?GetAngle@CObjUseSkill@@QAEHHHHH@Z 004e1f20 f   ObjUseSkill.obj
 0001:000e0f70       ?SkillSpear@CObjUseSkill@@QAEHHHPAVCMagicInf@@@Z 004e1f70 f   ObjUseSkill.obj
 0001:000e1120       ?SkillFireBurst@CObjUseSkill@@QAEHHHPAVCMagicInf@@@Z 004e2120 f   ObjUseSkill.obj
 0001:000e1290       ?SkillDarkHorseAttack@CObjUseSkill@@QAEHHHPAVCMagicInf@@@Z 004e2290 f   ObjUseSkill.obj
 0001:000e13d0       ?RecallPartyCheck@CObjUseSkill@@QAEHHH@Z 004e23d0 f   ObjUseSkill.obj
 0001:000e1450       ?SkillRecallParty@CObjUseSkill@@QAEXHH@Z 004e2450 f   ObjUseSkill.obj
 0001:000e18a0       ?SkillAddCriticalDamage@CObjUseSkill@@QAEXHH@Z 004e28a0 f   ObjUseSkill.obj
 0001:000e1ac0       ?DecPartyMemberHPandMP@@YAHPAUOBJECTSTRUCT@@@Z 004e2ac0 f   ObjUseSkill.obj
 0001:000e1c30       ?SkillSummon@CObjUseSkill@@QAEHHHPAVCMagicInf@@@Z 004e2c30 f   ObjUseSkill.obj
 0001:000e1fc0       ?SkillImmuneToMagic@CObjUseSkill@@QAEHHPAVCMagicInf@@@Z 004e2fc0 f   ObjUseSkill.obj
 0001:000e2040       ?SkillImmuneToHarm@CObjUseSkill@@QAEHHPAVCMagicInf@@@Z 004e3040 f   ObjUseSkill.obj
 0001:000e20c0       ?RemoveSpecificSkillState@CObjUseSkill@@QAEHPAUOBJECTSTRUCT@@H@Z 004e30c0 f   ObjUseSkill.obj
 0001:000e2110       ?RemoveAllCharacterInvalidMagicAndSkillState@CObjUseSkill@@QAEHPAUOBJECTSTRUCT@@@Z 004e3110 f   ObjUseSkill.obj
 0001:000e2140       ?SkillWizardJavalin@CObjUseSkill@@QAEHHHPAVCMagicInf@@@Z 004e3140 f   ObjUseSkill.obj
 0001:000e21d0       ?SkillElfRush@CObjUseSkill@@QAEHHHPAVCMagicInf@@@Z 004e31d0 f   ObjUseSkill.obj
 0001:000e2250       ?SkillMagumOneFlash@CObjUseSkill@@QAEHHHPAVCMagicInf@@@Z 004e3250 f   ObjUseSkill.obj
 0001:000e22f0       ?SkillMagumDeathCannon@CObjUseSkill@@QAEHHHPAVCMagicInf@@@Z 004e32f0 f   ObjUseSkill.obj
 0001:000e22f0       ?SkillKnightRush@CObjUseSkill@@QAEHHHPAVCMagicInf@@@Z 004e32f0 f   ObjUseSkill.obj
 0001:000e2380       ?SkillDarklordSpaceSplit@CObjUseSkill@@QAEHHHPAVCMagicInf@@@Z 004e3380 f   ObjUseSkill.obj
 0001:000e2400       ?SkillBrandOfSkill@CObjUseSkill@@QAEHHHPAVCMagicInf@@@Z 004e3400 f   ObjUseSkill.obj
 0001:000e2500       ?SkillStun@CObjUseSkill@@QAEHHHPAVCMagicInf@@EEEE@Z 004e3500 f   ObjUseSkill.obj
 0001:000e26a0       ?SkillRemoveStun@CObjUseSkill@@QAEHHHPAVCMagicInf@@@Z 004e36a0 f   ObjUseSkill.obj
 0001:000e2790       ?SkillAddMana@CObjUseSkill@@QAEHHHPAVCMagicInf@@@Z 004e3790 f   ObjUseSkill.obj
 0001:000e2a70       ?SkillCloaking@CObjUseSkill@@QAEHHHPAVCMagicInf@@@Z 004e3a70 f   ObjUseSkill.obj
 0001:000e2b50       ?RemoveCloakingEffect@CObjUseSkill@@QAEHH@Z 004e3b50 f   ObjUseSkill.obj
 0001:000e2b90       ?SkillRemoveCloaking@CObjUseSkill@@QAEHHHPAVCMagicInf@@@Z 004e3b90 f   ObjUseSkill.obj
 0001:000e2ca0       ?SkillRemoveMagic@CObjUseSkill@@QAEHHHPAVCMagicInf@@@Z 004e3ca0 f   ObjUseSkill.obj
 0001:000e2da0       ?SkillFenrirAttack@CObjUseSkill@@QAEHHHPAVCMagicInf@@@Z 004e3da0 f   ObjUseSkill.obj
 0001:000e2f00       ?SkillInfinityArrow@CObjUseSkill@@QAEHHHPAVCMagicInf@@@Z 004e3f00 f   ObjUseSkill.obj
 0001:000e2fb0       ?FireScreamExplosionAttack@CObjUseSkill@@QAEHPAUOBJECTSTRUCT@@0H@Z 004e3fb0 f   ObjUseSkill.obj
 0001:000e3160       ?SpecificSkillAdditionTreat@CObjUseSkill@@QAEXPAUOBJECTSTRUCT@@0PAVCMagicInf@@H@Z 004e4160 f   ObjUseSkill.obj
 0001:000e31a0       ?SkillEletrictSurge@CObjUseSkill@@QAEHHHPAVCMagicInf@@@Z 004e41a0 f   ObjUseSkill.obj
 0001:000e32e0       ?SkillEletrictSurgeProc@CObjUseSkill@@QAEHPAUOBJECTSTRUCT@@0HHHH@Z 004e42e0 f   ObjUseSkill.obj
 0001:000e33f0       ?SkillDamageReflection@CObjUseSkill@@QAEHHHPAVCMagicInf@@@Z 004e43f0 f   ObjUseSkill.obj
 0001:000e35b0       ?SkillSleep@CObjUseSkill@@QAEHHHPAVCMagicInf@@@Z 004e45b0 f   ObjUseSkill.obj
 0001:000e3750       ?SkillBlind@CObjUseSkill@@QAEHHHPAVCMagicInf@@@Z 004e4750 f   ObjUseSkill.obj
 0001:000e3a80       ?SkillWeakness@CObjUseSkill@@QAEHHPAVCMagicInf@@EEH@Z 004e4a80 f   ObjUseSkill.obj
 0001:000e3a80       ?SkillInnovation@CObjUseSkill@@QAEHHPAVCMagicInf@@EEH@Z 004e4a80 f   ObjUseSkill.obj
 0001:000e3c10       ?SkillLightningShock@CObjUseSkill@@QAEHHHPAVCMagicInf@@@Z 004e4c10 f   ObjUseSkill.obj
 0001:000e3dc0       ?SkillBerserker@CObjUseSkill@@QAEHHPAVCMagicInf@@@Z 004e4dc0 f   ObjUseSkill.obj
 0001:000e3e70       ?MLS_SkillFrustrum3@CMasterLevelSkillTreeSystem@@QAEXHEMMMM@Z 004e4e70 f   MasterLevelSkillTreeSystem.obj
 0001:000e3e70       ?SkillFrustrum3@CObjUseSkill@@QAEXHEMMMM@Z 004e4e70 f   ObjUseSkill.obj
 0001:000e3fb0       ?SkillFlameStrike@CObjUseSkill@@QAEXHPAVCMagicInf@@EH@Z 004e4fb0 f   ObjUseSkill.obj
 0001:000e4160       ?SkillMultiShot@CObjUseSkill@@QAEXHPAVCMagicInf@@EH@Z 004e5160 f   ObjUseSkill.obj
 0001:000e4520       ?SkillSDRecovery@CObjUseSkill@@QAEXHHPAVCMagicInf@@@Z 004e5520 f   ObjUseSkill.obj
 0001:000e46d0       ?SkillExpansionWizardry@CObjUseSkill@@QAEHHHPAVCMagicInf@@@Z 004e56d0 f   ObjUseSkill.obj
 0001:000e47b0       ?SkillChaoticDiseier@CObjUseSkill@@QAEXHPAVCMagicInf@@EH@Z 004e57b0 f   ObjUseSkill.obj
 0001:000e4960       ?SkillEvilMonster@CObjUseSkill@@QAEHHHPAVCMagicInf@@@Z 004e5960 f   ObjUseSkill.obj
 0001:000e4a70       ?SkillMonkBuff@CObjUseSkill@@QAEHHPAVCMagicInf@@@Z 004e5a70 f   ObjUseSkill.obj
 0001:000e4b60       ?SkillMonkBuffApplyParty@CObjUseSkill@@QAEHHPAVCMagicInf@@@Z 004e5b60 f   ObjUseSkill.obj
 0001:000e4e70       ?SkillCharge@CObjUseSkill@@QAEHHPAVCMagicInf@@H@Z 004e5e70 f   ObjUseSkill.obj
 0001:000e4f00       ??_GCObjUseSkill@@UAEPAXI@Z 004e5f00 f i ObjUseSkill.obj
 0001:000e4f00       ??_ECObjUseSkill@@UAEPAXI@Z 004e5f00 f i ObjUseSkill.obj
 0001:000e4f30       ?GetUseMana@CObjUseSkill@@QAEHHPAVCMagicInf@@@Z 004e5f30 f   ObjUseSkill.obj
 0001:000e5000       ?SkillHellFire2@CObjUseSkill@@QAEHHHPAVCMagicInf@@@Z 004e6000 f   ObjUseSkill.obj
 0001:000e5180       ?SkillKnightBlow@CObjUseSkill@@QAEHHHPAVCMagicInf@@H@Z 004e6180 f   ObjUseSkill.obj
 0001:000e5390       ?SkillElectricSpark@CObjUseSkill@@QAEXHPAVCMagicInf@@EEEEH@Z 004e6390 f   ObjUseSkill.obj
 0001:000e5530       ?SkillSummonerBook@CObjUseSkill@@QAEHHPAVCMagicInf@@EEH@Z 004e6530 f   ObjUseSkill.obj
 0001:000e56d0       ?SkillAreaMonsterAttack@CObjUseSkill@@QAEHHPAVCMagicInf@@EEHHHH@Z 004e66d0 f   ObjUseSkill.obj
 0001:000e5920       ?SkillStrikeOfDestructionStart@CObjUseSkill@@QAEHHPAVCMagicInf@@EEH@Z 004e6920 f   ObjUseSkill.obj
 0001:000e5950       ?SkillGiganticStormStart@CObjUseSkill@@QAEHHPAVCMagicInf@@EEH@Z 004e6950 f   ObjUseSkill.obj
 0001:000e5980       ?SkillDeathPoisonForMeDusa@CObjUseSkill@@QAEHHPAVCMagicInf@@EEH@Z 004e6980 f   ObjUseSkill.obj
 0001:000e5b20       ?SkillMonkBarrageJustOneTarget@CObjUseSkill@@QAEXHPAVCMagicInf@@H@Z 004e6b20 f   ObjUseSkill.obj
 0001:000e5dc0       ?SkillMonkDarkSideGetTargetIndex@CObjUseSkill@@QAEHHHPAVCMagicInf@@PAG@Z 004e6dc0 f   ObjUseSkill.obj
 0001:000e6070       ?RunningSkill@CObjUseSkill@@QAEHHHPAVCMagicInf@@H@Z 004e7070 f   ObjUseSkill.obj
 0001:000e69c0       ?SkillDeathPoison@CObjUseSkill@@QAEHHPAVCMagicInf@@EEEEH@Z 004e79c0 f   ObjUseSkill.obj
 0001:000e6b20       ?SkillSuddenIce@CObjUseSkill@@QAEHHPAVCMagicInf@@EEEEH@Z 004e7b20 f   ObjUseSkill.obj
 0001:000e6c80       ?SkillPollutionStart@CObjUseSkill@@QAEHHPAVCMagicInf@@EEHH@Z 004e7c80 f   ObjUseSkill.obj
 0001:000e6d20       ?UseSkill@CObjUseSkill@@QAEXHPAVCMagicInf@@EEEEH@Z 004e7d20 f   ObjUseSkill.obj
 0001:000e7620       ?UseSkill@CObjUseSkill@@QAEXHHPAVCMagicInf@@@Z 004e8620 f   ObjUseSkill.obj
 0001:000e7810       ??1CPacketCheckSum@@UAE@XZ 004e8810 f   PacketCheckSum.obj
